Archive member included to satisfy reference by file (symbol)

.build/obj_redox_rev1_base_ad_rev2/serial.a(serial.o)
                              .build/obj_redox_rev1_base_ad_rev2/quantum/split_common/transport.o (soft_serial_initiator_init)
/usr/lib/gcc/avr/7.3.0/avr5/libgcc.a(_udivmodqi4.o)
                              .build/obj_redox_rev1_base_ad_rev2/quantum/rgblight/rgblight.o (__udivmodqi4)
/usr/lib/gcc/avr/7.3.0/avr5/libgcc.a(_divmodqi4.o)
                              .build/obj_redox_rev1_base_ad_rev2/quantum/rgblight/rgblight.o (__divmodqi4)
/usr/lib/gcc/avr/7.3.0/avr5/libgcc.a(_udivmodhi4.o)
                              .build/obj_redox_rev1_base_ad_rev2/quantum/color.o (__udivmodhi4)
/usr/lib/gcc/avr/7.3.0/avr5/libgcc.a(_divmodhi4.o)
                              .build/obj_redox_rev1_base_ad_rev2/quantum/rgblight/rgblight.o (__divmodhi4)
/usr/lib/gcc/avr/7.3.0/avr5/libgcc.a(_udivmodsi4.o)
                              .build/obj_redox_rev1_base_ad_rev2/quantum/quantum.o (__udivmodsi4)
/usr/lib/gcc/avr/7.3.0/avr5/libgcc.a(_exit.o)
                              /usr/lib/gcc/avr/7.3.0/../../../avr/lib/avr5/crtatmega32u4.o (exit)
/usr/lib/gcc/avr/7.3.0/avr5/libgcc.a(_tablejump2.o)
                              .build/obj_redox_rev1_base_ad_rev2/quantum/action.o (__tablejump2__)
/usr/lib/gcc/avr/7.3.0/avr5/libgcc.a(_copy_data.o)
                              .build/obj_redox_rev1_base_ad_rev2/quantum/keymap_introspection.o (__do_copy_data)
/usr/lib/gcc/avr/7.3.0/avr5/libgcc.a(_clear_bss.o)
                              .build/obj_redox_rev1_base_ad_rev2/quantum/keymap_introspection.o (__do_clear_bss)
/usr/lib/gcc/avr/7.3.0/avr5/libgcc.a(_mulhisi3.o)
                              .build/obj_redox_rev1_base_ad_rev2/quantum/rgblight/rgblight.o (__mulhisi3)
/usr/lib/gcc/avr/7.3.0/avr5/libgcc.a(_umulhisi3.o)
                              .build/obj_redox_rev1_base_ad_rev2/quantum/rgblight/rgblight.o (__umulhisi3)
/usr/lib/gcc/avr/7.3.0/avr5/libgcc.a(_usmulhisi3.o)
                              /usr/lib/gcc/avr/7.3.0/avr5/libgcc.a(_mulhisi3.o) (__usmulhisi3_tail)
/usr/lib/gcc/avr/7.3.0/avr5/libgcc.a(_muluhisi3.o)
                              .build/obj_redox_rev1_base_ad_rev2/quantum/rgblight/rgblight.o (__muluhisi3)
/usr/lib/gcc/avr/7.3.0/avr5/libgcc.a(_mulshisi3.o)
                              .build/obj_redox_rev1_base_ad_rev2/quantum/rgblight/rgblight.o (__mulshisi3)
/usr/lib/gcc/avr/7.3.0/avr5/libgcc.a(_prologue.o)
                              .build/obj_redox_rev1_base_ad_rev2/quantum/quantum.o (__prologue_saves__)
/usr/lib/gcc/avr/7.3.0/avr5/libgcc.a(_epilogue.o)
                              .build/obj_redox_rev1_base_ad_rev2/quantum/quantum.o (__epilogue_restores__)
/usr/lib/gcc/avr/7.3.0/avr5/libgcc.a(_ashldi3.o)
                              .build/obj_redox_rev1_base_ad_rev2/quantum/rgblight/rgblight.o (__ashldi3)
/usr/lib/gcc/avr/7.3.0/avr5/libgcc.a(_ashrdi3.o)
                              .build/obj_redox_rev1_base_ad_rev2/quantum/rgblight/rgblight.o (__lshrdi3)
/usr/lib/gcc/avr/7.3.0/../../../avr/lib/avr5/libc.a(rand.o)
                              .build/obj_redox_rev1_base_ad_rev2/quantum/rgblight/rgblight.o (rand)
/usr/lib/gcc/avr/7.3.0/../../../avr/lib/avr5/libc.a(memchr.o)
                              .build/obj_redox_rev1_base_ad_rev2/quantum/rgblight/rgblight.o (memchr)
/usr/lib/gcc/avr/7.3.0/../../../avr/lib/avr5/libc.a(memcmp.o)
                              .build/obj_redox_rev1_base_ad_rev2/quantum/action_util.o (memcmp)
/usr/lib/gcc/avr/7.3.0/../../../avr/lib/avr5/libc.a(memcpy.o)
                              .build/obj_redox_rev1_base_ad_rev2/quantum/debounce/sym_defer_g.o (memcpy)
/usr/lib/gcc/avr/7.3.0/../../../avr/lib/avr5/libatmega32u4.a(eerd_byte.o)
                              .build/obj_redox_rev1_base_ad_rev2/quantum/eeconfig.o (eeprom_read_byte)
/usr/lib/gcc/avr/7.3.0/../../../avr/lib/avr5/libatmega32u4.a(eerd_dword.o)
                              .build/obj_redox_rev1_base_ad_rev2/quantum/eeconfig.o (eeprom_read_dword)
/usr/lib/gcc/avr/7.3.0/../../../avr/lib/avr5/libatmega32u4.a(eerd_word.o)
                              .build/obj_redox_rev1_base_ad_rev2/quantum/eeconfig.o (eeprom_read_word)
/usr/lib/gcc/avr/7.3.0/../../../avr/lib/avr5/libatmega32u4.a(eeupd_block.o)
                              .build/obj_redox_rev1_base_ad_rev2/quantum/eeconfig.o (eeprom_update_block)
/usr/lib/gcc/avr/7.3.0/../../../avr/lib/avr5/libatmega32u4.a(eeupd_byte.o)
                              .build/obj_redox_rev1_base_ad_rev2/quantum/eeconfig.o (eeprom_update_byte)
/usr/lib/gcc/avr/7.3.0/../../../avr/lib/avr5/libatmega32u4.a(eeupd_dword.o)
                              .build/obj_redox_rev1_base_ad_rev2/quantum/eeconfig.o (eeprom_update_dword)
/usr/lib/gcc/avr/7.3.0/../../../avr/lib/avr5/libatmega32u4.a(eeupd_word.o)
                              .build/obj_redox_rev1_base_ad_rev2/quantum/eeconfig.o (eeprom_update_word)
/usr/lib/gcc/avr/7.3.0/../../../avr/lib/avr5/libatmega32u4.a(eerd_block.o)
                              /usr/lib/gcc/avr/7.3.0/../../../avr/lib/avr5/libatmega32u4.a(eerd_dword.o) (eeprom_read_blraw)
/usr/lib/gcc/avr/7.3.0/avr5/libgcc.a(_divmodsi4.o)
                              /usr/lib/gcc/avr/7.3.0/../../../avr/lib/avr5/libc.a(rand.o) (__divmodsi4)
/usr/lib/gcc/avr/7.3.0/avr5/libgcc.a(_negsi2.o)
                              /usr/lib/gcc/avr/7.3.0/avr5/libgcc.a(_divmodsi4.o) (__negsi2)

Allocating common symbols
Common symbol       size              file

rgblight_config     0x8               .build/obj_redox_rev1_base_ad_rev2/quantum/rgblight/rgblight.o
unicode_saved_led_state
                    0x1               .build/obj_redox_rev1_base_ad_rev2/quantum/unicode/unicode.o
USB_IsInitialized   0x1               .build/obj_redox_rev1_base_ad_rev2/lib/lufa/LUFA/Drivers/USB/Core/USBTask.o
keymap_config       0x2               .build/obj_redox_rev1_base_ad_rev2/quantum/keycode_config.o
thatHand            0x1               .build/obj_redox_rev1_base_ad_rev2/quantum/matrix_common.o
unicode_config      0x1               .build/obj_redox_rev1_base_ad_rev2/quantum/unicode/unicode.o
sync_timer_ms       0x4               .build/obj_redox_rev1_base_ad_rev2/quantum/sync_timer.o
USB_DeviceState     0x1               .build/obj_redox_rev1_base_ad_rev2/lib/lufa/LUFA/Drivers/USB/Core/USBTask.o
unicode_saved_mods  0x1               .build/obj_redox_rev1_base_ad_rev2/quantum/unicode/unicode.o
USB_Device_ConfigurationNumber
                    0x1               .build/obj_redox_rev1_base_ad_rev2/lib/lufa/LUFA/Drivers/USB/Core/DeviceStandardReq.o
led                 0x2a              .build/obj_redox_rev1_base_ad_rev2/quantum/rgblight/rgblight.o
raw_matrix          0xa               .build/obj_redox_rev1_base_ad_rev2/quantum/matrix_common.o
USB_Device_CurrentlySelfPowered
                    0x1               .build/obj_redox_rev1_base_ad_rev2/lib/lufa/LUFA/Drivers/USB/Core/DeviceStandardReq.o
matrix              0xa               .build/obj_redox_rev1_base_ad_rev2/quantum/matrix_common.o
USB_ControlRequest  0x8               .build/obj_redox_rev1_base_ad_rev2/lib/lufa/LUFA/Drivers/USB/Core/USBTask.o
tp_buttons          0x2               .build/obj_redox_rev1_base_ad_rev2/quantum/action.o
USB_Device_RemoteWakeupEnabled
                    0x1               .build/obj_redox_rev1_base_ad_rev2/lib/lufa/LUFA/Drivers/USB/Core/DeviceStandardReq.o
thisHand            0x1               .build/obj_redox_rev1_base_ad_rev2/quantum/matrix_common.o
timer_count         0x4               .build/obj_redox_rev1_base_ad_rev2/platforms/avr/timer.o

Discarded input sections

 .data          0x0000000000000000        0x0 /usr/lib/gcc/avr/7.3.0/../../../avr/lib/avr5/crtatmega32u4.o
 .bss           0x0000000000000000        0x0 /usr/lib/gcc/avr/7.3.0/../../../avr/lib/avr5/crtatmega32u4.o
 .text          0x0000000000000000        0x0 .build/obj_redox_rev1_base_ad_rev2/.build/obj_redox_rev1_base_ad_rev2/src/default_keyboard.o
 .data          0x0000000000000000        0x0 .build/obj_redox_rev1_base_ad_rev2/.build/obj_redox_rev1_base_ad_rev2/src/default_keyboard.o
 .bss           0x0000000000000000        0x0 .build/obj_redox_rev1_base_ad_rev2/.build/obj_redox_rev1_base_ad_rev2/src/default_keyboard.o
 .debug_info    0x0000000000000000      0xa70 .build/obj_redox_rev1_base_ad_rev2/.build/obj_redox_rev1_base_ad_rev2/src/default_keyboard.o
 .debug_abbrev  0x0000000000000000      0x1b3 .build/obj_redox_rev1_base_ad_rev2/.build/obj_redox_rev1_base_ad_rev2/src/default_keyboard.o
 .debug_aranges
                0x0000000000000000       0x18 .build/obj_redox_rev1_base_ad_rev2/.build/obj_redox_rev1_base_ad_rev2/src/default_keyboard.o
 .debug_line    0x0000000000000000      0x200 .build/obj_redox_rev1_base_ad_rev2/.build/obj_redox_rev1_base_ad_rev2/src/default_keyboard.o
 .debug_str     0x0000000000000000      0x9b1 .build/obj_redox_rev1_base_ad_rev2/.build/obj_redox_rev1_base_ad_rev2/src/default_keyboard.o
 .comment       0x0000000000000000       0x12 .build/obj_redox_rev1_base_ad_rev2/.build/obj_redox_rev1_base_ad_rev2/src/default_keyboard.o
 .text          0x0000000000000000        0x0 .build/obj_redox_rev1_base_ad_rev2/quantum/keymap_introspection.o
 .data          0x0000000000000000        0x0 .build/obj_redox_rev1_base_ad_rev2/quantum/keymap_introspection.o
 .bss           0x0000000000000000        0x0 .build/obj_redox_rev1_base_ad_rev2/quantum/keymap_introspection.o
 .text.keymap_layer_count_raw
                0x0000000000000000        0x4 .build/obj_redox_rev1_base_ad_rev2/quantum/keymap_introspection.o
 .text.keymap_layer_count
                0x0000000000000000        0x4 .build/obj_redox_rev1_base_ad_rev2/quantum/keymap_introspection.o
 .text          0x0000000000000000        0x0 .build/obj_redox_rev1_base_ad_rev2/quantum/quantum.o
 .data          0x0000000000000000        0x0 .build/obj_redox_rev1_base_ad_rev2/quantum/quantum.o
 .bss           0x0000000000000000        0x0 .build/obj_redox_rev1_base_ad_rev2/quantum/quantum.o
 .text.process_record_user
                0x0000000000000000        0x6 .build/obj_redox_rev1_base_ad_rev2/quantum/quantum.o
 .text.set_single_persistent_default_layer
                0x0000000000000000       0x24 .build/obj_redox_rev1_base_ad_rev2/quantum/quantum.o
 .text.get_numeric_str
                0x0000000000000000       0xa4 .build/obj_redox_rev1_base_ad_rev2/quantum/quantum.o
 .text.get_u8_str
                0x0000000000000000       0x3a .build/obj_redox_rev1_base_ad_rev2/quantum/quantum.o
 .text.get_u16_str
                0x0000000000000000       0x42 .build/obj_redox_rev1_base_ad_rev2/quantum/quantum.o
 .bss.buf.5454  0x0000000000000000        0x6 .build/obj_redox_rev1_base_ad_rev2/quantum/quantum.o
 .bss.last_pad.5456
                0x0000000000000000        0x1 .build/obj_redox_rev1_base_ad_rev2/quantum/quantum.o
 .data.last_num.5455
                0x0000000000000000        0x2 .build/obj_redox_rev1_base_ad_rev2/quantum/quantum.o
 .bss.buf.5447  0x0000000000000000        0x4 .build/obj_redox_rev1_base_ad_rev2/quantum/quantum.o
 .bss.last_pad.5449
                0x0000000000000000        0x1 .build/obj_redox_rev1_base_ad_rev2/quantum/quantum.o
 .data.last_num.5448
                0x0000000000000000        0x1 .build/obj_redox_rev1_base_ad_rev2/quantum/quantum.o
 .text          0x0000000000000000        0x0 .build/obj_redox_rev1_base_ad_rev2/quantum/bitwise.o
 .data          0x0000000000000000        0x0 .build/obj_redox_rev1_base_ad_rev2/quantum/bitwise.o
 .bss           0x0000000000000000        0x0 .build/obj_redox_rev1_base_ad_rev2/quantum/bitwise.o
 .text.bitpop   0x0000000000000000       0x14 .build/obj_redox_rev1_base_ad_rev2/quantum/bitwise.o
 .text.bitpop16
                0x0000000000000000       0x18 .build/obj_redox_rev1_base_ad_rev2/quantum/bitwise.o
 .text.bitpop32
                0x0000000000000000       0x3a .build/obj_redox_rev1_base_ad_rev2/quantum/bitwise.o
 .text.biton    0x0000000000000000       0x26 .build/obj_redox_rev1_base_ad_rev2/quantum/bitwise.o
 .text.biton16  0x0000000000000000       0x48 .build/obj_redox_rev1_base_ad_rev2/quantum/bitwise.o
 .text.biton32  0x0000000000000000       0x9a .build/obj_redox_rev1_base_ad_rev2/quantum/bitwise.o
 .text.bitrev   0x0000000000000000       0x30 .build/obj_redox_rev1_base_ad_rev2/quantum/bitwise.o
 .text.bitrev16
                0x0000000000000000       0x1a .build/obj_redox_rev1_base_ad_rev2/quantum/bitwise.o
 .text.bitrev32
                0x0000000000000000       0x42 .build/obj_redox_rev1_base_ad_rev2/quantum/bitwise.o
 .debug_info    0x0000000000000000      0x2b2 .build/obj_redox_rev1_base_ad_rev2/quantum/bitwise.o
 .debug_abbrev  0x0000000000000000       0xd8 .build/obj_redox_rev1_base_ad_rev2/quantum/bitwise.o
 .debug_loc     0x0000000000000000      0x4c4 .build/obj_redox_rev1_base_ad_rev2/quantum/bitwise.o
 .debug_aranges
                0x0000000000000000       0x60 .build/obj_redox_rev1_base_ad_rev2/quantum/bitwise.o
 .debug_ranges  0x0000000000000000       0x50 .build/obj_redox_rev1_base_ad_rev2/quantum/bitwise.o
 .debug_line    0x0000000000000000      0x25f .build/obj_redox_rev1_base_ad_rev2/quantum/bitwise.o
 .debug_str     0x0000000000000000      0x21f .build/obj_redox_rev1_base_ad_rev2/quantum/bitwise.o
 .comment       0x0000000000000000       0x12 .build/obj_redox_rev1_base_ad_rev2/quantum/bitwise.o
 .debug_frame   0x0000000000000000       0xec .build/obj_redox_rev1_base_ad_rev2/quantum/bitwise.o
 .text          0x0000000000000000        0x0 .build/obj_redox_rev1_base_ad_rev2/quantum/led.o
 .data          0x0000000000000000        0x0 .build/obj_redox_rev1_base_ad_rev2/quantum/led.o
 .bss           0x0000000000000000        0x0 .build/obj_redox_rev1_base_ad_rev2/quantum/led.o
 .text.last_led_activity_time
                0x0000000000000000       0x12 .build/obj_redox_rev1_base_ad_rev2/quantum/led.o
 .text.last_led_activity_elapsed
                0x0000000000000000       0x16 .build/obj_redox_rev1_base_ad_rev2/quantum/led.o
 .text          0x0000000000000000        0x0 .build/obj_redox_rev1_base_ad_rev2/quantum/action.o
 .data          0x0000000000000000        0x0 .build/obj_redox_rev1_base_ad_rev2/quantum/action.o
 .bss           0x0000000000000000        0x0 .build/obj_redox_rev1_base_ad_rev2/quantum/action.o
 .text.process_record_quantum
                0x0000000000000000        0x4 .build/obj_redox_rev1_base_ad_rev2/quantum/action.o
 .text.post_process_record_quantum
                0x0000000000000000        0x2 .build/obj_redox_rev1_base_ad_rev2/quantum/action.o
 .text.process_record_nocache
                0x0000000000000000       0x10 .build/obj_redox_rev1_base_ad_rev2/quantum/action.o
 .text.debug_action
                0x0000000000000000        0x2 .build/obj_redox_rev1_base_ad_rev2/quantum/action.o
 .avr.prop      0x0000000000000000       0x16 .build/obj_redox_rev1_base_ad_rev2/quantum/action.o
 COMMON         0x0000000000000000        0x2 .build/obj_redox_rev1_base_ad_rev2/quantum/action.o
 .text          0x0000000000000000        0x0 .build/obj_redox_rev1_base_ad_rev2/quantum/action_layer.o
 .data          0x0000000000000000        0x0 .build/obj_redox_rev1_base_ad_rev2/quantum/action_layer.o
 .bss           0x0000000000000000        0x0 .build/obj_redox_rev1_base_ad_rev2/quantum/action_layer.o
 .text.layer_state_cmp
                0x0000000000000000       0x28 .build/obj_redox_rev1_base_ad_rev2/quantum/action_layer.o
 .text.layer_state_is
                0x0000000000000000       0x10 .build/obj_redox_rev1_base_ad_rev2/quantum/action_layer.o
 .text.update_tri_layer_state
                0x0000000000000000       0x4a .build/obj_redox_rev1_base_ad_rev2/quantum/action_layer.o
 .text.update_tri_layer
                0x0000000000000000       0x18 .build/obj_redox_rev1_base_ad_rev2/quantum/action_layer.o
 .text          0x0000000000000000        0x0 .build/obj_redox_rev1_base_ad_rev2/quantum/action_tapping.o
 .data          0x0000000000000000        0x0 .build/obj_redox_rev1_base_ad_rev2/quantum/action_tapping.o
 .bss           0x0000000000000000        0x0 .build/obj_redox_rev1_base_ad_rev2/quantum/action_tapping.o
 .text          0x0000000000000000        0x0 .build/obj_redox_rev1_base_ad_rev2/quantum/action_util.o
 .data          0x0000000000000000        0x0 .build/obj_redox_rev1_base_ad_rev2/quantum/action_util.o
 .bss           0x0000000000000000        0x0 .build/obj_redox_rev1_base_ad_rev2/quantum/action_util.o
 .text.add_key  0x0000000000000000        0x6 .build/obj_redox_rev1_base_ad_rev2/quantum/action_util.o
 .text.del_key  0x0000000000000000        0x6 .build/obj_redox_rev1_base_ad_rev2/quantum/action_util.o
 .text.clear_keys
                0x0000000000000000        0x6 .build/obj_redox_rev1_base_ad_rev2/quantum/action_util.o
 .text.get_oneshot_locked_mods
                0x0000000000000000        0x6 .build/obj_redox_rev1_base_ad_rev2/quantum/action_util.o
 .text.has_oneshot_mods_timed_out
                0x0000000000000000        0x4 .build/obj_redox_rev1_base_ad_rev2/quantum/action_util.o
 .text.is_oneshot_enabled
                0x0000000000000000        0xc .build/obj_redox_rev1_base_ad_rev2/quantum/action_util.o
 .text.set_weak_mods
                0x0000000000000000        0x6 .build/obj_redox_rev1_base_ad_rev2/quantum/action_util.o
 .text.add_oneshot_locked_mods
                0x0000000000000000       0x18 .build/obj_redox_rev1_base_ad_rev2/quantum/action_util.o
 .text.set_oneshot_locked_mods
                0x0000000000000000       0x12 .build/obj_redox_rev1_base_ad_rev2/quantum/action_util.o
 .text.clear_oneshot_locked_mods
                0x0000000000000000       0x14 .build/obj_redox_rev1_base_ad_rev2/quantum/action_util.o
 .text.set_oneshot_mods
                0x0000000000000000       0x1a .build/obj_redox_rev1_base_ad_rev2/quantum/action_util.o
 .text.has_anymod
                0x0000000000000000        0xa .build/obj_redox_rev1_base_ad_rev2/quantum/action_util.o
 .text          0x0000000000000000        0x0 .build/obj_redox_rev1_base_ad_rev2/quantum/eeconfig.o
 .data          0x0000000000000000        0x0 .build/obj_redox_rev1_base_ad_rev2/quantum/eeconfig.o
 .bss           0x0000000000000000        0x0 .build/obj_redox_rev1_base_ad_rev2/quantum/eeconfig.o
 .text.eeconfig_enable
                0x0000000000000000        0xe .build/obj_redox_rev1_base_ad_rev2/quantum/eeconfig.o
 .text.eeconfig_is_disabled
                0x0000000000000000       0x14 .build/obj_redox_rev1_base_ad_rev2/quantum/eeconfig.o
 .text.eeconfig_update_debug
                0x0000000000000000        0xc .build/obj_redox_rev1_base_ad_rev2/quantum/eeconfig.o
 .text.eeconfig_update_default_layer
                0x0000000000000000        0xc .build/obj_redox_rev1_base_ad_rev2/quantum/eeconfig.o
 .text.eeconfig_read_audio
                0x0000000000000000        0xa .build/obj_redox_rev1_base_ad_rev2/quantum/eeconfig.o
 .text.eeconfig_update_audio
                0x0000000000000000        0xc .build/obj_redox_rev1_base_ad_rev2/quantum/eeconfig.o
 .text.eeconfig_read_kb
                0x0000000000000000        0xa .build/obj_redox_rev1_base_ad_rev2/quantum/eeconfig.o
 .text.eeconfig_read_user
                0x0000000000000000        0xa .build/obj_redox_rev1_base_ad_rev2/quantum/eeconfig.o
 .text.eeconfig_read_haptic
                0x0000000000000000        0xa .build/obj_redox_rev1_base_ad_rev2/quantum/eeconfig.o
 .text.eeconfig_update_haptic
                0x0000000000000000        0xe .build/obj_redox_rev1_base_ad_rev2/quantum/eeconfig.o
 .text.eeconfig_read_handedness
                0x0000000000000000       0x14 .build/obj_redox_rev1_base_ad_rev2/quantum/eeconfig.o
 .text          0x0000000000000000        0x0 .build/obj_redox_rev1_base_ad_rev2/quantum/keyboard.o
 .data          0x0000000000000000        0x0 .build/obj_redox_rev1_base_ad_rev2/quantum/keyboard.o
 .bss           0x0000000000000000        0x0 .build/obj_redox_rev1_base_ad_rev2/quantum/keyboard.o
 .text.last_input_activity_time
                0x0000000000000000       0x12 .build/obj_redox_rev1_base_ad_rev2/quantum/keyboard.o
 .text.last_input_activity_elapsed
                0x0000000000000000       0x16 .build/obj_redox_rev1_base_ad_rev2/quantum/keyboard.o
 .text.last_matrix_activity_time
                0x0000000000000000       0x12 .build/obj_redox_rev1_base_ad_rev2/quantum/keyboard.o
 .text.last_matrix_activity_elapsed
                0x0000000000000000       0x16 .build/obj_redox_rev1_base_ad_rev2/quantum/keyboard.o
 .text.last_encoder_activity_time
                0x0000000000000000       0x12 .build/obj_redox_rev1_base_ad_rev2/quantum/keyboard.o
 .text.last_encoder_activity_elapsed
                0x0000000000000000       0x16 .build/obj_redox_rev1_base_ad_rev2/quantum/keyboard.o
 .text.last_encoder_activity_trigger
                0x0000000000000000       0x26 .build/obj_redox_rev1_base_ad_rev2/quantum/keyboard.o
 .text.last_pointing_device_activity_time
                0x0000000000000000       0x12 .build/obj_redox_rev1_base_ad_rev2/quantum/keyboard.o
 .text.last_pointing_device_activity_elapsed
                0x0000000000000000       0x16 .build/obj_redox_rev1_base_ad_rev2/quantum/keyboard.o
 .text.last_pointing_device_activity_trigger
                0x0000000000000000       0x26 .build/obj_redox_rev1_base_ad_rev2/quantum/keyboard.o
 .text.set_activity_timestamps
                0x0000000000000000       0x86 .build/obj_redox_rev1_base_ad_rev2/quantum/keyboard.o
 .text.switch_events
                0x0000000000000000        0x2 .build/obj_redox_rev1_base_ad_rev2/quantum/keyboard.o
 .bss.last_pointing_device_modification_time
                0x0000000000000000        0x4 .build/obj_redox_rev1_base_ad_rev2/quantum/keyboard.o
 .bss.last_encoder_modification_time
                0x0000000000000000        0x4 .build/obj_redox_rev1_base_ad_rev2/quantum/keyboard.o
 .text          0x0000000000000000        0x0 .build/obj_redox_rev1_base_ad_rev2/quantum/keymap_common.o
 .data          0x0000000000000000        0x0 .build/obj_redox_rev1_base_ad_rev2/quantum/keymap_common.o
 .bss           0x0000000000000000        0x0 .build/obj_redox_rev1_base_ad_rev2/quantum/keymap_common.o
 .text          0x0000000000000000        0x0 .build/obj_redox_rev1_base_ad_rev2/quantum/keycode_config.o
 .data          0x0000000000000000        0x0 .build/obj_redox_rev1_base_ad_rev2/quantum/keycode_config.o
 .bss           0x0000000000000000        0x0 .build/obj_redox_rev1_base_ad_rev2/quantum/keycode_config.o
 .text          0x0000000000000000        0x0 .build/obj_redox_rev1_base_ad_rev2/quantum/sync_timer.o
 .data          0x0000000000000000        0x0 .build/obj_redox_rev1_base_ad_rev2/quantum/sync_timer.o
 .bss           0x0000000000000000        0x0 .build/obj_redox_rev1_base_ad_rev2/quantum/sync_timer.o
 .text.sync_timer_elapsed
                0x0000000000000000       0x24 .build/obj_redox_rev1_base_ad_rev2/quantum/sync_timer.o
 .text.sync_timer_elapsed32
                0x0000000000000000       0x34 .build/obj_redox_rev1_base_ad_rev2/quantum/sync_timer.o
 .text          0x0000000000000000        0x0 .build/obj_redox_rev1_base_ad_rev2/quantum/logging/debug.o
 .data          0x0000000000000000        0x0 .build/obj_redox_rev1_base_ad_rev2/quantum/logging/debug.o
 .bss           0x0000000000000000        0x0 .build/obj_redox_rev1_base_ad_rev2/quantum/logging/debug.o
 .text          0x0000000000000000        0x0 .build/obj_redox_rev1_base_ad_rev2/quantum/logging/sendchar.o
 .data          0x0000000000000000        0x0 .build/obj_redox_rev1_base_ad_rev2/quantum/logging/sendchar.o
 .bss           0x0000000000000000        0x0 .build/obj_redox_rev1_base_ad_rev2/quantum/logging/sendchar.o
 .text          0x0000000000000000        0x0 .build/obj_redox_rev1_base_ad_rev2/quantum/matrix_common.o
 .data          0x0000000000000000        0x0 .build/obj_redox_rev1_base_ad_rev2/quantum/matrix_common.o
 .bss           0x0000000000000000        0x0 .build/obj_redox_rev1_base_ad_rev2/quantum/matrix_common.o
 .text.matrix_rows
                0x0000000000000000        0x4 .build/obj_redox_rev1_base_ad_rev2/quantum/matrix_common.o
 .text.matrix_cols
                0x0000000000000000        0x4 .build/obj_redox_rev1_base_ad_rev2/quantum/matrix_common.o
 .text.matrix_is_on
                0x0000000000000000       0x28 .build/obj_redox_rev1_base_ad_rev2/quantum/matrix_common.o
 .text.matrix_init_custom
                0x0000000000000000        0x2 .build/obj_redox_rev1_base_ad_rev2/quantum/matrix_common.o
 .text.matrix_scan_custom
                0x0000000000000000        0x4 .build/obj_redox_rev1_base_ad_rev2/quantum/matrix_common.o
 .text.matrix_init
                0x0000000000000000       0x3a .build/obj_redox_rev1_base_ad_rev2/quantum/matrix_common.o
 .text.matrix_scan
                0x0000000000000000       0x2c .build/obj_redox_rev1_base_ad_rev2/quantum/matrix_common.o
 .text.peek_matrix
                0x0000000000000000       0x24 .build/obj_redox_rev1_base_ad_rev2/quantum/matrix_common.o
 .text          0x0000000000000000        0x0 .build/obj_redox_rev1_base_ad_rev2/quantum/matrix.o
 .data          0x0000000000000000        0x0 .build/obj_redox_rev1_base_ad_rev2/quantum/matrix.o
 .bss           0x0000000000000000        0x0 .build/obj_redox_rev1_base_ad_rev2/quantum/matrix.o
 .text.transport_master_if_connected
                0x0000000000000000        0x8 .build/obj_redox_rev1_base_ad_rev2/quantum/matrix.o
 .text          0x0000000000000000        0x0 .build/obj_redox_rev1_base_ad_rev2/quantum/debounce/sym_defer_g.o
 .data          0x0000000000000000        0x0 .build/obj_redox_rev1_base_ad_rev2/quantum/debounce/sym_defer_g.o
 .bss           0x0000000000000000        0x0 .build/obj_redox_rev1_base_ad_rev2/quantum/debounce/sym_defer_g.o
 .text.debounce_free
                0x0000000000000000        0x2 .build/obj_redox_rev1_base_ad_rev2/quantum/debounce/sym_defer_g.o
 .text          0x0000000000000000        0x0 .build/obj_redox_rev1_base_ad_rev2/quantum/split_common/split_util.o
 .data          0x0000000000000000        0x0 .build/obj_redox_rev1_base_ad_rev2/quantum/split_common/split_util.o
 .bss           0x0000000000000000        0x0 .build/obj_redox_rev1_base_ad_rev2/quantum/split_common/split_util.o
 .text          0x0000000000000000        0x0 .build/obj_redox_rev1_base_ad_rev2/quantum/split_common/transport.o
 .data          0x0000000000000000        0x0 .build/obj_redox_rev1_base_ad_rev2/quantum/split_common/transport.o
 .bss           0x0000000000000000        0x0 .build/obj_redox_rev1_base_ad_rev2/quantum/split_common/transport.o
 .text          0x0000000000000000        0x0 .build/obj_redox_rev1_base_ad_rev2/quantum/split_common/transactions.o
 .data          0x0000000000000000        0x0 .build/obj_redox_rev1_base_ad_rev2/quantum/split_common/transactions.o
 .bss           0x0000000000000000        0x0 .build/obj_redox_rev1_base_ad_rev2/quantum/split_common/transactions.o
 .text          0x0000000000000000        0x0 .build/obj_redox_rev1_base_ad_rev2/quantum/main.o
 .data          0x0000000000000000        0x0 .build/obj_redox_rev1_base_ad_rev2/quantum/main.o
 .bss           0x0000000000000000        0x0 .build/obj_redox_rev1_base_ad_rev2/quantum/main.o
 .text          0x0000000000000000      0x15c .build/obj_redox_rev1_base_ad_rev2/platforms/avr/xprintf.o
 .data          0x0000000000000000        0x0 .build/obj_redox_rev1_base_ad_rev2/platforms/avr/xprintf.o
 .text          0x0000000000000000        0x0 .build/obj_redox_rev1_base_ad_rev2/platforms/avr/printf.o
 .data          0x0000000000000000        0x0 .build/obj_redox_rev1_base_ad_rev2/platforms/avr/printf.o
 .bss           0x0000000000000000        0x0 .build/obj_redox_rev1_base_ad_rev2/platforms/avr/printf.o
 .text          0x0000000000000000        0x0 .build/obj_redox_rev1_base_ad_rev2/quantum/color.o
 .data          0x0000000000000000        0x0 .build/obj_redox_rev1_base_ad_rev2/quantum/color.o
 .bss           0x0000000000000000        0x0 .build/obj_redox_rev1_base_ad_rev2/quantum/color.o
 .text.hsv_to_rgb_nocie
                0x0000000000000000        0x8 .build/obj_redox_rev1_base_ad_rev2/quantum/color.o
 .text          0x0000000000000000        0x0 .build/obj_redox_rev1_base_ad_rev2/quantum/rgblight/rgblight.o
 .data          0x0000000000000000        0x0 .build/obj_redox_rev1_base_ad_rev2/quantum/rgblight/rgblight.o
 .bss           0x0000000000000000        0x0 .build/obj_redox_rev1_base_ad_rev2/quantum/rgblight/rgblight.o
 .text.rgblight_set_clipping_range
                0x0000000000000000        0xa .build/obj_redox_rev1_base_ad_rev2/quantum/rgblight/rgblight.o
 .text.rgblight_set_effect_range
                0x0000000000000000       0x22 .build/obj_redox_rev1_base_ad_rev2/quantum/rgblight/rgblight.o
 .text.setrgb   0x0000000000000000        0xa .build/obj_redox_rev1_base_ad_rev2/quantum/rgblight/rgblight.o
 .text.sethsv   0x0000000000000000        0x6 .build/obj_redox_rev1_base_ad_rev2/quantum/rgblight/rgblight.o
 .text.eeconfig_update_rgblight_current
                0x0000000000000000       0x1a .build/obj_redox_rev1_base_ad_rev2/quantum/rgblight/rgblight.o
 .text.eeconfig_debug_rgblight
                0x0000000000000000        0x2 .build/obj_redox_rev1_base_ad_rev2/quantum/rgblight/rgblight.o
 .text.rgblight_read_qword
                0x0000000000000000       0x16 .build/obj_redox_rev1_base_ad_rev2/quantum/rgblight/rgblight.o
 .text.rgblight_is_enabled
                0x0000000000000000        0x8 .build/obj_redox_rev1_base_ad_rev2/quantum/rgblight/rgblight.o
 .text.rgblight_increase_speed_noeeprom
                0x0000000000000000        0x8 .build/obj_redox_rev1_base_ad_rev2/quantum/rgblight/rgblight.o
 .text.rgblight_decrease_speed_noeeprom
                0x0000000000000000        0x8 .build/obj_redox_rev1_base_ad_rev2/quantum/rgblight/rgblight.o
 .text.rgblight_get_speed
                0x0000000000000000        0x6 .build/obj_redox_rev1_base_ad_rev2/quantum/rgblight/rgblight.o
 .text.rgblight_set_speed_eeprom_helper
                0x0000000000000000       0x2c .build/obj_redox_rev1_base_ad_rev2/quantum/rgblight/rgblight.o
 .text.rgblight_set_speed
                0x0000000000000000        0x8 .build/obj_redox_rev1_base_ad_rev2/quantum/rgblight/rgblight.o
 .text.rgblight_set_speed_noeeprom
                0x0000000000000000        0x8 .build/obj_redox_rev1_base_ad_rev2/quantum/rgblight/rgblight.o
 .text.rgblight_get_hue
                0x0000000000000000        0x6 .build/obj_redox_rev1_base_ad_rev2/quantum/rgblight/rgblight.o
 .text.rgblight_get_sat
                0x0000000000000000        0x6 .build/obj_redox_rev1_base_ad_rev2/quantum/rgblight/rgblight.o
 .text.rgblight_get_val
                0x0000000000000000        0x6 .build/obj_redox_rev1_base_ad_rev2/quantum/rgblight/rgblight.o
 .text.rgblight_get_hsv
                0x0000000000000000        0xc .build/obj_redox_rev1_base_ad_rev2/quantum/rgblight/rgblight.o
 .text.rgblight_increase_hue_noeeprom
                0x0000000000000000        0x8 .build/obj_redox_rev1_base_ad_rev2/quantum/rgblight/rgblight.o
 .text.rgblight_decrease_hue_noeeprom
                0x0000000000000000        0x8 .build/obj_redox_rev1_base_ad_rev2/quantum/rgblight/rgblight.o
 .text.rgblight_increase_sat_noeeprom
                0x0000000000000000        0x8 .build/obj_redox_rev1_base_ad_rev2/quantum/rgblight/rgblight.o
 .text.rgblight_decrease_sat_noeeprom
                0x0000000000000000        0x8 .build/obj_redox_rev1_base_ad_rev2/quantum/rgblight/rgblight.o
 .text.rgblight_increase_val_noeeprom
                0x0000000000000000        0x8 .build/obj_redox_rev1_base_ad_rev2/quantum/rgblight/rgblight.o
 .text.rgblight_decrease_val_noeeprom
                0x0000000000000000        0x8 .build/obj_redox_rev1_base_ad_rev2/quantum/rgblight/rgblight.o
 .text.rgblight_sethsv
                0x0000000000000000        0x8 .build/obj_redox_rev1_base_ad_rev2/quantum/rgblight/rgblight.o
 .text.rgblight_setrgb_at
                0x0000000000000000       0x28 .build/obj_redox_rev1_base_ad_rev2/quantum/rgblight/rgblight.o
 .text.rgblight_sethsv_at
                0x0000000000000000       0x34 .build/obj_redox_rev1_base_ad_rev2/quantum/rgblight/rgblight.o
 .text.rgblight_setrgb_range
                0x0000000000000000       0x34 .build/obj_redox_rev1_base_ad_rev2/quantum/rgblight/rgblight.o
 .text.rgblight_sethsv_range
                0x0000000000000000       0x34 .build/obj_redox_rev1_base_ad_rev2/quantum/rgblight/rgblight.o
 .text.rgblight_get_change_flags
                0x0000000000000000        0x6 .build/obj_redox_rev1_base_ad_rev2/quantum/rgblight/rgblight.o
 .text.rgblight_step_noeeprom
                0x0000000000000000        0x8 .build/obj_redox_rev1_base_ad_rev2/quantum/rgblight/rgblight.o
 .text.rgblight_step_reverse_noeeprom
                0x0000000000000000        0x8 .build/obj_redox_rev1_base_ad_rev2/quantum/rgblight/rgblight.o
 .text.rgblight_increase
                0x0000000000000000       0x18 .build/obj_redox_rev1_base_ad_rev2/quantum/rgblight/rgblight.o
 .text.rgblight_decrease
                0x0000000000000000       0x18 .build/obj_redox_rev1_base_ad_rev2/quantum/rgblight/rgblight.o
 .text.rgblight_reload_from_eeprom
                0x0000000000000000       0x44 .build/obj_redox_rev1_base_ad_rev2/quantum/rgblight/rgblight.o
 .text.rgblight_enable_noeeprom
                0x0000000000000000       0x14 .build/obj_redox_rev1_base_ad_rev2/quantum/rgblight/rgblight.o
 .text.rgblight_toggle_noeeprom
                0x0000000000000000       0x14 .build/obj_redox_rev1_base_ad_rev2/quantum/rgblight/rgblight.o
 .text.rgblight_enabled_noeeprom
                0x0000000000000000       0x10 .build/obj_redox_rev1_base_ad_rev2/quantum/rgblight/rgblight.o
 .text.rgblight_update_qword
                0x0000000000000000       0x44 .build/obj_redox_rev1_base_ad_rev2/quantum/rgblight/rgblight.o
 .text.rgblight_timer_disable
                0x0000000000000000        0x6 .build/obj_redox_rev1_base_ad_rev2/quantum/rgblight/rgblight.o
 .text.rgblight_timer_toggle
                0x0000000000000000       0x14 .build/obj_redox_rev1_base_ad_rev2/quantum/rgblight/rgblight.o
 .text.rgblight_show_solid_color
                0x0000000000000000       0x28 .build/obj_redox_rev1_base_ad_rev2/quantum/rgblight/rgblight.o
 .text          0x0000000000000000        0x0 .build/obj_redox_rev1_base_ad_rev2/quantum/rgblight/rgblight_drivers.o
 .data          0x0000000000000000        0x0 .build/obj_redox_rev1_base_ad_rev2/quantum/rgblight/rgblight_drivers.o
 .bss           0x0000000000000000        0x0 .build/obj_redox_rev1_base_ad_rev2/quantum/rgblight/rgblight_drivers.o
 .text          0x0000000000000000        0x0 .build/obj_redox_rev1_base_ad_rev2/quantum/process_keycode/process_rgb.o
 .data          0x0000000000000000        0x0 .build/obj_redox_rev1_base_ad_rev2/quantum/process_keycode/process_rgb.o
 .bss           0x0000000000000000        0x0 .build/obj_redox_rev1_base_ad_rev2/quantum/process_keycode/process_rgb.o
 .avr.prop      0x0000000000000000       0x16 .build/obj_redox_rev1_base_ad_rev2/quantum/process_keycode/process_rgb.o
 .text          0x0000000000000000        0x0 .build/obj_redox_rev1_base_ad_rev2/quantum/led_tables.o
 .data          0x0000000000000000        0x0 .build/obj_redox_rev1_base_ad_rev2/quantum/led_tables.o
 .bss           0x0000000000000000        0x0 .build/obj_redox_rev1_base_ad_rev2/quantum/led_tables.o
 .text          0x0000000000000000        0x0 .build/obj_redox_rev1_base_ad_rev2/quantum/process_keycode/process_unicode.o
 .data          0x0000000000000000        0x0 .build/obj_redox_rev1_base_ad_rev2/quantum/process_keycode/process_unicode.o
 .bss           0x0000000000000000        0x0 .build/obj_redox_rev1_base_ad_rev2/quantum/process_keycode/process_unicode.o
 .text          0x0000000000000000        0x0 .build/obj_redox_rev1_base_ad_rev2/quantum/process_keycode/process_unicode_common.o
 .data          0x0000000000000000        0x0 .build/obj_redox_rev1_base_ad_rev2/quantum/process_keycode/process_unicode_common.o
 .bss           0x0000000000000000        0x0 .build/obj_redox_rev1_base_ad_rev2/quantum/process_keycode/process_unicode_common.o
 .avr.prop      0x0000000000000000       0x16 .build/obj_redox_rev1_base_ad_rev2/quantum/process_keycode/process_unicode_common.o
 .text          0x0000000000000000        0x0 .build/obj_redox_rev1_base_ad_rev2/quantum/unicode/unicode.o
 .data          0x0000000000000000        0x0 .build/obj_redox_rev1_base_ad_rev2/quantum/unicode/unicode.o
 .bss           0x0000000000000000        0x0 .build/obj_redox_rev1_base_ad_rev2/quantum/unicode/unicode.o
 .text.get_unicode_input_mode
                0x0000000000000000        0x6 .build/obj_redox_rev1_base_ad_rev2/quantum/unicode/unicode.o
 .text.unicode_input_cancel
                0x0000000000000000       0x62 .build/obj_redox_rev1_base_ad_rev2/quantum/unicode/unicode.o
 .text.register_hex
                0x0000000000000000       0x36 .build/obj_redox_rev1_base_ad_rev2/quantum/unicode/unicode.o
 .text.send_unicode_string
                0x0000000000000000       0x4a .build/obj_redox_rev1_base_ad_rev2/quantum/unicode/unicode.o
 .text          0x0000000000000000        0x0 .build/obj_redox_rev1_base_ad_rev2/quantum/unicode/utf8.o
 .data          0x0000000000000000        0x0 .build/obj_redox_rev1_base_ad_rev2/quantum/unicode/utf8.o
 .bss           0x0000000000000000        0x0 .build/obj_redox_rev1_base_ad_rev2/quantum/unicode/utf8.o
 .text.decode_utf8
                0x0000000000000000      0x198 .build/obj_redox_rev1_base_ad_rev2/quantum/unicode/utf8.o
 .debug_info    0x0000000000000000       0xd1 .build/obj_redox_rev1_base_ad_rev2/quantum/unicode/utf8.o
 .debug_abbrev  0x0000000000000000       0x92 .build/obj_redox_rev1_base_ad_rev2/quantum/unicode/utf8.o
 .debug_loc     0x0000000000000000      0x1c1 .build/obj_redox_rev1_base_ad_rev2/quantum/unicode/utf8.o
 .debug_aranges
                0x0000000000000000       0x20 .build/obj_redox_rev1_base_ad_rev2/quantum/unicode/utf8.o
 .debug_ranges  0x0000000000000000       0x10 .build/obj_redox_rev1_base_ad_rev2/quantum/unicode/utf8.o
 .debug_line    0x0000000000000000       0xd7 .build/obj_redox_rev1_base_ad_rev2/quantum/unicode/utf8.o
 .debug_str     0x0000000000000000      0x1e6 .build/obj_redox_rev1_base_ad_rev2/quantum/unicode/utf8.o
 .comment       0x0000000000000000       0x12 .build/obj_redox_rev1_base_ad_rev2/quantum/unicode/utf8.o
 .debug_frame   0x0000000000000000       0x38 .build/obj_redox_rev1_base_ad_rev2/quantum/unicode/utf8.o
 .text          0x0000000000000000        0x0 .build/obj_redox_rev1_base_ad_rev2/ws2812_bitbang.o
 .data          0x0000000000000000        0x0 .build/obj_redox_rev1_base_ad_rev2/ws2812_bitbang.o
 .bss           0x0000000000000000        0x0 .build/obj_redox_rev1_base_ad_rev2/ws2812_bitbang.o
 .text          0x0000000000000000        0x0 .build/obj_redox_rev1_base_ad_rev2/quantum/bootmagic/bootmagic.o
 .data          0x0000000000000000        0x0 .build/obj_redox_rev1_base_ad_rev2/quantum/bootmagic/bootmagic.o
 .bss           0x0000000000000000        0x0 .build/obj_redox_rev1_base_ad_rev2/quantum/bootmagic/bootmagic.o
 .text          0x0000000000000000        0x0 .build/obj_redox_rev1_base_ad_rev2/quantum/command.o
 .data          0x0000000000000000        0x0 .build/obj_redox_rev1_base_ad_rev2/quantum/command.o
 .bss           0x0000000000000000        0x0 .build/obj_redox_rev1_base_ad_rev2/quantum/command.o
 .avr.prop      0x0000000000000000       0x16 .build/obj_redox_rev1_base_ad_rev2/quantum/command.o
 .text          0x0000000000000000        0x0 .build/obj_redox_rev1_base_ad_rev2/quantum/crc.o
 .data          0x0000000000000000        0x0 .build/obj_redox_rev1_base_ad_rev2/quantum/crc.o
 .bss           0x0000000000000000        0x0 .build/obj_redox_rev1_base_ad_rev2/quantum/crc.o
 .text          0x0000000000000000        0x0 .build/obj_redox_rev1_base_ad_rev2/quantum/process_keycode/process_grave_esc.o
 .data          0x0000000000000000        0x0 .build/obj_redox_rev1_base_ad_rev2/quantum/process_keycode/process_grave_esc.o
 .bss           0x0000000000000000        0x0 .build/obj_redox_rev1_base_ad_rev2/quantum/process_keycode/process_grave_esc.o
 .text          0x0000000000000000        0x0 .build/obj_redox_rev1_base_ad_rev2/quantum/process_keycode/process_magic.o
 .data          0x0000000000000000        0x0 .build/obj_redox_rev1_base_ad_rev2/quantum/process_keycode/process_magic.o
 .bss           0x0000000000000000        0x0 .build/obj_redox_rev1_base_ad_rev2/quantum/process_keycode/process_magic.o
 .avr.prop      0x0000000000000000       0x16 .build/obj_redox_rev1_base_ad_rev2/quantum/process_keycode/process_magic.o
 .text          0x0000000000000000        0x0 .build/obj_redox_rev1_base_ad_rev2/quantum/mousekey.o
 .data          0x0000000000000000        0x0 .build/obj_redox_rev1_base_ad_rev2/quantum/mousekey.o
 .bss           0x0000000000000000        0x0 .build/obj_redox_rev1_base_ad_rev2/quantum/mousekey.o
 .text.mousekey_get_report
                0x0000000000000000       0x36 .build/obj_redox_rev1_base_ad_rev2/quantum/mousekey.o
 .text          0x0000000000000000        0x0 .build/obj_redox_rev1_base_ad_rev2/quantum/send_string/send_string.o
 .data          0x0000000000000000        0x0 .build/obj_redox_rev1_base_ad_rev2/quantum/send_string/send_string.o
 .bss           0x0000000000000000        0x0 .build/obj_redox_rev1_base_ad_rev2/quantum/send_string/send_string.o
 .text.send_string_with_delay
                0x0000000000000000       0xd6 .build/obj_redox_rev1_base_ad_rev2/quantum/send_string/send_string.o
 .text.send_string
                0x0000000000000000        0x8 .build/obj_redox_rev1_base_ad_rev2/quantum/send_string/send_string.o
 .text.send_byte
                0x0000000000000000       0x18 .build/obj_redox_rev1_base_ad_rev2/quantum/send_string/send_string.o
 .text.send_word
                0x0000000000000000       0x14 .build/obj_redox_rev1_base_ad_rev2/quantum/send_string/send_string.o
 .text.send_dword
                0x0000000000000000       0x1e .build/obj_redox_rev1_base_ad_rev2/quantum/send_string/send_string.o
 .text.tap_random_base64
                0x0000000000000000       0x58 .build/obj_redox_rev1_base_ad_rev2/quantum/send_string/send_string.o
 .text.send_string_P
                0x0000000000000000        0x8 .build/obj_redox_rev1_base_ad_rev2/quantum/send_string/send_string.o
 .text          0x0000000000000000        0x0 .build/obj_redox_rev1_base_ad_rev2/quantum/process_keycode/process_space_cadet.o
 .data          0x0000000000000000        0x0 .build/obj_redox_rev1_base_ad_rev2/quantum/process_keycode/process_space_cadet.o
 .bss           0x0000000000000000        0x0 .build/obj_redox_rev1_base_ad_rev2/quantum/process_keycode/process_space_cadet.o
 .text.reset_space_cadet
                0x0000000000000000        0x6 .build/obj_redox_rev1_base_ad_rev2/quantum/process_keycode/process_space_cadet.o
 .avr.prop      0x0000000000000000       0x16 .build/obj_redox_rev1_base_ad_rev2/quantum/process_keycode/process_space_cadet.o
 .text          0x0000000000000000        0x0 .build/obj_redox_rev1_base_ad_rev2/quantum/process_keycode/process_tap_dance.o
 .data          0x0000000000000000        0x0 .build/obj_redox_rev1_base_ad_rev2/quantum/process_keycode/process_tap_dance.o
 .bss           0x0000000000000000        0x0 .build/obj_redox_rev1_base_ad_rev2/quantum/process_keycode/process_tap_dance.o
 .text.tap_dance_dual_role_on_each_tap
                0x0000000000000000       0x22 .build/obj_redox_rev1_base_ad_rev2/quantum/process_keycode/process_tap_dance.o
 .text.tap_dance_dual_role_finished
                0x0000000000000000       0x28 .build/obj_redox_rev1_base_ad_rev2/quantum/process_keycode/process_tap_dance.o
 .text.tap_dance_dual_role_reset
                0x0000000000000000       0x14 .build/obj_redox_rev1_base_ad_rev2/quantum/process_keycode/process_tap_dance.o
 .text.reset_tap_dance
                0x0000000000000000        0xe .build/obj_redox_rev1_base_ad_rev2/quantum/process_keycode/process_tap_dance.o
 .text          0x0000000000000000        0x0 .build/obj_redox_rev1_base_ad_rev2/protocol/host.o
 .data          0x0000000000000000        0x0 .build/obj_redox_rev1_base_ad_rev2/protocol/host.o
 .bss           0x0000000000000000        0x0 .build/obj_redox_rev1_base_ad_rev2/protocol/host.o
 .text.host_get_driver
                0x0000000000000000        0xa .build/obj_redox_rev1_base_ad_rev2/protocol/host.o
 .text.set_split_host_keyboard_leds
                0x0000000000000000        0x6 .build/obj_redox_rev1_base_ad_rev2/protocol/host.o
 .text.send_joystick
                0x0000000000000000        0x2 .build/obj_redox_rev1_base_ad_rev2/protocol/host.o
 .text.send_digitizer
                0x0000000000000000        0x2 .build/obj_redox_rev1_base_ad_rev2/protocol/host.o
 .text.send_programmable_button
                0x0000000000000000        0x2 .build/obj_redox_rev1_base_ad_rev2/protocol/host.o
 .text.host_last_system_usage
                0x0000000000000000        0xa .build/obj_redox_rev1_base_ad_rev2/protocol/host.o
 .text.host_last_consumer_usage
                0x0000000000000000        0xa .build/obj_redox_rev1_base_ad_rev2/protocol/host.o
 .text          0x0000000000000000        0x0 .build/obj_redox_rev1_base_ad_rev2/protocol/report.o
 .data          0x0000000000000000        0x0 .build/obj_redox_rev1_base_ad_rev2/protocol/report.o
 .bss           0x0000000000000000        0x0 .build/obj_redox_rev1_base_ad_rev2/protocol/report.o
 .text.get_first_key
                0x0000000000000000       0x5a .build/obj_redox_rev1_base_ad_rev2/protocol/report.o
 .text          0x0000000000000000        0x0 .build/obj_redox_rev1_base_ad_rev2/protocol/usb_device_state.o
 .data          0x0000000000000000        0x0 .build/obj_redox_rev1_base_ad_rev2/protocol/usb_device_state.o
 .bss           0x0000000000000000        0x0 .build/obj_redox_rev1_base_ad_rev2/protocol/usb_device_state.o
 .text          0x0000000000000000        0x0 .build/obj_redox_rev1_base_ad_rev2/protocol/usb_util.o
 .data          0x0000000000000000        0x0 .build/obj_redox_rev1_base_ad_rev2/protocol/usb_util.o
 .bss           0x0000000000000000        0x0 .build/obj_redox_rev1_base_ad_rev2/protocol/usb_util.o
 .text.usb_disconnect
                0x0000000000000000        0x2 .build/obj_redox_rev1_base_ad_rev2/protocol/usb_util.o
 .text.usb_connected_state
                0x0000000000000000        0x4 .build/obj_redox_rev1_base_ad_rev2/protocol/usb_util.o
 .text.usb_vbus_state
                0x0000000000000000        0x4 .build/obj_redox_rev1_base_ad_rev2/protocol/usb_util.o
 .debug_info    0x0000000000000000       0xac .build/obj_redox_rev1_base_ad_rev2/protocol/usb_util.o
 .debug_abbrev  0x0000000000000000       0x78 .build/obj_redox_rev1_base_ad_rev2/protocol/usb_util.o
 .debug_aranges
                0x0000000000000000       0x28 .build/obj_redox_rev1_base_ad_rev2/protocol/usb_util.o
 .debug_ranges  0x0000000000000000       0x18 .build/obj_redox_rev1_base_ad_rev2/protocol/usb_util.o
 .debug_line    0x0000000000000000       0x66 .build/obj_redox_rev1_base_ad_rev2/protocol/usb_util.o
 .debug_str     0x0000000000000000      0x1fb .build/obj_redox_rev1_base_ad_rev2/protocol/usb_util.o
 .comment       0x0000000000000000       0x12 .build/obj_redox_rev1_base_ad_rev2/protocol/usb_util.o
 .debug_frame   0x0000000000000000       0x44 .build/obj_redox_rev1_base_ad_rev2/protocol/usb_util.o
 .text          0x0000000000000000        0x0 .build/obj_redox_rev1_base_ad_rev2/platforms/suspend.o
 .data          0x0000000000000000        0x0 .build/obj_redox_rev1_base_ad_rev2/platforms/suspend.o
 .bss           0x0000000000000000        0x0 .build/obj_redox_rev1_base_ad_rev2/platforms/suspend.o
 .text          0x0000000000000000        0x0 .build/obj_redox_rev1_base_ad_rev2/platforms/synchronization_util.o
 .data          0x0000000000000000        0x0 .build/obj_redox_rev1_base_ad_rev2/platforms/synchronization_util.o
 .bss           0x0000000000000000        0x0 .build/obj_redox_rev1_base_ad_rev2/platforms/synchronization_util.o
 .text.split_shared_memory_lock
                0x0000000000000000        0x2 .build/obj_redox_rev1_base_ad_rev2/platforms/synchronization_util.o
 .text.split_shared_memory_unlock
                0x0000000000000000        0x2 .build/obj_redox_rev1_base_ad_rev2/platforms/synchronization_util.o
 .text.split_shared_memory_autounlock_lock_helper
                0x0000000000000000        0x6 .build/obj_redox_rev1_base_ad_rev2/platforms/synchronization_util.o
 .text.split_shared_memory_autounlock_unlock_helper
                0x0000000000000000        0x2 .build/obj_redox_rev1_base_ad_rev2/platforms/synchronization_util.o
 .debug_info    0x0000000000000000       0xa4 .build/obj_redox_rev1_base_ad_rev2/platforms/synchronization_util.o
 .debug_abbrev  0x0000000000000000       0x8e .build/obj_redox_rev1_base_ad_rev2/platforms/synchronization_util.o
 .debug_aranges
                0x0000000000000000       0x30 .build/obj_redox_rev1_base_ad_rev2/platforms/synchronization_util.o
 .debug_ranges  0x0000000000000000       0x20 .build/obj_redox_rev1_base_ad_rev2/platforms/synchronization_util.o
 .debug_line    0x0000000000000000       0x80 .build/obj_redox_rev1_base_ad_rev2/platforms/synchronization_util.o
 .debug_str     0x0000000000000000      0x206 .build/obj_redox_rev1_base_ad_rev2/platforms/synchronization_util.o
 .comment       0x0000000000000000       0x12 .build/obj_redox_rev1_base_ad_rev2/platforms/synchronization_util.o
 .debug_frame   0x0000000000000000       0x54 .build/obj_redox_rev1_base_ad_rev2/platforms/synchronization_util.o
 .text          0x0000000000000000        0x0 .build/obj_redox_rev1_base_ad_rev2/platforms/timer.o
 .data          0x0000000000000000        0x0 .build/obj_redox_rev1_base_ad_rev2/platforms/timer.o
 .bss           0x0000000000000000        0x0 .build/obj_redox_rev1_base_ad_rev2/platforms/timer.o
 .text.timer_read_fast
                0x0000000000000000        0x6 .build/obj_redox_rev1_base_ad_rev2/platforms/timer.o
 .text.timer_elapsed_fast
                0x0000000000000000        0x6 .build/obj_redox_rev1_base_ad_rev2/platforms/timer.o
 .debug_info    0x0000000000000000      0x11b .build/obj_redox_rev1_base_ad_rev2/platforms/timer.o
 .debug_abbrev  0x0000000000000000       0xb0 .build/obj_redox_rev1_base_ad_rev2/platforms/timer.o
 .debug_loc     0x0000000000000000       0x26 .build/obj_redox_rev1_base_ad_rev2/platforms/timer.o
 .debug_aranges
                0x0000000000000000       0x28 .build/obj_redox_rev1_base_ad_rev2/platforms/timer.o
 .debug_ranges  0x0000000000000000       0x18 .build/obj_redox_rev1_base_ad_rev2/platforms/timer.o
 .debug_line    0x0000000000000000       0x88 .build/obj_redox_rev1_base_ad_rev2/platforms/timer.o
 .debug_str     0x0000000000000000      0x224 .build/obj_redox_rev1_base_ad_rev2/platforms/timer.o
 .comment       0x0000000000000000       0x12 .build/obj_redox_rev1_base_ad_rev2/platforms/timer.o
 .debug_frame   0x0000000000000000       0x34 .build/obj_redox_rev1_base_ad_rev2/platforms/timer.o
 .text          0x0000000000000000        0x0 .build/obj_redox_rev1_base_ad_rev2/platforms/avr/hardware_id.o
 .data          0x0000000000000000        0x0 .build/obj_redox_rev1_base_ad_rev2/platforms/avr/hardware_id.o
 .bss           0x0000000000000000        0x0 .build/obj_redox_rev1_base_ad_rev2/platforms/avr/hardware_id.o
 .text.get_hardware_id
                0x0000000000000000       0x4e .build/obj_redox_rev1_base_ad_rev2/platforms/avr/hardware_id.o
 .debug_info    0x0000000000000000      0x116 .build/obj_redox_rev1_base_ad_rev2/platforms/avr/hardware_id.o
 .debug_abbrev  0x0000000000000000       0xb9 .build/obj_redox_rev1_base_ad_rev2/platforms/avr/hardware_id.o
 .debug_loc     0x0000000000000000       0x5c .build/obj_redox_rev1_base_ad_rev2/platforms/avr/hardware_id.o
 .debug_aranges
                0x0000000000000000       0x20 .build/obj_redox_rev1_base_ad_rev2/platforms/avr/hardware_id.o
 .debug_ranges  0x0000000000000000       0x10 .build/obj_redox_rev1_base_ad_rev2/platforms/avr/hardware_id.o
 .debug_line    0x0000000000000000       0xb3 .build/obj_redox_rev1_base_ad_rev2/platforms/avr/hardware_id.o
 .debug_str     0x0000000000000000      0x214 .build/obj_redox_rev1_base_ad_rev2/platforms/avr/hardware_id.o
 .comment       0x0000000000000000       0x12 .build/obj_redox_rev1_base_ad_rev2/platforms/avr/hardware_id.o
 .debug_frame   0x0000000000000000       0x2c .build/obj_redox_rev1_base_ad_rev2/platforms/avr/hardware_id.o
 .text          0x0000000000000000        0x0 .build/obj_redox_rev1_base_ad_rev2/platforms/avr/platform.o
 .data          0x0000000000000000        0x0 .build/obj_redox_rev1_base_ad_rev2/platforms/avr/platform.o
 .bss           0x0000000000000000        0x0 .build/obj_redox_rev1_base_ad_rev2/platforms/avr/platform.o
 .text          0x0000000000000000        0x0 .build/obj_redox_rev1_base_ad_rev2/platforms/avr/suspend.o
 .data          0x0000000000000000        0x0 .build/obj_redox_rev1_base_ad_rev2/platforms/avr/suspend.o
 .bss           0x0000000000000000        0x0 .build/obj_redox_rev1_base_ad_rev2/platforms/avr/suspend.o
 .text          0x0000000000000000        0x0 .build/obj_redox_rev1_base_ad_rev2/platforms/avr/timer.o
 .data          0x0000000000000000        0x0 .build/obj_redox_rev1_base_ad_rev2/platforms/avr/timer.o
 .bss           0x0000000000000000        0x0 .build/obj_redox_rev1_base_ad_rev2/platforms/avr/timer.o
 .text.timer_clear
                0x0000000000000000       0x18 .build/obj_redox_rev1_base_ad_rev2/platforms/avr/timer.o
 .text          0x0000000000000000        0x0 .build/obj_redox_rev1_base_ad_rev2/platforms/avr/bootloaders/caterina.o
 .data          0x0000000000000000        0x0 .build/obj_redox_rev1_base_ad_rev2/platforms/avr/bootloaders/caterina.o
 .bss           0x0000000000000000        0x0 .build/obj_redox_rev1_base_ad_rev2/platforms/avr/bootloaders/caterina.o
 .text          0x0000000000000000        0x0 .build/obj_redox_rev1_base_ad_rev2/serial.a(serial.o)
 .data          0x0000000000000000        0x0 .build/obj_redox_rev1_base_ad_rev2/serial.a(serial.o)
 .bss           0x0000000000000000        0x0 .build/obj_redox_rev1_base_ad_rev2/serial.a(serial.o)
 .text          0x0000000000000000        0x0 .build/obj_redox_rev1_base_ad_rev2/lufa.o
 .data          0x0000000000000000        0x0 .build/obj_redox_rev1_base_ad_rev2/lufa.o
 .bss           0x0000000000000000        0x0 .build/obj_redox_rev1_base_ad_rev2/lufa.o
 .text.send_joystick
                0x0000000000000000        0x2 .build/obj_redox_rev1_base_ad_rev2/lufa.o
 .text.send_programmable_button
                0x0000000000000000        0x2 .build/obj_redox_rev1_base_ad_rev2/lufa.o
 .text.send_digitizer
                0x0000000000000000        0x2 .build/obj_redox_rev1_base_ad_rev2/lufa.o
 .text          0x0000000000000000        0x0 .build/obj_redox_rev1_base_ad_rev2/usb_descriptor.o
 .data          0x0000000000000000        0x0 .build/obj_redox_rev1_base_ad_rev2/usb_descriptor.o
 .bss           0x0000000000000000        0x0 .build/obj_redox_rev1_base_ad_rev2/usb_descriptor.o
 .text          0x0000000000000000        0x0 .build/obj_redox_rev1_base_ad_rev2/lib/lufa/LUFA/Drivers/USB/Class/Common/HIDParser.o
 .data          0x0000000000000000        0x0 .build/obj_redox_rev1_base_ad_rev2/lib/lufa/LUFA/Drivers/USB/Class/Common/HIDParser.o
 .bss           0x0000000000000000        0x0 .build/obj_redox_rev1_base_ad_rev2/lib/lufa/LUFA/Drivers/USB/Class/Common/HIDParser.o
 .text.USB_ProcessHIDReport
                0x0000000000000000      0x68c .build/obj_redox_rev1_base_ad_rev2/lib/lufa/LUFA/Drivers/USB/Class/Common/HIDParser.o
 .text.USB_GetHIDReportItemInfo
                0x0000000000000000       0xbc .build/obj_redox_rev1_base_ad_rev2/lib/lufa/LUFA/Drivers/USB/Class/Common/HIDParser.o
 .text.USB_SetHIDReportItemInfo
                0x0000000000000000       0xb2 .build/obj_redox_rev1_base_ad_rev2/lib/lufa/LUFA/Drivers/USB/Class/Common/HIDParser.o
 .text.USB_GetHIDReportSize
                0x0000000000000000       0x56 .build/obj_redox_rev1_base_ad_rev2/lib/lufa/LUFA/Drivers/USB/Class/Common/HIDParser.o
 .debug_info    0x0000000000000000      0x72e .build/obj_redox_rev1_base_ad_rev2/lib/lufa/LUFA/Drivers/USB/Class/Common/HIDParser.o
 .debug_abbrev  0x0000000000000000      0x220 .build/obj_redox_rev1_base_ad_rev2/lib/lufa/LUFA/Drivers/USB/Class/Common/HIDParser.o
 .debug_loc     0x0000000000000000      0xa61 .build/obj_redox_rev1_base_ad_rev2/lib/lufa/LUFA/Drivers/USB/Class/Common/HIDParser.o
 .debug_aranges
                0x0000000000000000       0x38 .build/obj_redox_rev1_base_ad_rev2/lib/lufa/LUFA/Drivers/USB/Class/Common/HIDParser.o
 .debug_ranges  0x0000000000000000      0x110 .build/obj_redox_rev1_base_ad_rev2/lib/lufa/LUFA/Drivers/USB/Class/Common/HIDParser.o
 .debug_line    0x0000000000000000      0x583 .build/obj_redox_rev1_base_ad_rev2/lib/lufa/LUFA/Drivers/USB/Class/Common/HIDParser.o
 .debug_str     0x0000000000000000      0x6fe .build/obj_redox_rev1_base_ad_rev2/lib/lufa/LUFA/Drivers/USB/Class/Common/HIDParser.o
 .comment       0x0000000000000000       0x12 .build/obj_redox_rev1_base_ad_rev2/lib/lufa/LUFA/Drivers/USB/Class/Common/HIDParser.o
 .debug_frame   0x0000000000000000       0xdc .build/obj_redox_rev1_base_ad_rev2/lib/lufa/LUFA/Drivers/USB/Class/Common/HIDParser.o
 .text          0x0000000000000000        0x0 .build/obj_redox_rev1_base_ad_rev2/lib/lufa/LUFA/Drivers/USB/Core/AVR8/Device_AVR8.o
 .data          0x0000000000000000        0x0 .build/obj_redox_rev1_base_ad_rev2/lib/lufa/LUFA/Drivers/USB/Core/AVR8/Device_AVR8.o
 .bss           0x0000000000000000        0x0 .build/obj_redox_rev1_base_ad_rev2/lib/lufa/LUFA/Drivers/USB/Core/AVR8/Device_AVR8.o
 .text          0x0000000000000000        0x0 .build/obj_redox_rev1_base_ad_rev2/lib/lufa/LUFA/Drivers/USB/Core/AVR8/EndpointStream_AVR8.o
 .data          0x0000000000000000        0x0 .build/obj_redox_rev1_base_ad_rev2/lib/lufa/LUFA/Drivers/USB/Core/AVR8/EndpointStream_AVR8.o
 .bss           0x0000000000000000        0x0 .build/obj_redox_rev1_base_ad_rev2/lib/lufa/LUFA/Drivers/USB/Core/AVR8/EndpointStream_AVR8.o
 .text.Endpoint_Discard_Stream
                0x0000000000000000       0x78 .build/obj_redox_rev1_base_ad_rev2/lib/lufa/LUFA/Drivers/USB/Core/AVR8/EndpointStream_AVR8.o
 .text.Endpoint_Null_Stream
                0x0000000000000000       0x78 .build/obj_redox_rev1_base_ad_rev2/lib/lufa/LUFA/Drivers/USB/Core/AVR8/EndpointStream_AVR8.o
 .text.Endpoint_Write_Stream_BE
                0x0000000000000000       0xa8 .build/obj_redox_rev1_base_ad_rev2/lib/lufa/LUFA/Drivers/USB/Core/AVR8/EndpointStream_AVR8.o
 .text.Endpoint_Read_Stream_LE
                0x0000000000000000       0x9e .build/obj_redox_rev1_base_ad_rev2/lib/lufa/LUFA/Drivers/USB/Core/AVR8/EndpointStream_AVR8.o
 .text.Endpoint_Read_Stream_BE
                0x0000000000000000       0xa8 .build/obj_redox_rev1_base_ad_rev2/lib/lufa/LUFA/Drivers/USB/Core/AVR8/EndpointStream_AVR8.o
 .text.Endpoint_Write_PStream_LE
                0x0000000000000000       0xa0 .build/obj_redox_rev1_base_ad_rev2/lib/lufa/LUFA/Drivers/USB/Core/AVR8/EndpointStream_AVR8.o
 .text.Endpoint_Write_PStream_BE
                0x0000000000000000       0xaa .build/obj_redox_rev1_base_ad_rev2/lib/lufa/LUFA/Drivers/USB/Core/AVR8/EndpointStream_AVR8.o
 .text.Endpoint_Write_EStream_LE
                0x0000000000000000       0xa2 .build/obj_redox_rev1_base_ad_rev2/lib/lufa/LUFA/Drivers/USB/Core/AVR8/EndpointStream_AVR8.o
 .text.Endpoint_Write_EStream_BE
                0x0000000000000000       0xac .build/obj_redox_rev1_base_ad_rev2/lib/lufa/LUFA/Drivers/USB/Core/AVR8/EndpointStream_AVR8.o
 .text.Endpoint_Read_EStream_LE
                0x0000000000000000       0xa2 .build/obj_redox_rev1_base_ad_rev2/lib/lufa/LUFA/Drivers/USB/Core/AVR8/EndpointStream_AVR8.o
 .text.Endpoint_Read_EStream_BE
                0x0000000000000000       0xac .build/obj_redox_rev1_base_ad_rev2/lib/lufa/LUFA/Drivers/USB/Core/AVR8/EndpointStream_AVR8.o
 .text.Endpoint_Write_Control_Stream_BE
                0x0000000000000000       0xcc .build/obj_redox_rev1_base_ad_rev2/lib/lufa/LUFA/Drivers/USB/Core/AVR8/EndpointStream_AVR8.o
 .text.Endpoint_Read_Control_Stream_LE
                0x0000000000000000       0x76 .build/obj_redox_rev1_base_ad_rev2/lib/lufa/LUFA/Drivers/USB/Core/AVR8/EndpointStream_AVR8.o
 .text.Endpoint_Read_Control_Stream_BE
                0x0000000000000000       0x84 .build/obj_redox_rev1_base_ad_rev2/lib/lufa/LUFA/Drivers/USB/Core/AVR8/EndpointStream_AVR8.o
 .text.Endpoint_Write_Control_PStream_BE
                0x0000000000000000       0xc8 .build/obj_redox_rev1_base_ad_rev2/lib/lufa/LUFA/Drivers/USB/Core/AVR8/EndpointStream_AVR8.o
 .text.Endpoint_Write_Control_EStream_LE
                0x0000000000000000       0xe2 .build/obj_redox_rev1_base_ad_rev2/lib/lufa/LUFA/Drivers/USB/Core/AVR8/EndpointStream_AVR8.o
 .text.Endpoint_Write_Control_EStream_BE
                0x0000000000000000       0xf0 .build/obj_redox_rev1_base_ad_rev2/lib/lufa/LUFA/Drivers/USB/Core/AVR8/EndpointStream_AVR8.o
 .text.Endpoint_Read_Control_EStream_LE
                0x0000000000000000       0x8c .build/obj_redox_rev1_base_ad_rev2/lib/lufa/LUFA/Drivers/USB/Core/AVR8/EndpointStream_AVR8.o
 .text.Endpoint_Read_Control_EStream_BE
                0x0000000000000000       0x94 .build/obj_redox_rev1_base_ad_rev2/lib/lufa/LUFA/Drivers/USB/Core/AVR8/EndpointStream_AVR8.o
 .text          0x0000000000000000        0x0 .build/obj_redox_rev1_base_ad_rev2/lib/lufa/LUFA/Drivers/USB/Core/AVR8/Endpoint_AVR8.o
 .data          0x0000000000000000        0x0 .build/obj_redox_rev1_base_ad_rev2/lib/lufa/LUFA/Drivers/USB/Core/AVR8/Endpoint_AVR8.o
 .bss           0x0000000000000000        0x0 .build/obj_redox_rev1_base_ad_rev2/lib/lufa/LUFA/Drivers/USB/Core/AVR8/Endpoint_AVR8.o
 .text.Endpoint_ConfigureEndpointTable
                0x0000000000000000       0x7a .build/obj_redox_rev1_base_ad_rev2/lib/lufa/LUFA/Drivers/USB/Core/AVR8/Endpoint_AVR8.o
 .text.Endpoint_ClearEndpoints
                0x0000000000000000       0x28 .build/obj_redox_rev1_base_ad_rev2/lib/lufa/LUFA/Drivers/USB/Core/AVR8/Endpoint_AVR8.o
 .text          0x0000000000000000        0x0 .build/obj_redox_rev1_base_ad_rev2/lib/lufa/LUFA/Drivers/USB/Core/AVR8/Host_AVR8.o
 .data          0x0000000000000000        0x0 .build/obj_redox_rev1_base_ad_rev2/lib/lufa/LUFA/Drivers/USB/Core/AVR8/Host_AVR8.o
 .bss           0x0000000000000000        0x0 .build/obj_redox_rev1_base_ad_rev2/lib/lufa/LUFA/Drivers/USB/Core/AVR8/Host_AVR8.o
 .debug_info    0x0000000000000000       0x5d .build/obj_redox_rev1_base_ad_rev2/lib/lufa/LUFA/Drivers/USB/Core/AVR8/Host_AVR8.o
 .debug_abbrev  0x0000000000000000       0x26 .build/obj_redox_rev1_base_ad_rev2/lib/lufa/LUFA/Drivers/USB/Core/AVR8/Host_AVR8.o
 .debug_aranges
                0x0000000000000000       0x18 .build/obj_redox_rev1_base_ad_rev2/lib/lufa/LUFA/Drivers/USB/Core/AVR8/Host_AVR8.o
 .debug_line    0x0000000000000000       0x1a .build/obj_redox_rev1_base_ad_rev2/lib/lufa/LUFA/Drivers/USB/Core/AVR8/Host_AVR8.o
 .debug_str     0x0000000000000000      0x1e2 .build/obj_redox_rev1_base_ad_rev2/lib/lufa/LUFA/Drivers/USB/Core/AVR8/Host_AVR8.o
 .comment       0x0000000000000000       0x12 .build/obj_redox_rev1_base_ad_rev2/lib/lufa/LUFA/Drivers/USB/Core/AVR8/Host_AVR8.o
 .text          0x0000000000000000        0x0 .build/obj_redox_rev1_base_ad_rev2/lib/lufa/LUFA/Drivers/USB/Core/AVR8/PipeStream_AVR8.o
 .data          0x0000000000000000        0x0 .build/obj_redox_rev1_base_ad_rev2/lib/lufa/LUFA/Drivers/USB/Core/AVR8/PipeStream_AVR8.o
 .bss           0x0000000000000000        0x0 .build/obj_redox_rev1_base_ad_rev2/lib/lufa/LUFA/Drivers/USB/Core/AVR8/PipeStream_AVR8.o
 .debug_info    0x0000000000000000       0x5d .build/obj_redox_rev1_base_ad_rev2/lib/lufa/LUFA/Drivers/USB/Core/AVR8/PipeStream_AVR8.o
 .debug_abbrev  0x0000000000000000       0x26 .build/obj_redox_rev1_base_ad_rev2/lib/lufa/LUFA/Drivers/USB/Core/AVR8/PipeStream_AVR8.o
 .debug_aranges
                0x0000000000000000       0x18 .build/obj_redox_rev1_base_ad_rev2/lib/lufa/LUFA/Drivers/USB/Core/AVR8/PipeStream_AVR8.o
 .debug_line    0x0000000000000000       0x1a .build/obj_redox_rev1_base_ad_rev2/lib/lufa/LUFA/Drivers/USB/Core/AVR8/PipeStream_AVR8.o
 .debug_str     0x0000000000000000      0x1e8 .build/obj_redox_rev1_base_ad_rev2/lib/lufa/LUFA/Drivers/USB/Core/AVR8/PipeStream_AVR8.o
 .comment       0x0000000000000000       0x12 .build/obj_redox_rev1_base_ad_rev2/lib/lufa/LUFA/Drivers/USB/Core/AVR8/PipeStream_AVR8.o
 .text          0x0000000000000000        0x0 .build/obj_redox_rev1_base_ad_rev2/lib/lufa/LUFA/Drivers/USB/Core/AVR8/Pipe_AVR8.o
 .data          0x0000000000000000        0x0 .build/obj_redox_rev1_base_ad_rev2/lib/lufa/LUFA/Drivers/USB/Core/AVR8/Pipe_AVR8.o
 .bss           0x0000000000000000        0x0 .build/obj_redox_rev1_base_ad_rev2/lib/lufa/LUFA/Drivers/USB/Core/AVR8/Pipe_AVR8.o
 .debug_info    0x0000000000000000       0x5d .build/obj_redox_rev1_base_ad_rev2/lib/lufa/LUFA/Drivers/USB/Core/AVR8/Pipe_AVR8.o
 .debug_abbrev  0x0000000000000000       0x26 .build/obj_redox_rev1_base_ad_rev2/lib/lufa/LUFA/Drivers/USB/Core/AVR8/Pipe_AVR8.o
 .debug_aranges
                0x0000000000000000       0x18 .build/obj_redox_rev1_base_ad_rev2/lib/lufa/LUFA/Drivers/USB/Core/AVR8/Pipe_AVR8.o
 .debug_line    0x0000000000000000       0x1a .build/obj_redox_rev1_base_ad_rev2/lib/lufa/LUFA/Drivers/USB/Core/AVR8/Pipe_AVR8.o
 .debug_str     0x0000000000000000      0x1e2 .build/obj_redox_rev1_base_ad_rev2/lib/lufa/LUFA/Drivers/USB/Core/AVR8/Pipe_AVR8.o
 .comment       0x0000000000000000       0x12 .build/obj_redox_rev1_base_ad_rev2/lib/lufa/LUFA/Drivers/USB/Core/AVR8/Pipe_AVR8.o
 .text          0x0000000000000000        0x0 .build/obj_redox_rev1_base_ad_rev2/lib/lufa/LUFA/Drivers/USB/Core/AVR8/USBController_AVR8.o
 .data          0x0000000000000000        0x0 .build/obj_redox_rev1_base_ad_rev2/lib/lufa/LUFA/Drivers/USB/Core/AVR8/USBController_AVR8.o
 .bss           0x0000000000000000        0x0 .build/obj_redox_rev1_base_ad_rev2/lib/lufa/LUFA/Drivers/USB/Core/AVR8/USBController_AVR8.o
 .text          0x0000000000000000        0x0 .build/obj_redox_rev1_base_ad_rev2/lib/lufa/LUFA/Drivers/USB/Core/AVR8/USBInterrupt_AVR8.o
 .data          0x0000000000000000        0x0 .build/obj_redox_rev1_base_ad_rev2/lib/lufa/LUFA/Drivers/USB/Core/AVR8/USBInterrupt_AVR8.o
 .bss           0x0000000000000000        0x0 .build/obj_redox_rev1_base_ad_rev2/lib/lufa/LUFA/Drivers/USB/Core/AVR8/USBInterrupt_AVR8.o
 .text          0x0000000000000000        0x0 .build/obj_redox_rev1_base_ad_rev2/lib/lufa/LUFA/Drivers/USB/Core/ConfigDescriptors.o
 .data          0x0000000000000000        0x0 .build/obj_redox_rev1_base_ad_rev2/lib/lufa/LUFA/Drivers/USB/Core/ConfigDescriptors.o
 .bss           0x0000000000000000        0x0 .build/obj_redox_rev1_base_ad_rev2/lib/lufa/LUFA/Drivers/USB/Core/ConfigDescriptors.o
 .text.USB_GetNextDescriptor
                0x0000000000000000       0x3c .build/obj_redox_rev1_base_ad_rev2/lib/lufa/LUFA/Drivers/USB/Core/ConfigDescriptors.o
 .text.USB_GetNextDescriptorOfType
                0x0000000000000000       0x36 .build/obj_redox_rev1_base_ad_rev2/lib/lufa/LUFA/Drivers/USB/Core/ConfigDescriptors.o
 .text.USB_GetNextDescriptorOfTypeBefore
                0x0000000000000000       0x42 .build/obj_redox_rev1_base_ad_rev2/lib/lufa/LUFA/Drivers/USB/Core/ConfigDescriptors.o
 .text.USB_GetNextDescriptorOfTypeAfter
                0x0000000000000000       0x32 .build/obj_redox_rev1_base_ad_rev2/lib/lufa/LUFA/Drivers/USB/Core/ConfigDescriptors.o
 .text.USB_GetNextDescriptorComp
                0x0000000000000000       0x52 .build/obj_redox_rev1_base_ad_rev2/lib/lufa/LUFA/Drivers/USB/Core/ConfigDescriptors.o
 .debug_info    0x0000000000000000      0x495 .build/obj_redox_rev1_base_ad_rev2/lib/lufa/LUFA/Drivers/USB/Core/ConfigDescriptors.o
 .debug_abbrev  0x0000000000000000      0x1ab .build/obj_redox_rev1_base_ad_rev2/lib/lufa/LUFA/Drivers/USB/Core/ConfigDescriptors.o
 .debug_loc     0x0000000000000000      0x42c .build/obj_redox_rev1_base_ad_rev2/lib/lufa/LUFA/Drivers/USB/Core/ConfigDescriptors.o
 .debug_aranges
                0x0000000000000000       0x40 .build/obj_redox_rev1_base_ad_rev2/lib/lufa/LUFA/Drivers/USB/Core/ConfigDescriptors.o
 .debug_ranges  0x0000000000000000       0x30 .build/obj_redox_rev1_base_ad_rev2/lib/lufa/LUFA/Drivers/USB/Core/ConfigDescriptors.o
 .debug_line    0x0000000000000000      0x20f .build/obj_redox_rev1_base_ad_rev2/lib/lufa/LUFA/Drivers/USB/Core/ConfigDescriptors.o
 .debug_str     0x0000000000000000      0x51a .build/obj_redox_rev1_base_ad_rev2/lib/lufa/LUFA/Drivers/USB/Core/ConfigDescriptors.o
 .comment       0x0000000000000000       0x12 .build/obj_redox_rev1_base_ad_rev2/lib/lufa/LUFA/Drivers/USB/Core/ConfigDescriptors.o
 .debug_frame   0x0000000000000000       0xe0 .build/obj_redox_rev1_base_ad_rev2/lib/lufa/LUFA/Drivers/USB/Core/ConfigDescriptors.o
 .text          0x0000000000000000        0x0 .build/obj_redox_rev1_base_ad_rev2/lib/lufa/LUFA/Drivers/USB/Core/DeviceStandardReq.o
 .data          0x0000000000000000        0x0 .build/obj_redox_rev1_base_ad_rev2/lib/lufa/LUFA/Drivers/USB/Core/DeviceStandardReq.o
 .bss           0x0000000000000000        0x0 .build/obj_redox_rev1_base_ad_rev2/lib/lufa/LUFA/Drivers/USB/Core/DeviceStandardReq.o
 .avr.prop      0x0000000000000000       0x16 .build/obj_redox_rev1_base_ad_rev2/lib/lufa/LUFA/Drivers/USB/Core/DeviceStandardReq.o
 .text          0x0000000000000000        0x0 .build/obj_redox_rev1_base_ad_rev2/lib/lufa/LUFA/Drivers/USB/Core/Events.o
 .data          0x0000000000000000        0x0 .build/obj_redox_rev1_base_ad_rev2/lib/lufa/LUFA/Drivers/USB/Core/Events.o
 .bss           0x0000000000000000        0x0 .build/obj_redox_rev1_base_ad_rev2/lib/lufa/LUFA/Drivers/USB/Core/Events.o
 .text.USB_Event_Stub_2
                0x0000000000000000        0x2 .build/obj_redox_rev1_base_ad_rev2/lib/lufa/LUFA/Drivers/USB/Core/Events.o
 .text.USB_Event_Stub_3
                0x0000000000000000        0x2 .build/obj_redox_rev1_base_ad_rev2/lib/lufa/LUFA/Drivers/USB/Core/Events.o
 .text          0x0000000000000000        0x0 .build/obj_redox_rev1_base_ad_rev2/lib/lufa/LUFA/Drivers/USB/Core/HostStandardReq.o
 .data          0x0000000000000000        0x0 .build/obj_redox_rev1_base_ad_rev2/lib/lufa/LUFA/Drivers/USB/Core/HostStandardReq.o
 .bss           0x0000000000000000        0x0 .build/obj_redox_rev1_base_ad_rev2/lib/lufa/LUFA/Drivers/USB/Core/HostStandardReq.o
 .debug_info    0x0000000000000000       0x5d .build/obj_redox_rev1_base_ad_rev2/lib/lufa/LUFA/Drivers/USB/Core/HostStandardReq.o
 .debug_abbrev  0x0000000000000000       0x26 .build/obj_redox_rev1_base_ad_rev2/lib/lufa/LUFA/Drivers/USB/Core/HostStandardReq.o
 .debug_aranges
                0x0000000000000000       0x18 .build/obj_redox_rev1_base_ad_rev2/lib/lufa/LUFA/Drivers/USB/Core/HostStandardReq.o
 .debug_line    0x0000000000000000       0x1a .build/obj_redox_rev1_base_ad_rev2/lib/lufa/LUFA/Drivers/USB/Core/HostStandardReq.o
 .debug_str     0x0000000000000000      0x1e3 .build/obj_redox_rev1_base_ad_rev2/lib/lufa/LUFA/Drivers/USB/Core/HostStandardReq.o
 .comment       0x0000000000000000       0x12 .build/obj_redox_rev1_base_ad_rev2/lib/lufa/LUFA/Drivers/USB/Core/HostStandardReq.o
 .text          0x0000000000000000        0x0 .build/obj_redox_rev1_base_ad_rev2/lib/lufa/LUFA/Drivers/USB/Core/USBTask.o
 .data          0x0000000000000000        0x0 .build/obj_redox_rev1_base_ad_rev2/lib/lufa/LUFA/Drivers/USB/Core/USBTask.o
 .bss           0x0000000000000000        0x0 .build/obj_redox_rev1_base_ad_rev2/lib/lufa/LUFA/Drivers/USB/Core/USBTask.o
 .text          0x0000000000000000        0x0 .build/obj_redox_rev1_base_ad_rev2/protocol/lufa/usb_util.o
 .data          0x0000000000000000        0x0 .build/obj_redox_rev1_base_ad_rev2/protocol/lufa/usb_util.o
 .bss           0x0000000000000000        0x0 .build/obj_redox_rev1_base_ad_rev2/protocol/lufa/usb_util.o
 .text.usb_connected_state
                0x0000000000000000        0xc .build/obj_redox_rev1_base_ad_rev2/protocol/lufa/usb_util.o
 .text          0x0000000000000000        0x0 /usr/lib/gcc/avr/7.3.0/avr5/libgcc.a(_udivmodqi4.o)
 .data          0x0000000000000000        0x0 /usr/lib/gcc/avr/7.3.0/avr5/libgcc.a(_udivmodqi4.o)
 .bss           0x0000000000000000        0x0 /usr/lib/gcc/avr/7.3.0/avr5/libgcc.a(_udivmodqi4.o)
 .text.libgcc.mul
                0x0000000000000000        0x0 /usr/lib/gcc/avr/7.3.0/avr5/libgcc.a(_udivmodqi4.o)
 .text.libgcc   0x0000000000000000        0x0 /usr/lib/gcc/avr/7.3.0/avr5/libgcc.a(_udivmodqi4.o)
 .text.libgcc.prologue
                0x0000000000000000        0x0 /usr/lib/gcc/avr/7.3.0/avr5/libgcc.a(_udivmodqi4.o)
 .text.libgcc.builtins
                0x0000000000000000        0x0 /usr/lib/gcc/avr/7.3.0/avr5/libgcc.a(_udivmodqi4.o)
 .text.libgcc.fmul
                0x0000000000000000        0x0 /usr/lib/gcc/avr/7.3.0/avr5/libgcc.a(_udivmodqi4.o)
 .text.libgcc.fixed
                0x0000000000000000        0x0 /usr/lib/gcc/avr/7.3.0/avr5/libgcc.a(_udivmodqi4.o)
 .text          0x0000000000000000        0x0 /usr/lib/gcc/avr/7.3.0/avr5/libgcc.a(_divmodqi4.o)
 .data          0x0000000000000000        0x0 /usr/lib/gcc/avr/7.3.0/avr5/libgcc.a(_divmodqi4.o)
 .bss           0x0000000000000000        0x0 /usr/lib/gcc/avr/7.3.0/avr5/libgcc.a(_divmodqi4.o)
 .text.libgcc.mul
                0x0000000000000000        0x0 /usr/lib/gcc/avr/7.3.0/avr5/libgcc.a(_divmodqi4.o)
 .text.libgcc   0x0000000000000000        0x0 /usr/lib/gcc/avr/7.3.0/avr5/libgcc.a(_divmodqi4.o)
 .text.libgcc.prologue
                0x0000000000000000        0x0 /usr/lib/gcc/avr/7.3.0/avr5/libgcc.a(_divmodqi4.o)
 .text.libgcc.builtins
                0x0000000000000000        0x0 /usr/lib/gcc/avr/7.3.0/avr5/libgcc.a(_divmodqi4.o)
 .text.libgcc.fmul
                0x0000000000000000        0x0 /usr/lib/gcc/avr/7.3.0/avr5/libgcc.a(_divmodqi4.o)
 .text.libgcc.fixed
                0x0000000000000000        0x0 /usr/lib/gcc/avr/7.3.0/avr5/libgcc.a(_divmodqi4.o)
 .text          0x0000000000000000        0x0 /usr/lib/gcc/avr/7.3.0/avr5/libgcc.a(_udivmodhi4.o)
 .data          0x0000000000000000        0x0 /usr/lib/gcc/avr/7.3.0/avr5/libgcc.a(_udivmodhi4.o)
 .bss           0x0000000000000000        0x0 /usr/lib/gcc/avr/7.3.0/avr5/libgcc.a(_udivmodhi4.o)
 .text.libgcc.mul
                0x0000000000000000        0x0 /usr/lib/gcc/avr/7.3.0/avr5/libgcc.a(_udivmodhi4.o)
 .text.libgcc   0x0000000000000000        0x0 /usr/lib/gcc/avr/7.3.0/avr5/libgcc.a(_udivmodhi4.o)
 .text.libgcc.prologue
                0x0000000000000000        0x0 /usr/lib/gcc/avr/7.3.0/avr5/libgcc.a(_udivmodhi4.o)
 .text.libgcc.builtins
                0x0000000000000000        0x0 /usr/lib/gcc/avr/7.3.0/avr5/libgcc.a(_udivmodhi4.o)
 .text.libgcc.fmul
                0x0000000000000000        0x0 /usr/lib/gcc/avr/7.3.0/avr5/libgcc.a(_udivmodhi4.o)
 .text.libgcc.fixed
                0x0000000000000000        0x0 /usr/lib/gcc/avr/7.3.0/avr5/libgcc.a(_udivmodhi4.o)
 .text          0x0000000000000000        0x0 /usr/lib/gcc/avr/7.3.0/avr5/libgcc.a(_divmodhi4.o)
 .data          0x0000000000000000        0x0 /usr/lib/gcc/avr/7.3.0/avr5/libgcc.a(_divmodhi4.o)
 .bss           0x0000000000000000        0x0 /usr/lib/gcc/avr/7.3.0/avr5/libgcc.a(_divmodhi4.o)
 .text.libgcc.mul
                0x0000000000000000        0x0 /usr/lib/gcc/avr/7.3.0/avr5/libgcc.a(_divmodhi4.o)
 .text.libgcc   0x0000000000000000        0x0 /usr/lib/gcc/avr/7.3.0/avr5/libgcc.a(_divmodhi4.o)
 .text.libgcc.prologue
                0x0000000000000000        0x0 /usr/lib/gcc/avr/7.3.0/avr5/libgcc.a(_divmodhi4.o)
 .text.libgcc.builtins
                0x0000000000000000        0x0 /usr/lib/gcc/avr/7.3.0/avr5/libgcc.a(_divmodhi4.o)
 .text.libgcc.fmul
                0x0000000000000000        0x0 /usr/lib/gcc/avr/7.3.0/avr5/libgcc.a(_divmodhi4.o)
 .text.libgcc.fixed
                0x0000000000000000        0x0 /usr/lib/gcc/avr/7.3.0/avr5/libgcc.a(_divmodhi4.o)
 .text          0x0000000000000000        0x0 /usr/lib/gcc/avr/7.3.0/avr5/libgcc.a(_udivmodsi4.o)
 .data          0x0000000000000000        0x0 /usr/lib/gcc/avr/7.3.0/avr5/libgcc.a(_udivmodsi4.o)
 .bss           0x0000000000000000        0x0 /usr/lib/gcc/avr/7.3.0/avr5/libgcc.a(_udivmodsi4.o)
 .text.libgcc.mul
                0x0000000000000000        0x0 /usr/lib/gcc/avr/7.3.0/avr5/libgcc.a(_udivmodsi4.o)
 .text.libgcc   0x0000000000000000        0x0 /usr/lib/gcc/avr/7.3.0/avr5/libgcc.a(_udivmodsi4.o)
 .text.libgcc.prologue
                0x0000000000000000        0x0 /usr/lib/gcc/avr/7.3.0/avr5/libgcc.a(_udivmodsi4.o)
 .text.libgcc.builtins
                0x0000000000000000        0x0 /usr/lib/gcc/avr/7.3.0/avr5/libgcc.a(_udivmodsi4.o)
 .text.libgcc.fmul
                0x0000000000000000        0x0 /usr/lib/gcc/avr/7.3.0/avr5/libgcc.a(_udivmodsi4.o)
 .text.libgcc.fixed
                0x0000000000000000        0x0 /usr/lib/gcc/avr/7.3.0/avr5/libgcc.a(_udivmodsi4.o)
 .text          0x0000000000000000        0x0 /usr/lib/gcc/avr/7.3.0/avr5/libgcc.a(_exit.o)
 .data          0x0000000000000000        0x0 /usr/lib/gcc/avr/7.3.0/avr5/libgcc.a(_exit.o)
 .bss           0x0000000000000000        0x0 /usr/lib/gcc/avr/7.3.0/avr5/libgcc.a(_exit.o)
 .text.libgcc.mul
                0x0000000000000000        0x0 /usr/lib/gcc/avr/7.3.0/avr5/libgcc.a(_exit.o)
 .text.libgcc.div
                0x0000000000000000        0x0 /usr/lib/gcc/avr/7.3.0/avr5/libgcc.a(_exit.o)
 .text.libgcc   0x0000000000000000        0x0 /usr/lib/gcc/avr/7.3.0/avr5/libgcc.a(_exit.o)
 .text.libgcc.prologue
                0x0000000000000000        0x0 /usr/lib/gcc/avr/7.3.0/avr5/libgcc.a(_exit.o)
 .text.libgcc.builtins
                0x0000000000000000        0x0 /usr/lib/gcc/avr/7.3.0/avr5/libgcc.a(_exit.o)
 .text.libgcc.fmul
                0x0000000000000000        0x0 /usr/lib/gcc/avr/7.3.0/avr5/libgcc.a(_exit.o)
 .text.libgcc.fixed
                0x0000000000000000        0x0 /usr/lib/gcc/avr/7.3.0/avr5/libgcc.a(_exit.o)
 .text          0x0000000000000000        0x0 /usr/lib/gcc/avr/7.3.0/avr5/libgcc.a(_tablejump2.o)
 .data          0x0000000000000000        0x0 /usr/lib/gcc/avr/7.3.0/avr5/libgcc.a(_tablejump2.o)
 .bss           0x0000000000000000        0x0 /usr/lib/gcc/avr/7.3.0/avr5/libgcc.a(_tablejump2.o)
 .text.libgcc.mul
                0x0000000000000000        0x0 /usr/lib/gcc/avr/7.3.0/avr5/libgcc.a(_tablejump2.o)
 .text.libgcc.div
                0x0000000000000000        0x0 /usr/lib/gcc/avr/7.3.0/avr5/libgcc.a(_tablejump2.o)
 .text.libgcc.prologue
                0x0000000000000000        0x0 /usr/lib/gcc/avr/7.3.0/avr5/libgcc.a(_tablejump2.o)
 .text.libgcc.builtins
                0x0000000000000000        0x0 /usr/lib/gcc/avr/7.3.0/avr5/libgcc.a(_tablejump2.o)
 .text.libgcc.fmul
                0x0000000000000000        0x0 /usr/lib/gcc/avr/7.3.0/avr5/libgcc.a(_tablejump2.o)
 .text.libgcc.fixed
                0x0000000000000000        0x0 /usr/lib/gcc/avr/7.3.0/avr5/libgcc.a(_tablejump2.o)
 .text          0x0000000000000000        0x0 /usr/lib/gcc/avr/7.3.0/avr5/libgcc.a(_copy_data.o)
 .data          0x0000000000000000        0x0 /usr/lib/gcc/avr/7.3.0/avr5/libgcc.a(_copy_data.o)
 .bss           0x0000000000000000        0x0 /usr/lib/gcc/avr/7.3.0/avr5/libgcc.a(_copy_data.o)
 .text.libgcc.mul
                0x0000000000000000        0x0 /usr/lib/gcc/avr/7.3.0/avr5/libgcc.a(_copy_data.o)
 .text.libgcc.div
                0x0000000000000000        0x0 /usr/lib/gcc/avr/7.3.0/avr5/libgcc.a(_copy_data.o)
 .text.libgcc   0x0000000000000000        0x0 /usr/lib/gcc/avr/7.3.0/avr5/libgcc.a(_copy_data.o)
 .text.libgcc.prologue
                0x0000000000000000        0x0 /usr/lib/gcc/avr/7.3.0/avr5/libgcc.a(_copy_data.o)
 .text.libgcc.builtins
                0x0000000000000000        0x0 /usr/lib/gcc/avr/7.3.0/avr5/libgcc.a(_copy_data.o)
 .text.libgcc.fmul
                0x0000000000000000        0x0 /usr/lib/gcc/avr/7.3.0/avr5/libgcc.a(_copy_data.o)
 .text.libgcc.fixed
                0x0000000000000000        0x0 /usr/lib/gcc/avr/7.3.0/avr5/libgcc.a(_copy_data.o)
 .text          0x0000000000000000        0x0 /usr/lib/gcc/avr/7.3.0/avr5/libgcc.a(_clear_bss.o)
 .data          0x0000000000000000        0x0 /usr/lib/gcc/avr/7.3.0/avr5/libgcc.a(_clear_bss.o)
 .bss           0x0000000000000000        0x0 /usr/lib/gcc/avr/7.3.0/avr5/libgcc.a(_clear_bss.o)
 .text.libgcc.mul
                0x0000000000000000        0x0 /usr/lib/gcc/avr/7.3.0/avr5/libgcc.a(_clear_bss.o)
 .text.libgcc.div
                0x0000000000000000        0x0 /usr/lib/gcc/avr/7.3.0/avr5/libgcc.a(_clear_bss.o)
 .text.libgcc   0x0000000000000000        0x0 /usr/lib/gcc/avr/7.3.0/avr5/libgcc.a(_clear_bss.o)
 .text.libgcc.prologue
                0x0000000000000000        0x0 /usr/lib/gcc/avr/7.3.0/avr5/libgcc.a(_clear_bss.o)
 .text.libgcc.builtins
                0x0000000000000000        0x0 /usr/lib/gcc/avr/7.3.0/avr5/libgcc.a(_clear_bss.o)
 .text.libgcc.fmul
                0x0000000000000000        0x0 /usr/lib/gcc/avr/7.3.0/avr5/libgcc.a(_clear_bss.o)
 .text.libgcc.fixed
                0x0000000000000000        0x0 /usr/lib/gcc/avr/7.3.0/avr5/libgcc.a(_clear_bss.o)
 .text          0x0000000000000000        0x0 /usr/lib/gcc/avr/7.3.0/avr5/libgcc.a(_mulhisi3.o)
 .data          0x0000000000000000        0x0 /usr/lib/gcc/avr/7.3.0/avr5/libgcc.a(_mulhisi3.o)
 .bss           0x0000000000000000        0x0 /usr/lib/gcc/avr/7.3.0/avr5/libgcc.a(_mulhisi3.o)
 .text.libgcc.div
                0x0000000000000000        0x0 /usr/lib/gcc/avr/7.3.0/avr5/libgcc.a(_mulhisi3.o)
 .text.libgcc   0x0000000000000000        0x0 /usr/lib/gcc/avr/7.3.0/avr5/libgcc.a(_mulhisi3.o)
 .text.libgcc.prologue
                0x0000000000000000        0x0 /usr/lib/gcc/avr/7.3.0/avr5/libgcc.a(_mulhisi3.o)
 .text.libgcc.builtins
                0x0000000000000000        0x0 /usr/lib/gcc/avr/7.3.0/avr5/libgcc.a(_mulhisi3.o)
 .text.libgcc.fmul
                0x0000000000000000        0x0 /usr/lib/gcc/avr/7.3.0/avr5/libgcc.a(_mulhisi3.o)
 .text.libgcc.fixed
                0x0000000000000000        0x0 /usr/lib/gcc/avr/7.3.0/avr5/libgcc.a(_mulhisi3.o)
 .text          0x0000000000000000        0x0 /usr/lib/gcc/avr/7.3.0/avr5/libgcc.a(_umulhisi3.o)
 .data          0x0000000000000000        0x0 /usr/lib/gcc/avr/7.3.0/avr5/libgcc.a(_umulhisi3.o)
 .bss           0x0000000000000000        0x0 /usr/lib/gcc/avr/7.3.0/avr5/libgcc.a(_umulhisi3.o)
 .text.libgcc.div
                0x0000000000000000        0x0 /usr/lib/gcc/avr/7.3.0/avr5/libgcc.a(_umulhisi3.o)
 .text.libgcc   0x0000000000000000        0x0 /usr/lib/gcc/avr/7.3.0/avr5/libgcc.a(_umulhisi3.o)
 .text.libgcc.prologue
                0x0000000000000000        0x0 /usr/lib/gcc/avr/7.3.0/avr5/libgcc.a(_umulhisi3.o)
 .text.libgcc.builtins
                0x0000000000000000        0x0 /usr/lib/gcc/avr/7.3.0/avr5/libgcc.a(_umulhisi3.o)
 .text.libgcc.fmul
                0x0000000000000000        0x0 /usr/lib/gcc/avr/7.3.0/avr5/libgcc.a(_umulhisi3.o)
 .text.libgcc.fixed
                0x0000000000000000        0x0 /usr/lib/gcc/avr/7.3.0/avr5/libgcc.a(_umulhisi3.o)
 .text          0x0000000000000000        0x0 /usr/lib/gcc/avr/7.3.0/avr5/libgcc.a(_usmulhisi3.o)
 .data          0x0000000000000000        0x0 /usr/lib/gcc/avr/7.3.0/avr5/libgcc.a(_usmulhisi3.o)
 .bss           0x0000000000000000        0x0 /usr/lib/gcc/avr/7.3.0/avr5/libgcc.a(_usmulhisi3.o)
 .text.libgcc.div
                0x0000000000000000        0x0 /usr/lib/gcc/avr/7.3.0/avr5/libgcc.a(_usmulhisi3.o)
 .text.libgcc   0x0000000000000000        0x0 /usr/lib/gcc/avr/7.3.0/avr5/libgcc.a(_usmulhisi3.o)
 .text.libgcc.prologue
                0x0000000000000000        0x0 /usr/lib/gcc/avr/7.3.0/avr5/libgcc.a(_usmulhisi3.o)
 .text.libgcc.builtins
                0x0000000000000000        0x0 /usr/lib/gcc/avr/7.3.0/avr5/libgcc.a(_usmulhisi3.o)
 .text.libgcc.fmul
                0x0000000000000000        0x0 /usr/lib/gcc/avr/7.3.0/avr5/libgcc.a(_usmulhisi3.o)
 .text.libgcc.fixed
                0x0000000000000000        0x0 /usr/lib/gcc/avr/7.3.0/avr5/libgcc.a(_usmulhisi3.o)
 .text          0x0000000000000000        0x0 /usr/lib/gcc/avr/7.3.0/avr5/libgcc.a(_muluhisi3.o)
 .data          0x0000000000000000        0x0 /usr/lib/gcc/avr/7.3.0/avr5/libgcc.a(_muluhisi3.o)
 .bss           0x0000000000000000        0x0 /usr/lib/gcc/avr/7.3.0/avr5/libgcc.a(_muluhisi3.o)
 .text.libgcc.div
                0x0000000000000000        0x0 /usr/lib/gcc/avr/7.3.0/avr5/libgcc.a(_muluhisi3.o)
 .text.libgcc   0x0000000000000000        0x0 /usr/lib/gcc/avr/7.3.0/avr5/libgcc.a(_muluhisi3.o)
 .text.libgcc.prologue
                0x0000000000000000        0x0 /usr/lib/gcc/avr/7.3.0/avr5/libgcc.a(_muluhisi3.o)
 .text.libgcc.builtins
                0x0000000000000000        0x0 /usr/lib/gcc/avr/7.3.0/avr5/libgcc.a(_muluhisi3.o)
 .text.libgcc.fmul
                0x0000000000000000        0x0 /usr/lib/gcc/avr/7.3.0/avr5/libgcc.a(_muluhisi3.o)
 .text.libgcc.fixed
                0x0000000000000000        0x0 /usr/lib/gcc/avr/7.3.0/avr5/libgcc.a(_muluhisi3.o)
 .text          0x0000000000000000        0x0 /usr/lib/gcc/avr/7.3.0/avr5/libgcc.a(_mulshisi3.o)
 .data          0x0000000000000000        0x0 /usr/lib/gcc/avr/7.3.0/avr5/libgcc.a(_mulshisi3.o)
 .bss           0x0000000000000000        0x0 /usr/lib/gcc/avr/7.3.0/avr5/libgcc.a(_mulshisi3.o)
 .text.libgcc.div
                0x0000000000000000        0x0 /usr/lib/gcc/avr/7.3.0/avr5/libgcc.a(_mulshisi3.o)
 .text.libgcc   0x0000000000000000        0x0 /usr/lib/gcc/avr/7.3.0/avr5/libgcc.a(_mulshisi3.o)
 .text.libgcc.prologue
                0x0000000000000000        0x0 /usr/lib/gcc/avr/7.3.0/avr5/libgcc.a(_mulshisi3.o)
 .text.libgcc.builtins
                0x0000000000000000        0x0 /usr/lib/gcc/avr/7.3.0/avr5/libgcc.a(_mulshisi3.o)
 .text.libgcc.fmul
                0x0000000000000000        0x0 /usr/lib/gcc/avr/7.3.0/avr5/libgcc.a(_mulshisi3.o)
 .text.libgcc.fixed
                0x0000000000000000        0x0 /usr/lib/gcc/avr/7.3.0/avr5/libgcc.a(_mulshisi3.o)
 .text          0x0000000000000000        0x0 /usr/lib/gcc/avr/7.3.0/avr5/libgcc.a(_prologue.o)
 .data          0x0000000000000000        0x0 /usr/lib/gcc/avr/7.3.0/avr5/libgcc.a(_prologue.o)
 .bss           0x0000000000000000        0x0 /usr/lib/gcc/avr/7.3.0/avr5/libgcc.a(_prologue.o)
 .text.libgcc.mul
                0x0000000000000000        0x0 /usr/lib/gcc/avr/7.3.0/avr5/libgcc.a(_prologue.o)
 .text.libgcc.div
                0x0000000000000000        0x0 /usr/lib/gcc/avr/7.3.0/avr5/libgcc.a(_prologue.o)
 .text.libgcc   0x0000000000000000        0x0 /usr/lib/gcc/avr/7.3.0/avr5/libgcc.a(_prologue.o)
 .text.libgcc.builtins
                0x0000000000000000        0x0 /usr/lib/gcc/avr/7.3.0/avr5/libgcc.a(_prologue.o)
 .text.libgcc.fmul
                0x0000000000000000        0x0 /usr/lib/gcc/avr/7.3.0/avr5/libgcc.a(_prologue.o)
 .text.libgcc.fixed
                0x0000000000000000        0x0 /usr/lib/gcc/avr/7.3.0/avr5/libgcc.a(_prologue.o)
 .text          0x0000000000000000        0x0 /usr/lib/gcc/avr/7.3.0/avr5/libgcc.a(_epilogue.o)
 .data          0x0000000000000000        0x0 /usr/lib/gcc/avr/7.3.0/avr5/libgcc.a(_epilogue.o)
 .bss           0x0000000000000000        0x0 /usr/lib/gcc/avr/7.3.0/avr5/libgcc.a(_epilogue.o)
 .text.libgcc.mul
                0x0000000000000000        0x0 /usr/lib/gcc/avr/7.3.0/avr5/libgcc.a(_epilogue.o)
 .text.libgcc.div
                0x0000000000000000        0x0 /usr/lib/gcc/avr/7.3.0/avr5/libgcc.a(_epilogue.o)
 .text.libgcc   0x0000000000000000        0x0 /usr/lib/gcc/avr/7.3.0/avr5/libgcc.a(_epilogue.o)
 .text.libgcc.builtins
                0x0000000000000000        0x0 /usr/lib/gcc/avr/7.3.0/avr5/libgcc.a(_epilogue.o)
 .text.libgcc.fmul
                0x0000000000000000        0x0 /usr/lib/gcc/avr/7.3.0/avr5/libgcc.a(_epilogue.o)
 .text.libgcc.fixed
                0x0000000000000000        0x0 /usr/lib/gcc/avr/7.3.0/avr5/libgcc.a(_epilogue.o)
 .text          0x0000000000000000        0x0 /usr/lib/gcc/avr/7.3.0/avr5/libgcc.a(_ashldi3.o)
 .data          0x0000000000000000        0x0 /usr/lib/gcc/avr/7.3.0/avr5/libgcc.a(_ashldi3.o)
 .bss           0x0000000000000000        0x0 /usr/lib/gcc/avr/7.3.0/avr5/libgcc.a(_ashldi3.o)
 .text.libgcc.mul
                0x0000000000000000        0x0 /usr/lib/gcc/avr/7.3.0/avr5/libgcc.a(_ashldi3.o)
 .text.libgcc.div
                0x0000000000000000        0x0 /usr/lib/gcc/avr/7.3.0/avr5/libgcc.a(_ashldi3.o)
 .text.libgcc   0x0000000000000000        0x0 /usr/lib/gcc/avr/7.3.0/avr5/libgcc.a(_ashldi3.o)
 .text.libgcc.prologue
                0x0000000000000000        0x0 /usr/lib/gcc/avr/7.3.0/avr5/libgcc.a(_ashldi3.o)
 .text.libgcc.fmul
                0x0000000000000000        0x0 /usr/lib/gcc/avr/7.3.0/avr5/libgcc.a(_ashldi3.o)
 .text.libgcc.fixed
                0x0000000000000000        0x0 /usr/lib/gcc/avr/7.3.0/avr5/libgcc.a(_ashldi3.o)
 .text          0x0000000000000000        0x0 /usr/lib/gcc/avr/7.3.0/avr5/libgcc.a(_ashrdi3.o)
 .data          0x0000000000000000        0x0 /usr/lib/gcc/avr/7.3.0/avr5/libgcc.a(_ashrdi3.o)
 .bss           0x0000000000000000        0x0 /usr/lib/gcc/avr/7.3.0/avr5/libgcc.a(_ashrdi3.o)
 .text.libgcc.mul
                0x0000000000000000        0x0 /usr/lib/gcc/avr/7.3.0/avr5/libgcc.a(_ashrdi3.o)
 .text.libgcc.div
                0x0000000000000000        0x0 /usr/lib/gcc/avr/7.3.0/avr5/libgcc.a(_ashrdi3.o)
 .text.libgcc   0x0000000000000000        0x0 /usr/lib/gcc/avr/7.3.0/avr5/libgcc.a(_ashrdi3.o)
 .text.libgcc.prologue
                0x0000000000000000        0x0 /usr/lib/gcc/avr/7.3.0/avr5/libgcc.a(_ashrdi3.o)
 .text.libgcc.fmul
                0x0000000000000000        0x0 /usr/lib/gcc/avr/7.3.0/avr5/libgcc.a(_ashrdi3.o)
 .text.libgcc.fixed
                0x0000000000000000        0x0 /usr/lib/gcc/avr/7.3.0/avr5/libgcc.a(_ashrdi3.o)
 .text          0x0000000000000000        0x0 /usr/lib/gcc/avr/7.3.0/../../../avr/lib/avr5/libc.a(rand.o)
 .bss           0x0000000000000000        0x0 /usr/lib/gcc/avr/7.3.0/../../../avr/lib/avr5/libc.a(rand.o)
 .text          0x0000000000000000        0x0 /usr/lib/gcc/avr/7.3.0/../../../avr/lib/avr5/libc.a(memchr.o)
 .data          0x0000000000000000        0x0 /usr/lib/gcc/avr/7.3.0/../../../avr/lib/avr5/libc.a(memchr.o)
 .bss           0x0000000000000000        0x0 /usr/lib/gcc/avr/7.3.0/../../../avr/lib/avr5/libc.a(memchr.o)
 .text          0x0000000000000000        0x0 /usr/lib/gcc/avr/7.3.0/../../../avr/lib/avr5/libc.a(memcmp.o)
 .data          0x0000000000000000        0x0 /usr/lib/gcc/avr/7.3.0/../../../avr/lib/avr5/libc.a(memcmp.o)
 .bss           0x0000000000000000        0x0 /usr/lib/gcc/avr/7.3.0/../../../avr/lib/avr5/libc.a(memcmp.o)
 .text          0x0000000000000000        0x0 /usr/lib/gcc/avr/7.3.0/../../../avr/lib/avr5/libc.a(memcpy.o)
 .data          0x0000000000000000        0x0 /usr/lib/gcc/avr/7.3.0/../../../avr/lib/avr5/libc.a(memcpy.o)
 .bss           0x0000000000000000        0x0 /usr/lib/gcc/avr/7.3.0/../../../avr/lib/avr5/libc.a(memcpy.o)
 .text          0x0000000000000000        0x0 /usr/lib/gcc/avr/7.3.0/../../../avr/lib/avr5/libatmega32u4.a(eerd_byte.o)
 .data          0x0000000000000000        0x0 /usr/lib/gcc/avr/7.3.0/../../../avr/lib/avr5/libatmega32u4.a(eerd_byte.o)
 .bss           0x0000000000000000        0x0 /usr/lib/gcc/avr/7.3.0/../../../avr/lib/avr5/libatmega32u4.a(eerd_byte.o)
 .text          0x0000000000000000        0x0 /usr/lib/gcc/avr/7.3.0/../../../avr/lib/avr5/libatmega32u4.a(eerd_dword.o)
 .data          0x0000000000000000        0x0 /usr/lib/gcc/avr/7.3.0/../../../avr/lib/avr5/libatmega32u4.a(eerd_dword.o)
 .bss           0x0000000000000000        0x0 /usr/lib/gcc/avr/7.3.0/../../../avr/lib/avr5/libatmega32u4.a(eerd_dword.o)
 .text          0x0000000000000000        0x0 /usr/lib/gcc/avr/7.3.0/../../../avr/lib/avr5/libatmega32u4.a(eerd_word.o)
 .data          0x0000000000000000        0x0 /usr/lib/gcc/avr/7.3.0/../../../avr/lib/avr5/libatmega32u4.a(eerd_word.o)
 .bss           0x0000000000000000        0x0 /usr/lib/gcc/avr/7.3.0/../../../avr/lib/avr5/libatmega32u4.a(eerd_word.o)
 .text          0x0000000000000000        0x0 /usr/lib/gcc/avr/7.3.0/../../../avr/lib/avr5/libatmega32u4.a(eeupd_block.o)
 .data          0x0000000000000000        0x0 /usr/lib/gcc/avr/7.3.0/../../../avr/lib/avr5/libatmega32u4.a(eeupd_block.o)
 .bss           0x0000000000000000        0x0 /usr/lib/gcc/avr/7.3.0/../../../avr/lib/avr5/libatmega32u4.a(eeupd_block.o)
 .text          0x0000000000000000        0x0 /usr/lib/gcc/avr/7.3.0/../../../avr/lib/avr5/libatmega32u4.a(eeupd_byte.o)
 .data          0x0000000000000000        0x0 /usr/lib/gcc/avr/7.3.0/../../../avr/lib/avr5/libatmega32u4.a(eeupd_byte.o)
 .bss           0x0000000000000000        0x0 /usr/lib/gcc/avr/7.3.0/../../../avr/lib/avr5/libatmega32u4.a(eeupd_byte.o)
 .text          0x0000000000000000        0x0 /usr/lib/gcc/avr/7.3.0/../../../avr/lib/avr5/libatmega32u4.a(eeupd_dword.o)
 .data          0x0000000000000000        0x0 /usr/lib/gcc/avr/7.3.0/../../../avr/lib/avr5/libatmega32u4.a(eeupd_dword.o)
 .bss           0x0000000000000000        0x0 /usr/lib/gcc/avr/7.3.0/../../../avr/lib/avr5/libatmega32u4.a(eeupd_dword.o)
 .text          0x0000000000000000        0x0 /usr/lib/gcc/avr/7.3.0/../../../avr/lib/avr5/libatmega32u4.a(eeupd_word.o)
 .data          0x0000000000000000        0x0 /usr/lib/gcc/avr/7.3.0/../../../avr/lib/avr5/libatmega32u4.a(eeupd_word.o)
 .bss           0x0000000000000000        0x0 /usr/lib/gcc/avr/7.3.0/../../../avr/lib/avr5/libatmega32u4.a(eeupd_word.o)
 .text          0x0000000000000000        0x0 /usr/lib/gcc/avr/7.3.0/../../../avr/lib/avr5/libatmega32u4.a(eerd_block.o)
 .data          0x0000000000000000        0x0 /usr/lib/gcc/avr/7.3.0/../../../avr/lib/avr5/libatmega32u4.a(eerd_block.o)
 .bss           0x0000000000000000        0x0 /usr/lib/gcc/avr/7.3.0/../../../avr/lib/avr5/libatmega32u4.a(eerd_block.o)
 .text          0x0000000000000000        0x0 /usr/lib/gcc/avr/7.3.0/avr5/libgcc.a(_divmodsi4.o)
 .data          0x0000000000000000        0x0 /usr/lib/gcc/avr/7.3.0/avr5/libgcc.a(_divmodsi4.o)
 .bss           0x0000000000000000        0x0 /usr/lib/gcc/avr/7.3.0/avr5/libgcc.a(_divmodsi4.o)
 .text.libgcc.mul
                0x0000000000000000        0x0 /usr/lib/gcc/avr/7.3.0/avr5/libgcc.a(_divmodsi4.o)
 .text.libgcc   0x0000000000000000        0x0 /usr/lib/gcc/avr/7.3.0/avr5/libgcc.a(_divmodsi4.o)
 .text.libgcc.prologue
                0x0000000000000000        0x0 /usr/lib/gcc/avr/7.3.0/avr5/libgcc.a(_divmodsi4.o)
 .text.libgcc.builtins
                0x0000000000000000        0x0 /usr/lib/gcc/avr/7.3.0/avr5/libgcc.a(_divmodsi4.o)
 .text.libgcc.fmul
                0x0000000000000000        0x0 /usr/lib/gcc/avr/7.3.0/avr5/libgcc.a(_divmodsi4.o)
 .text.libgcc.fixed
                0x0000000000000000        0x0 /usr/lib/gcc/avr/7.3.0/avr5/libgcc.a(_divmodsi4.o)
 .text          0x0000000000000000        0x0 /usr/lib/gcc/avr/7.3.0/avr5/libgcc.a(_negsi2.o)
 .data          0x0000000000000000        0x0 /usr/lib/gcc/avr/7.3.0/avr5/libgcc.a(_negsi2.o)
 .bss           0x0000000000000000        0x0 /usr/lib/gcc/avr/7.3.0/avr5/libgcc.a(_negsi2.o)
 .text.libgcc.mul
                0x0000000000000000        0x0 /usr/lib/gcc/avr/7.3.0/avr5/libgcc.a(_negsi2.o)
 .text.libgcc   0x0000000000000000        0x0 /usr/lib/gcc/avr/7.3.0/avr5/libgcc.a(_negsi2.o)
 .text.libgcc.prologue
                0x0000000000000000        0x0 /usr/lib/gcc/avr/7.3.0/avr5/libgcc.a(_negsi2.o)
 .text.libgcc.builtins
                0x0000000000000000        0x0 /usr/lib/gcc/avr/7.3.0/avr5/libgcc.a(_negsi2.o)
 .text.libgcc.fmul
                0x0000000000000000        0x0 /usr/lib/gcc/avr/7.3.0/avr5/libgcc.a(_negsi2.o)
 .text.libgcc.fixed
                0x0000000000000000        0x0 /usr/lib/gcc/avr/7.3.0/avr5/libgcc.a(_negsi2.o)

Memory Configuration

Name             Origin             Length             Attributes
text             0x0000000000000000 0x0000000000008000 xr
data             0x0000000000800100 0x0000000000000a00 rw !x
eeprom           0x0000000000810000 0x0000000000000400 rw !x
fuse             0x0000000000820000 0x0000000000000003 rw !x
lock             0x0000000000830000 0x0000000000000400 rw !x
signature        0x0000000000840000 0x0000000000000400 rw !x
user_signatures  0x0000000000850000 0x0000000000000400 rw !x
*default*        0x0000000000000000 0xffffffffffffffff

Linker script and memory map

Address of section .data set to 0x800100
LOAD /usr/lib/gcc/avr/7.3.0/../../../avr/lib/avr5/crtatmega32u4.o
LOAD .build/obj_redox_rev1_base_ad_rev2/.build/obj_redox_rev1_base_ad_rev2/src/default_keyboard.o
LOAD .build/obj_redox_rev1_base_ad_rev2/quantum/keymap_introspection.o
LOAD .build/obj_redox_rev1_base_ad_rev2/quantum/quantum.o
LOAD .build/obj_redox_rev1_base_ad_rev2/quantum/bitwise.o
LOAD .build/obj_redox_rev1_base_ad_rev2/quantum/led.o
LOAD .build/obj_redox_rev1_base_ad_rev2/quantum/action.o
LOAD .build/obj_redox_rev1_base_ad_rev2/quantum/action_layer.o
LOAD .build/obj_redox_rev1_base_ad_rev2/quantum/action_tapping.o
LOAD .build/obj_redox_rev1_base_ad_rev2/quantum/action_util.o
LOAD .build/obj_redox_rev1_base_ad_rev2/quantum/eeconfig.o
LOAD .build/obj_redox_rev1_base_ad_rev2/quantum/keyboard.o
LOAD .build/obj_redox_rev1_base_ad_rev2/quantum/keymap_common.o
LOAD .build/obj_redox_rev1_base_ad_rev2/quantum/keycode_config.o
LOAD .build/obj_redox_rev1_base_ad_rev2/quantum/sync_timer.o
LOAD .build/obj_redox_rev1_base_ad_rev2/quantum/logging/debug.o
LOAD .build/obj_redox_rev1_base_ad_rev2/quantum/logging/sendchar.o
LOAD .build/obj_redox_rev1_base_ad_rev2/quantum/matrix_common.o
LOAD .build/obj_redox_rev1_base_ad_rev2/quantum/matrix.o
LOAD .build/obj_redox_rev1_base_ad_rev2/quantum/debounce/sym_defer_g.o
LOAD .build/obj_redox_rev1_base_ad_rev2/quantum/split_common/split_util.o
LOAD .build/obj_redox_rev1_base_ad_rev2/quantum/split_common/transport.o
LOAD .build/obj_redox_rev1_base_ad_rev2/quantum/split_common/transactions.o
LOAD .build/obj_redox_rev1_base_ad_rev2/quantum/main.o
LOAD .build/obj_redox_rev1_base_ad_rev2/platforms/avr/xprintf.o
LOAD .build/obj_redox_rev1_base_ad_rev2/platforms/avr/printf.o
LOAD .build/obj_redox_rev1_base_ad_rev2/quantum/color.o
LOAD .build/obj_redox_rev1_base_ad_rev2/quantum/rgblight/rgblight.o
LOAD .build/obj_redox_rev1_base_ad_rev2/quantum/rgblight/rgblight_drivers.o
LOAD .build/obj_redox_rev1_base_ad_rev2/quantum/process_keycode/process_rgb.o
LOAD .build/obj_redox_rev1_base_ad_rev2/quantum/led_tables.o
LOAD .build/obj_redox_rev1_base_ad_rev2/quantum/process_keycode/process_unicode.o
LOAD .build/obj_redox_rev1_base_ad_rev2/quantum/process_keycode/process_unicode_common.o
LOAD .build/obj_redox_rev1_base_ad_rev2/quantum/unicode/unicode.o
LOAD .build/obj_redox_rev1_base_ad_rev2/quantum/unicode/utf8.o
LOAD .build/obj_redox_rev1_base_ad_rev2/ws2812_bitbang.o
LOAD .build/obj_redox_rev1_base_ad_rev2/quantum/bootmagic/bootmagic.o
LOAD .build/obj_redox_rev1_base_ad_rev2/quantum/command.o
LOAD .build/obj_redox_rev1_base_ad_rev2/quantum/crc.o
LOAD .build/obj_redox_rev1_base_ad_rev2/quantum/process_keycode/process_grave_esc.o
LOAD .build/obj_redox_rev1_base_ad_rev2/quantum/process_keycode/process_magic.o
LOAD .build/obj_redox_rev1_base_ad_rev2/quantum/mousekey.o
LOAD .build/obj_redox_rev1_base_ad_rev2/quantum/send_string/send_string.o
LOAD .build/obj_redox_rev1_base_ad_rev2/quantum/process_keycode/process_space_cadet.o
LOAD .build/obj_redox_rev1_base_ad_rev2/quantum/process_keycode/process_tap_dance.o
LOAD .build/obj_redox_rev1_base_ad_rev2/protocol/host.o
LOAD .build/obj_redox_rev1_base_ad_rev2/protocol/report.o
LOAD .build/obj_redox_rev1_base_ad_rev2/protocol/usb_device_state.o
LOAD .build/obj_redox_rev1_base_ad_rev2/protocol/usb_util.o
LOAD .build/obj_redox_rev1_base_ad_rev2/platforms/suspend.o
LOAD .build/obj_redox_rev1_base_ad_rev2/platforms/synchronization_util.o
LOAD .build/obj_redox_rev1_base_ad_rev2/platforms/timer.o
LOAD .build/obj_redox_rev1_base_ad_rev2/platforms/avr/hardware_id.o
LOAD .build/obj_redox_rev1_base_ad_rev2/platforms/avr/platform.o
LOAD .build/obj_redox_rev1_base_ad_rev2/platforms/avr/suspend.o
LOAD .build/obj_redox_rev1_base_ad_rev2/platforms/avr/timer.o
LOAD .build/obj_redox_rev1_base_ad_rev2/platforms/avr/bootloaders/caterina.o
LOAD .build/obj_redox_rev1_base_ad_rev2/i2c_master.a
LOAD .build/obj_redox_rev1_base_ad_rev2/i2c_slave.a
LOAD .build/obj_redox_rev1_base_ad_rev2/serial.a
LOAD .build/obj_redox_rev1_base_ad_rev2/lufa.o
LOAD .build/obj_redox_rev1_base_ad_rev2/usb_descriptor.o
LOAD .build/obj_redox_rev1_base_ad_rev2/lib/lufa/LUFA/Drivers/USB/Class/Common/HIDParser.o
LOAD .build/obj_redox_rev1_base_ad_rev2/lib/lufa/LUFA/Drivers/USB/Core/AVR8/Device_AVR8.o
LOAD .build/obj_redox_rev1_base_ad_rev2/lib/lufa/LUFA/Drivers/USB/Core/AVR8/EndpointStream_AVR8.o
LOAD .build/obj_redox_rev1_base_ad_rev2/lib/lufa/LUFA/Drivers/USB/Core/AVR8/Endpoint_AVR8.o
LOAD .build/obj_redox_rev1_base_ad_rev2/lib/lufa/LUFA/Drivers/USB/Core/AVR8/Host_AVR8.o
LOAD .build/obj_redox_rev1_base_ad_rev2/lib/lufa/LUFA/Drivers/USB/Core/AVR8/PipeStream_AVR8.o
LOAD .build/obj_redox_rev1_base_ad_rev2/lib/lufa/LUFA/Drivers/USB/Core/AVR8/Pipe_AVR8.o
LOAD .build/obj_redox_rev1_base_ad_rev2/lib/lufa/LUFA/Drivers/USB/Core/AVR8/USBController_AVR8.o
LOAD .build/obj_redox_rev1_base_ad_rev2/lib/lufa/LUFA/Drivers/USB/Core/AVR8/USBInterrupt_AVR8.o
LOAD .build/obj_redox_rev1_base_ad_rev2/lib/lufa/LUFA/Drivers/USB/Core/ConfigDescriptors.o
LOAD .build/obj_redox_rev1_base_ad_rev2/lib/lufa/LUFA/Drivers/USB/Core/DeviceStandardReq.o
LOAD .build/obj_redox_rev1_base_ad_rev2/lib/lufa/LUFA/Drivers/USB/Core/Events.o
LOAD .build/obj_redox_rev1_base_ad_rev2/lib/lufa/LUFA/Drivers/USB/Core/HostStandardReq.o
LOAD .build/obj_redox_rev1_base_ad_rev2/lib/lufa/LUFA/Drivers/USB/Core/USBTask.o
LOAD .build/obj_redox_rev1_base_ad_rev2/protocol/lufa/usb_util.o
LOAD /usr/lib/gcc/avr/7.3.0/../../../avr/lib/avr5/libm.a
START GROUP
LOAD /usr/lib/gcc/avr/7.3.0/avr5/libgcc.a
LOAD /usr/lib/gcc/avr/7.3.0/../../../avr/lib/avr5/libm.a
LOAD /usr/lib/gcc/avr/7.3.0/../../../avr/lib/avr5/libc.a
LOAD /usr/lib/gcc/avr/7.3.0/../../../avr/lib/avr5/libatmega32u4.a
END GROUP
                0x0000000000000000                __TEXT_REGION_ORIGIN__ = DEFINED (__TEXT_REGION_ORIGIN__)?__TEXT_REGION_ORIGIN__:0x0
                [0x0000000000800100]                __DATA_REGION_ORIGIN__ = DEFINED (__DATA_REGION_ORIGIN__)?__DATA_REGION_ORIGIN__:0x800060
                [0x0000000000008000]                __TEXT_REGION_LENGTH__ = DEFINED (__TEXT_REGION_LENGTH__)?__TEXT_REGION_LENGTH__:0x20000
                [0x0000000000000a00]                __DATA_REGION_LENGTH__ = DEFINED (__DATA_REGION_LENGTH__)?__DATA_REGION_LENGTH__:0xffa0
                [0x0000000000000400]                __EEPROM_REGION_LENGTH__ = DEFINED (__EEPROM_REGION_LENGTH__)?__EEPROM_REGION_LENGTH__:0x10000
                [0x0000000000000003]                __FUSE_REGION_LENGTH__ = DEFINED (__FUSE_REGION_LENGTH__)?__FUSE_REGION_LENGTH__:0x400
                0x0000000000000400                __LOCK_REGION_LENGTH__ = DEFINED (__LOCK_REGION_LENGTH__)?__LOCK_REGION_LENGTH__:0x400
                0x0000000000000400                __SIGNATURE_REGION_LENGTH__ = DEFINED (__SIGNATURE_REGION_LENGTH__)?__SIGNATURE_REGION_LENGTH__:0x400
                0x0000000000000400                __USER_SIGNATURE_REGION_LENGTH__ = DEFINED (__USER_SIGNATURE_REGION_LENGTH__)?__USER_SIGNATURE_REGION_LENGTH__:0x400

.hash
 *(.hash)

.dynsym
 *(.dynsym)

.dynstr
 *(.dynstr)

.gnu.version
 *(.gnu.version)

.gnu.version_d
 *(.gnu.version_d)

.gnu.version_r
 *(.gnu.version_r)

.rel.init
 *(.rel.init)

.rela.init
 *(.rela.init)

.rel.text
 *(.rel.text)
 *(.rel.text.*)
 *(.rel.gnu.linkonce.t*)

.rela.text
 *(.rela.text)
 *(.rela.text.*)
 *(.rela.gnu.linkonce.t*)

.rel.fini
 *(.rel.fini)

.rela.fini
 *(.rela.fini)

.rel.rodata
 *(.rel.rodata)
 *(.rel.rodata.*)
 *(.rel.gnu.linkonce.r*)

.rela.rodata
 *(.rela.rodata)
 *(.rela.rodata.*)
 *(.rela.gnu.linkonce.r*)

.rel.data
 *(.rel.data)
 *(.rel.data.*)
 *(.rel.gnu.linkonce.d*)

.rela.data
 *(.rela.data)
 *(.rela.data.*)
 *(.rela.gnu.linkonce.d*)

.rel.ctors
 *(.rel.ctors)

.rela.ctors
 *(.rela.ctors)

.rel.dtors
 *(.rel.dtors)

.rela.dtors
 *(.rela.dtors)

.rel.got
 *(.rel.got)

.rela.got
 *(.rela.got)

.rel.bss
 *(.rel.bss)

.rela.bss
 *(.rela.bss)

.rel.plt
 *(.rel.plt)

.rela.plt
 *(.rela.plt)

.text           0x0000000000000000     0x70fc
 *(.vectors)
 .vectors       0x0000000000000000       0xac /usr/lib/gcc/avr/7.3.0/../../../avr/lib/avr5/crtatmega32u4.o
                0x0000000000000000                __vectors
                0x0000000000000000                __vector_default
 *(.vectors)
 *(.progmem.gcc*)
                0x00000000000000ac                . = ALIGN (0x2)
                0x00000000000000ac                __trampolines_start = .
 *(.trampolines)
 .trampolines   0x00000000000000ac        0x0 linker stubs
 *(.trampolines*)
                0x00000000000000ac                __trampolines_end = .
 *libprintf_flt.a:*(.progmem.data)
 *libc.a:*(.progmem.data)
 *(.progmem*)
 .progmem.data.__c.5347
                0x00000000000000ac        0x7 .build/obj_redox_rev1_base_ad_rev2/quantum/keymap_introspection.o
 .progmem.data.__c.5344
                0x00000000000000b3        0xb .build/obj_redox_rev1_base_ad_rev2/quantum/keymap_introspection.o
 .progmem.data.__c.5341
                0x00000000000000be        0xe .build/obj_redox_rev1_base_ad_rev2/quantum/keymap_introspection.o
 .progmem.data.__c.5338
                0x00000000000000cc        0xe .build/obj_redox_rev1_base_ad_rev2/quantum/keymap_introspection.o
 .progmem.data.keymaps
                0x00000000000000da      0x2bc .build/obj_redox_rev1_base_ad_rev2/quantum/keymap_introspection.o
                0x00000000000000da                keymaps
 .progmem.data.RGBLED_TWINKLE_INTERVALS
                0x0000000000000396        0x3 .build/obj_redox_rev1_base_ad_rev2/quantum/rgblight/rgblight.o
                0x0000000000000396                RGBLED_TWINKLE_INTERVALS
 .progmem.data.RGBLED_RGBTEST_INTERVALS
                0x0000000000000399        0x2 .build/obj_redox_rev1_base_ad_rev2/quantum/rgblight/rgblight.o
                0x0000000000000399                RGBLED_RGBTEST_INTERVALS
 .progmem.data.RGBLED_KNIGHT_INTERVALS
                0x000000000000039b        0x3 .build/obj_redox_rev1_base_ad_rev2/quantum/rgblight/rgblight.o
                0x000000000000039b                RGBLED_KNIGHT_INTERVALS
 .progmem.data.RGBLED_SNAKE_INTERVALS
                0x000000000000039e        0x3 .build/obj_redox_rev1_base_ad_rev2/quantum/rgblight/rgblight.o
                0x000000000000039e                RGBLED_SNAKE_INTERVALS
 .progmem.data.RGBLED_RAINBOW_SWIRL_INTERVALS
                0x00000000000003a1        0x3 .build/obj_redox_rev1_base_ad_rev2/quantum/rgblight/rgblight.o
                0x00000000000003a1                RGBLED_RAINBOW_SWIRL_INTERVALS
 .progmem.data.RGBLED_RAINBOW_MOOD_INTERVALS
                0x00000000000003a4        0x3 .build/obj_redox_rev1_base_ad_rev2/quantum/rgblight/rgblight.o
                0x00000000000003a4                RGBLED_RAINBOW_MOOD_INTERVALS
 .progmem.data.RGBLED_BREATHING_INTERVALS
                0x00000000000003a7        0x4 .build/obj_redox_rev1_base_ad_rev2/quantum/rgblight/rgblight.o
                0x00000000000003a7                RGBLED_BREATHING_INTERVALS
 .progmem.data.rgblight_effect_breathe_table
                0x00000000000003ab      0x100 .build/obj_redox_rev1_base_ad_rev2/quantum/rgblight/rgblight.o
                0x00000000000003ab                rgblight_effect_breathe_table
 .progmem.data.RGBLED_GRADIENT_RANGES
                0x00000000000004ab        0x5 .build/obj_redox_rev1_base_ad_rev2/quantum/rgblight/rgblight.o
                0x00000000000004ab                RGBLED_GRADIENT_RANGES
 .progmem.data.CIE1931_CURVE
                0x00000000000004b0      0x100 .build/obj_redox_rev1_base_ad_rev2/quantum/led_tables.o
                0x00000000000004b0                CIE1931_CURVE
 .progmem.data.ascii_to_keycode_lut
                0x00000000000005b0       0x80 .build/obj_redox_rev1_base_ad_rev2/quantum/send_string/send_string.o
                0x00000000000005b0                ascii_to_keycode_lut
 .progmem.data.ascii_to_dead_lut
                0x0000000000000630       0x10 .build/obj_redox_rev1_base_ad_rev2/quantum/send_string/send_string.o
                0x0000000000000630                ascii_to_dead_lut
 .progmem.data.ascii_to_altgr_lut
                0x0000000000000640       0x10 .build/obj_redox_rev1_base_ad_rev2/quantum/send_string/send_string.o
                0x0000000000000640                ascii_to_altgr_lut
 .progmem.data.ascii_to_shift_lut
                0x0000000000000650       0x10 .build/obj_redox_rev1_base_ad_rev2/quantum/send_string/send_string.o
                0x0000000000000650                ascii_to_shift_lut
 .progmem.data.ProductString
                0x0000000000000660       0x22 .build/obj_redox_rev1_base_ad_rev2/usb_descriptor.o
                0x0000000000000660                ProductString
 .progmem.data.ManufacturerString
                0x0000000000000682       0x14 .build/obj_redox_rev1_base_ad_rev2/usb_descriptor.o
                0x0000000000000682                ManufacturerString
 .progmem.data.LanguageString
                0x0000000000000696        0x4 .build/obj_redox_rev1_base_ad_rev2/usb_descriptor.o
                0x0000000000000696                LanguageString
 .progmem.data.ConfigurationDescriptor
                0x000000000000069a       0x3b .build/obj_redox_rev1_base_ad_rev2/usb_descriptor.o
                0x000000000000069a                ConfigurationDescriptor
 .progmem.data.DeviceDescriptor
                0x00000000000006d5       0x12 .build/obj_redox_rev1_base_ad_rev2/usb_descriptor.o
                0x00000000000006d5                DeviceDescriptor
 .progmem.data.SharedReport
                0x00000000000006e7       0xb6 .build/obj_redox_rev1_base_ad_rev2/usb_descriptor.o
                0x00000000000006e7                SharedReport
 .progmem.data.KeyboardReport
                0x000000000000079d       0x44 .build/obj_redox_rev1_base_ad_rev2/usb_descriptor.o
                0x000000000000079d                KeyboardReport
                0x00000000000007e2                . = ALIGN (0x2)
 *fill*         0x00000000000007e1        0x1 
 *(.jumptables)
 *(.jumptables*)
 *(.lowtext)
 *(.lowtext*)
                0x00000000000007e2                __ctors_start = .
 *(.ctors)
                0x00000000000007e2                __ctors_end = .
                0x00000000000007e2                __dtors_start = .
 *(.dtors)
                0x00000000000007e2                __dtors_end = .
 SORT(*)(.ctors)
 SORT(*)(.dtors)
 *(.init0)
 .init0         0x00000000000007e2        0x0 /usr/lib/gcc/avr/7.3.0/../../../avr/lib/avr5/crtatmega32u4.o
                0x00000000000007e2                __init
 *(.init0)
 *(.init1)
 *(.init1)
 *(.init2)
 .init2         0x00000000000007e2        0xc /usr/lib/gcc/avr/7.3.0/../../../avr/lib/avr5/crtatmega32u4.o
 *(.init2)
 *(.init3)
 *(.init3)
 *(.init4)
 .init4         0x00000000000007ee       0x16 /usr/lib/gcc/avr/7.3.0/avr5/libgcc.a(_copy_data.o)
                0x00000000000007ee                __do_copy_data
 .init4         0x0000000000000804       0x10 /usr/lib/gcc/avr/7.3.0/avr5/libgcc.a(_clear_bss.o)
                0x0000000000000804                __do_clear_bss
 *(.init4)
 *(.init5)
 *(.init5)
 *(.init6)
 *(.init6)
 *(.init7)
 *(.init7)
 *(.init8)
 *(.init8)
 *(.init9)
 .init9         0x0000000000000814        0x8 /usr/lib/gcc/avr/7.3.0/../../../avr/lib/avr5/crtatmega32u4.o
 *(.init9)
 *(.text)
 .text          0x000000000000081c        0x4 /usr/lib/gcc/avr/7.3.0/../../../avr/lib/avr5/crtatmega32u4.o
                0x000000000000081c                __vector_38
                0x000000000000081c                __vector_22
                0x000000000000081c                __vector_28
                0x000000000000081c                __vector_32
                0x000000000000081c                __vector_34
                0x000000000000081c                __vector_24
                0x000000000000081c                __bad_interrupt
                0x000000000000081c                __vector_6
                0x000000000000081c                __vector_31
                0x000000000000081c                __vector_35
                0x000000000000081c                __vector_39
                0x000000000000081c                __vector_3
                0x000000000000081c                __vector_23
                0x000000000000081c                __vector_30
                0x000000000000081c                __vector_25
                0x000000000000081c                __vector_13
                0x000000000000081c                __vector_17
                0x000000000000081c                __vector_19
                0x000000000000081c                __vector_7
                0x000000000000081c                __vector_41
                0x000000000000081c                __vector_27
                0x000000000000081c                __vector_5
                0x000000000000081c                __vector_33
                0x000000000000081c                __vector_37
                0x000000000000081c                __vector_4
                0x000000000000081c                __vector_9
                0x000000000000081c                __vector_2
                0x000000000000081c                __vector_15
                0x000000000000081c                __vector_36
                0x000000000000081c                __vector_29
                0x000000000000081c                __vector_40
                0x000000000000081c                __vector_8
                0x000000000000081c                __vector_26
                0x000000000000081c                __vector_14
                0x000000000000081c                __vector_16
                0x000000000000081c                __vector_18
                0x000000000000081c                __vector_20
                0x000000000000081c                __vector_42
                0x0000000000000820                . = ALIGN (0x2)
 *(.text.*)
 .text.process_record_user
                0x0000000000000820      0x10e .build/obj_redox_rev1_base_ad_rev2/quantum/keymap_introspection.o
                0x0000000000000820                process_record_user
 .text.keycode_at_keymap_location_raw
                0x000000000000092e       0x38 .build/obj_redox_rev1_base_ad_rev2/quantum/keymap_introspection.o
                0x000000000000092e                keycode_at_keymap_location_raw
 .text.keycode_at_keymap_location
                0x0000000000000966        0x6 .build/obj_redox_rev1_base_ad_rev2/quantum/keymap_introspection.o
                0x0000000000000966                keycode_at_keymap_location
 .text.extract_mod_bits
                0x000000000000096c       0x62 .build/obj_redox_rev1_base_ad_rev2/quantum/quantum.o
                0x000000000000096c                extract_mod_bits
 .text.do_code16
                0x00000000000009ce       0x14 .build/obj_redox_rev1_base_ad_rev2/quantum/quantum.o
                0x00000000000009ce                do_code16
 .text.register_code16
                0x00000000000009e2       0x2c .build/obj_redox_rev1_base_ad_rev2/quantum/quantum.o
                0x00000000000009e2                register_code16
 .text.unregister_code16
                0x0000000000000a0e       0x2c .build/obj_redox_rev1_base_ad_rev2/quantum/quantum.o
                0x0000000000000a0e                unregister_code16
 .text.tap_code16_delay
                0x0000000000000a3a       0x34 .build/obj_redox_rev1_base_ad_rev2/quantum/quantum.o
                0x0000000000000a3a                tap_code16_delay
 .text.tap_code16
                0x0000000000000a6e       0x14 .build/obj_redox_rev1_base_ad_rev2/quantum/quantum.o
                0x0000000000000a6e                tap_code16
 .text.pre_process_record_user
                0x0000000000000a82        0x4 .build/obj_redox_rev1_base_ad_rev2/quantum/quantum.o
                0x0000000000000a82                pre_process_record_user
 .text.pre_process_record_kb
                0x0000000000000a86        0x6 .build/obj_redox_rev1_base_ad_rev2/quantum/quantum.o
                0x0000000000000a86                pre_process_record_kb
 .text.process_action_kb
                0x0000000000000a8c        0x4 .build/obj_redox_rev1_base_ad_rev2/quantum/quantum.o
                0x0000000000000a8c                process_action_kb
 .text.process_record_kb
                0x0000000000000a90        0x6 .build/obj_redox_rev1_base_ad_rev2/quantum/quantum.o
                0x0000000000000a90                process_record_kb
 .text.post_process_record_user
                0x0000000000000a96        0x2 .build/obj_redox_rev1_base_ad_rev2/quantum/quantum.o
                0x0000000000000a96                post_process_record_user
 .text.post_process_record_kb
                0x0000000000000a98        0x6 .build/obj_redox_rev1_base_ad_rev2/quantum/quantum.o
                0x0000000000000a98                post_process_record_kb
 .text.get_event_keycode
                0x0000000000000a9e       0x5c .build/obj_redox_rev1_base_ad_rev2/quantum/quantum.o
                0x0000000000000a9e                get_event_keycode
 .text.get_record_keycode
                0x0000000000000afa       0x16 .build/obj_redox_rev1_base_ad_rev2/quantum/quantum.o
                0x0000000000000afa                get_record_keycode
 .text.pre_process_record_quantum
                0x0000000000000b10       0x18 .build/obj_redox_rev1_base_ad_rev2/quantum/quantum.o
                0x0000000000000b10                pre_process_record_quantum
 .text.post_process_record_quantum
                0x0000000000000b28       0x18 .build/obj_redox_rev1_base_ad_rev2/quantum/quantum.o
                0x0000000000000b28                post_process_record_quantum
 .text.shutdown_user
                0x0000000000000b40        0x4 .build/obj_redox_rev1_base_ad_rev2/quantum/quantum.o
                0x0000000000000b40                shutdown_user
 .text.shutdown_kb
                0x0000000000000b44        0x6 .build/obj_redox_rev1_base_ad_rev2/quantum/quantum.o
                0x0000000000000b44                shutdown_kb
 .text.shutdown_quantum
                0x0000000000000b4a       0x24 .build/obj_redox_rev1_base_ad_rev2/quantum/quantum.o
                0x0000000000000b4a                shutdown_quantum
 .text.reset_keyboard
                0x0000000000000b6e        0xc .build/obj_redox_rev1_base_ad_rev2/quantum/quantum.o
                0x0000000000000b6e                reset_keyboard
 .text.soft_reset_keyboard
                0x0000000000000b7a        0xc .build/obj_redox_rev1_base_ad_rev2/quantum/quantum.o
                0x0000000000000b7a                soft_reset_keyboard
 .text.process_record_quantum
                0x0000000000000b86       0xf0 .build/obj_redox_rev1_base_ad_rev2/quantum/quantum.o
                0x0000000000000b86                process_record_quantum
 .text.suspend_power_down_quantum
                0x0000000000000c76        0xa .build/obj_redox_rev1_base_ad_rev2/quantum/quantum.o
                0x0000000000000c76                suspend_power_down_quantum
 .text.suspend_wakeup_init_quantum
                0x0000000000000c80        0xa .build/obj_redox_rev1_base_ad_rev2/quantum/quantum.o
                0x0000000000000c80                suspend_wakeup_init_quantum
 .text.led_set_user
                0x0000000000000c8a        0x2 .build/obj_redox_rev1_base_ad_rev2/quantum/led.o
                0x0000000000000c8a                led_set_user
 .text.led_update_user
                0x0000000000000c8c        0x4 .build/obj_redox_rev1_base_ad_rev2/quantum/led.o
                0x0000000000000c8c                led_update_user
 .text.led_update_ports
                0x0000000000000c90        0x2 .build/obj_redox_rev1_base_ad_rev2/quantum/led.o
                0x0000000000000c90                led_update_ports
 .text.led_update_kb
                0x0000000000000c92       0x1e .build/obj_redox_rev1_base_ad_rev2/quantum/led.o
                0x0000000000000c92                led_update_kb
 .text.led_init_ports
                0x0000000000000cb0        0x2 .build/obj_redox_rev1_base_ad_rev2/quantum/led.o
                0x0000000000000cb0                led_init_ports
 .text.led_set  0x0000000000000cb2       0x12 .build/obj_redox_rev1_base_ad_rev2/quantum/led.o
                0x0000000000000cb2                led_set
 .text.led_suspend
                0x0000000000000cc4        0x8 .build/obj_redox_rev1_base_ad_rev2/quantum/led.o
                0x0000000000000cc4                led_suspend
 .text.led_wakeup
                0x0000000000000ccc        0xa .build/obj_redox_rev1_base_ad_rev2/quantum/led.o
                0x0000000000000ccc                led_wakeup
 .text.led_task
                0x0000000000000cd6       0x32 .build/obj_redox_rev1_base_ad_rev2/quantum/led.o
                0x0000000000000cd6                led_task
 .text.action_exec
                0x0000000000000d08       0x60 .build/obj_redox_rev1_base_ad_rev2/quantum/action.o
                0x0000000000000d08                action_exec
 .text.process_record_tap_hint
                0x0000000000000d68       0x12 .build/obj_redox_rev1_base_ad_rev2/quantum/action.o
                0x0000000000000d68                process_record_tap_hint
 .text.register_mouse
                0x0000000000000d7a       0x14 .build/obj_redox_rev1_base_ad_rev2/quantum/action.o
                0x0000000000000d7a                register_mouse
 .text.register_code
                0x0000000000000d8e      0x126 .build/obj_redox_rev1_base_ad_rev2/quantum/action.o
                0x0000000000000d8e                register_code
 .text.unregister_code
                0x0000000000000eb4       0xb4 .build/obj_redox_rev1_base_ad_rev2/quantum/action.o
                0x0000000000000eb4                unregister_code
 .text.tap_code_delay
                0x0000000000000f68       0x30 .build/obj_redox_rev1_base_ad_rev2/quantum/action.o
                0x0000000000000f68                tap_code_delay
 .text.tap_code
                0x0000000000000f98       0x12 .build/obj_redox_rev1_base_ad_rev2/quantum/action.o
                0x0000000000000f98                tap_code
 .text.register_mods
                0x0000000000000faa        0xe .build/obj_redox_rev1_base_ad_rev2/quantum/action.o
                0x0000000000000faa                register_mods
 .text.unregister_mods
                0x0000000000000fb8        0xe .build/obj_redox_rev1_base_ad_rev2/quantum/action.o
                0x0000000000000fb8                unregister_mods
 .text.process_action
                0x0000000000000fc6      0x41a .build/obj_redox_rev1_base_ad_rev2/quantum/action.o
                0x0000000000000fc6                process_action
 .text.process_record_handler
                0x00000000000013e0       0x30 .build/obj_redox_rev1_base_ad_rev2/quantum/action.o
                0x00000000000013e0                process_record_handler
 .text.process_record
                0x0000000000001410       0x46 .build/obj_redox_rev1_base_ad_rev2/quantum/action.o
                0x0000000000001410                process_record
 .text.register_weak_mods
                0x0000000000001456        0xe .build/obj_redox_rev1_base_ad_rev2/quantum/action.o
                0x0000000000001456                register_weak_mods
 .text.unregister_weak_mods
                0x0000000000001464        0xe .build/obj_redox_rev1_base_ad_rev2/quantum/action.o
                0x0000000000001464                unregister_weak_mods
 .text.clear_keyboard_but_mods_and_keys
                0x0000000000001472       0x22 .build/obj_redox_rev1_base_ad_rev2/quantum/action.o
                0x0000000000001472                clear_keyboard_but_mods_and_keys
 .text.clear_keyboard_but_mods
                0x0000000000001494        0xa .build/obj_redox_rev1_base_ad_rev2/quantum/action.o
                0x0000000000001494                clear_keyboard_but_mods
 .text.clear_keyboard
                0x000000000000149e        0xa .build/obj_redox_rev1_base_ad_rev2/quantum/action.o
                0x000000000000149e                clear_keyboard
 .text.is_tap_action
                0x00000000000014a8       0x34 .build/obj_redox_rev1_base_ad_rev2/quantum/action.o
                0x00000000000014a8                is_tap_action
 .text.is_tap_record
                0x00000000000014dc       0x1a .build/obj_redox_rev1_base_ad_rev2/quantum/action.o
                0x00000000000014dc                is_tap_record
 .text.debug_event
                0x00000000000014f6       0x14 .build/obj_redox_rev1_base_ad_rev2/quantum/action.o
                0x00000000000014f6                debug_event
 .text.debug_record
                0x000000000000150a       0x14 .build/obj_redox_rev1_base_ad_rev2/quantum/action.o
                0x000000000000150a                debug_record
 .text.default_layer_state_set_user
                0x000000000000151e        0x2 .build/obj_redox_rev1_base_ad_rev2/quantum/action_layer.o
                0x000000000000151e                default_layer_state_set_user
 .text.default_layer_state_set_kb
                0x0000000000001520        0x6 .build/obj_redox_rev1_base_ad_rev2/quantum/action_layer.o
                0x0000000000001520                default_layer_state_set_kb
 .text.default_layer_state_set
                0x0000000000001526        0xe .build/obj_redox_rev1_base_ad_rev2/quantum/action_layer.o
 .text.default_layer_debug
                0x0000000000001534        0x2 .build/obj_redox_rev1_base_ad_rev2/quantum/action_layer.o
                0x0000000000001534                default_layer_debug
 .text.default_layer_set
                0x0000000000001536        0x6 .build/obj_redox_rev1_base_ad_rev2/quantum/action_layer.o
                0x0000000000001536                default_layer_set
 .text.default_layer_or
                0x000000000000153c       0x12 .build/obj_redox_rev1_base_ad_rev2/quantum/action_layer.o
                0x000000000000153c                default_layer_or
 .text.default_layer_and
                0x000000000000154e       0x12 .build/obj_redox_rev1_base_ad_rev2/quantum/action_layer.o
                0x000000000000154e                default_layer_and
 .text.default_layer_xor
                0x0000000000001560       0x12 .build/obj_redox_rev1_base_ad_rev2/quantum/action_layer.o
                0x0000000000001560                default_layer_xor
 .text.layer_state_set_user
                0x0000000000001572        0x6 .build/obj_redox_rev1_base_ad_rev2/quantum/action_layer.o
                0x0000000000001572                layer_state_set_user
 .text.layer_state_set_kb
                0x0000000000001578        0x6 .build/obj_redox_rev1_base_ad_rev2/quantum/action_layer.o
                0x0000000000001578                layer_state_set_kb
 .text.layer_state_set
                0x000000000000157e        0xe .build/obj_redox_rev1_base_ad_rev2/quantum/action_layer.o
                0x000000000000157e                layer_state_set
 .text.layer_clear
                0x000000000000158c        0xa .build/obj_redox_rev1_base_ad_rev2/quantum/action_layer.o
                0x000000000000158c                layer_clear
 .text.layer_move
                0x0000000000001596       0x18 .build/obj_redox_rev1_base_ad_rev2/quantum/action_layer.o
                0x0000000000001596                layer_move
 .text.layer_on
                0x00000000000015ae       0x20 .build/obj_redox_rev1_base_ad_rev2/quantum/action_layer.o
                0x00000000000015ae                layer_on
 .text.layer_off
                0x00000000000015ce       0x24 .build/obj_redox_rev1_base_ad_rev2/quantum/action_layer.o
                0x00000000000015ce                layer_off
 .text.layer_invert
                0x00000000000015f2       0x20 .build/obj_redox_rev1_base_ad_rev2/quantum/action_layer.o
                0x00000000000015f2                layer_invert
 .text.layer_or
                0x0000000000001612       0x12 .build/obj_redox_rev1_base_ad_rev2/quantum/action_layer.o
                0x0000000000001612                layer_or
 .text.layer_and
                0x0000000000001624       0x12 .build/obj_redox_rev1_base_ad_rev2/quantum/action_layer.o
                0x0000000000001624                layer_and
 .text.layer_xor
                0x0000000000001636       0x12 .build/obj_redox_rev1_base_ad_rev2/quantum/action_layer.o
                0x0000000000001636                layer_xor
 .text.layer_debug
                0x0000000000001648        0x2 .build/obj_redox_rev1_base_ad_rev2/quantum/action_layer.o
                0x0000000000001648                layer_debug
 .text.update_source_layers_cache_impl
                0x000000000000164a       0x5a .build/obj_redox_rev1_base_ad_rev2/quantum/action_layer.o
                0x000000000000164a                update_source_layers_cache_impl
 .text.read_source_layers_cache_impl
                0x00000000000016a4       0x4e .build/obj_redox_rev1_base_ad_rev2/quantum/action_layer.o
                0x00000000000016a4                read_source_layers_cache_impl
 .text.update_source_layers_cache
                0x00000000000016f2       0x24 .build/obj_redox_rev1_base_ad_rev2/quantum/action_layer.o
                0x00000000000016f2                update_source_layers_cache
 .text.read_source_layers_cache
                0x0000000000001716       0x24 .build/obj_redox_rev1_base_ad_rev2/quantum/action_layer.o
                0x0000000000001716                read_source_layers_cache
 .text.layer_switch_get_layer
                0x000000000000173a       0x64 .build/obj_redox_rev1_base_ad_rev2/quantum/action_layer.o
                0x000000000000173a                layer_switch_get_layer
 .text.layer_switch_get_action
                0x000000000000179e       0x16 .build/obj_redox_rev1_base_ad_rev2/quantum/action_layer.o
                0x000000000000179e                layer_switch_get_action
 .text.store_or_get_action
                0x00000000000017b4       0x46 .build/obj_redox_rev1_base_ad_rev2/quantum/action_layer.o
                0x00000000000017b4                store_or_get_action
 .text.debug_waiting_buffer
                0x00000000000017fa       0x44 .build/obj_redox_rev1_base_ad_rev2/quantum/action_tapping.o
 .text.debug_tapping_key
                0x000000000000183e       0x22 .build/obj_redox_rev1_base_ad_rev2/quantum/action_tapping.o
 .text.waiting_buffer_scan_tap
                0x0000000000001860       0xb6 .build/obj_redox_rev1_base_ad_rev2/quantum/action_tapping.o
 .text.waiting_buffer_typed.isra.2.constprop.3
                0x0000000000001916       0x3e .build/obj_redox_rev1_base_ad_rev2/quantum/action_tapping.o
 .text.process_tapping
                0x0000000000001954      0x312 .build/obj_redox_rev1_base_ad_rev2/quantum/action_tapping.o
 .text.action_tapping_process
                0x0000000000001c66      0x10a .build/obj_redox_rev1_base_ad_rev2/quantum/action_tapping.o
                0x0000000000001c66                action_tapping_process
 .text.get_oneshot_layer
                0x0000000000001d70        0xc .build/obj_redox_rev1_base_ad_rev2/quantum/action_util.o
                0x0000000000001d70                get_oneshot_layer
 .text.get_oneshot_layer_state
                0x0000000000001d7c        0x8 .build/obj_redox_rev1_base_ad_rev2/quantum/action_util.o
                0x0000000000001d7c                get_oneshot_layer_state
 .text.is_oneshot_layer_active
                0x0000000000001d84        0xe .build/obj_redox_rev1_base_ad_rev2/quantum/action_util.o
                0x0000000000001d84                is_oneshot_layer_active
 .text.get_mods
                0x0000000000001d92        0x6 .build/obj_redox_rev1_base_ad_rev2/quantum/action_util.o
                0x0000000000001d92                get_mods
 .text.add_mods
                0x0000000000001d98        0xc .build/obj_redox_rev1_base_ad_rev2/quantum/action_util.o
                0x0000000000001d98                add_mods
 .text.del_mods
                0x0000000000001da4       0x10 .build/obj_redox_rev1_base_ad_rev2/quantum/action_util.o
                0x0000000000001da4                del_mods
 .text.set_mods
                0x0000000000001db4        0x6 .build/obj_redox_rev1_base_ad_rev2/quantum/action_util.o
                0x0000000000001db4                set_mods
 .text.clear_mods
                0x0000000000001dba        0x6 .build/obj_redox_rev1_base_ad_rev2/quantum/action_util.o
                0x0000000000001dba                clear_mods
 .text.get_weak_mods
                0x0000000000001dc0        0x6 .build/obj_redox_rev1_base_ad_rev2/quantum/action_util.o
                0x0000000000001dc0                get_weak_mods
 .text.add_weak_mods
                0x0000000000001dc6        0xc .build/obj_redox_rev1_base_ad_rev2/quantum/action_util.o
                0x0000000000001dc6                add_weak_mods
 .text.del_weak_mods
                0x0000000000001dd2       0x10 .build/obj_redox_rev1_base_ad_rev2/quantum/action_util.o
                0x0000000000001dd2                del_weak_mods
 .text.clear_weak_mods
                0x0000000000001de2        0x6 .build/obj_redox_rev1_base_ad_rev2/quantum/action_util.o
                0x0000000000001de2                clear_weak_mods
 .text.get_oneshot_mods
                0x0000000000001de8        0x6 .build/obj_redox_rev1_base_ad_rev2/quantum/action_util.o
                0x0000000000001de8                get_oneshot_mods
 .text.oneshot_locked_mods_changed_user
                0x0000000000001dee        0x2 .build/obj_redox_rev1_base_ad_rev2/quantum/action_util.o
                0x0000000000001dee                oneshot_locked_mods_changed_user
 .text.oneshot_locked_mods_changed_kb
                0x0000000000001df0        0x6 .build/obj_redox_rev1_base_ad_rev2/quantum/action_util.o
                0x0000000000001df0                oneshot_locked_mods_changed_kb
 .text.del_oneshot_locked_mods
                0x0000000000001df6       0x18 .build/obj_redox_rev1_base_ad_rev2/quantum/action_util.o
                0x0000000000001df6                del_oneshot_locked_mods
 .text.oneshot_mods_changed_user
                0x0000000000001e0e        0x2 .build/obj_redox_rev1_base_ad_rev2/quantum/action_util.o
                0x0000000000001e0e                oneshot_mods_changed_user
 .text.oneshot_mods_changed_kb
                0x0000000000001e10        0x6 .build/obj_redox_rev1_base_ad_rev2/quantum/action_util.o
                0x0000000000001e10                oneshot_mods_changed_kb
 .text.add_oneshot_mods
                0x0000000000001e16       0x18 .build/obj_redox_rev1_base_ad_rev2/quantum/action_util.o
                0x0000000000001e16                add_oneshot_mods
 .text.del_oneshot_mods
                0x0000000000001e2e       0x18 .build/obj_redox_rev1_base_ad_rev2/quantum/action_util.o
                0x0000000000001e2e                del_oneshot_mods
 .text.clear_oneshot_mods
                0x0000000000001e46       0x14 .build/obj_redox_rev1_base_ad_rev2/quantum/action_util.o
                0x0000000000001e46                clear_oneshot_mods
 .text.get_mods_for_report
                0x0000000000001e5a       0x26 .build/obj_redox_rev1_base_ad_rev2/quantum/action_util.o
 .text.send_6kro_report
                0x0000000000001e80       0x48 .build/obj_redox_rev1_base_ad_rev2/quantum/action_util.o
                0x0000000000001e80                send_6kro_report
 .text.send_nkro_report
                0x0000000000001ec8       0x48 .build/obj_redox_rev1_base_ad_rev2/quantum/action_util.o
                0x0000000000001ec8                send_nkro_report
 .text.send_keyboard_report
                0x0000000000001f10       0x1c .build/obj_redox_rev1_base_ad_rev2/quantum/action_util.o
                0x0000000000001f10                send_keyboard_report
 .text.oneshot_layer_changed_user
                0x0000000000001f2c        0x2 .build/obj_redox_rev1_base_ad_rev2/quantum/action_util.o
                0x0000000000001f2c                oneshot_layer_changed_user
 .text.oneshot_layer_changed_kb
                0x0000000000001f2e        0x6 .build/obj_redox_rev1_base_ad_rev2/quantum/action_util.o
                0x0000000000001f2e                oneshot_layer_changed_kb
 .text.set_oneshot_layer
                0x0000000000001f34       0x30 .build/obj_redox_rev1_base_ad_rev2/quantum/action_util.o
                0x0000000000001f34                set_oneshot_layer
 .text.reset_oneshot_layer
                0x0000000000001f64        0xc .build/obj_redox_rev1_base_ad_rev2/quantum/action_util.o
                0x0000000000001f64                reset_oneshot_layer
 .text.clear_oneshot_layer_state
                0x0000000000001f70       0x2e .build/obj_redox_rev1_base_ad_rev2/quantum/action_util.o
                0x0000000000001f70                clear_oneshot_layer_state
 .text.oneshot_set
                0x0000000000001f9e       0x2a .build/obj_redox_rev1_base_ad_rev2/quantum/action_util.o
                0x0000000000001f9e                oneshot_set
 .text.oneshot_toggle
                0x0000000000001fc8       0x14 .build/obj_redox_rev1_base_ad_rev2/quantum/action_util.o
                0x0000000000001fc8                oneshot_toggle
 .text.oneshot_enable
                0x0000000000001fdc        0x8 .build/obj_redox_rev1_base_ad_rev2/quantum/action_util.o
                0x0000000000001fdc                oneshot_enable
 .text.oneshot_disable
                0x0000000000001fe4        0x8 .build/obj_redox_rev1_base_ad_rev2/quantum/action_util.o
                0x0000000000001fe4                oneshot_disable
 .text.eeconfig_disable
                0x0000000000001fec        0xe .build/obj_redox_rev1_base_ad_rev2/quantum/eeconfig.o
                0x0000000000001fec                eeconfig_disable
 .text.eeconfig_is_enabled
                0x0000000000001ffa       0x16 .build/obj_redox_rev1_base_ad_rev2/quantum/eeconfig.o
                0x0000000000001ffa                eeconfig_is_enabled
 .text.eeconfig_read_debug
                0x0000000000002010        0xa .build/obj_redox_rev1_base_ad_rev2/quantum/eeconfig.o
                0x0000000000002010                eeconfig_read_debug
 .text.eeconfig_read_default_layer
                0x000000000000201a        0xa .build/obj_redox_rev1_base_ad_rev2/quantum/eeconfig.o
                0x000000000000201a                eeconfig_read_default_layer
 .text.eeconfig_read_keymap
                0x0000000000002024        0xa .build/obj_redox_rev1_base_ad_rev2/quantum/eeconfig.o
                0x0000000000002024                eeconfig_read_keymap
 .text.eeconfig_update_keymap
                0x000000000000202e        0xc .build/obj_redox_rev1_base_ad_rev2/quantum/eeconfig.o
                0x000000000000202e                eeconfig_update_keymap
 .text.eeconfig_update_kb
                0x000000000000203a        0xe .build/obj_redox_rev1_base_ad_rev2/quantum/eeconfig.o
                0x000000000000203a                eeconfig_update_kb
 .text.eeconfig_update_user
                0x0000000000002048        0xe .build/obj_redox_rev1_base_ad_rev2/quantum/eeconfig.o
                0x0000000000002048                eeconfig_update_user
 .text.eeconfig_init_user
                0x0000000000002056        0xc .build/obj_redox_rev1_base_ad_rev2/quantum/eeconfig.o
                0x0000000000002056                eeconfig_init_user
 .text.eeconfig_init_kb
                0x0000000000002062       0x10 .build/obj_redox_rev1_base_ad_rev2/quantum/eeconfig.o
                0x0000000000002062                eeconfig_init_kb
 .text.eeconfig_init_quantum
                0x0000000000002072       0xbe .build/obj_redox_rev1_base_ad_rev2/quantum/eeconfig.o
                0x0000000000002072                eeconfig_init_quantum
 .text.eeconfig_init
                0x0000000000002130        0x6 .build/obj_redox_rev1_base_ad_rev2/quantum/eeconfig.o
                0x0000000000002130                eeconfig_init
 .text.eeconfig_update_handedness
                0x0000000000002136        0xc .build/obj_redox_rev1_base_ad_rev2/quantum/eeconfig.o
                0x0000000000002136                eeconfig_update_handedness
 .text.generate_tick_event
                0x0000000000002142       0x48 .build/obj_redox_rev1_base_ad_rev2/quantum/keyboard.o
 .text.last_matrix_activity_trigger
                0x000000000000218a       0x26 .build/obj_redox_rev1_base_ad_rev2/quantum/keyboard.o
                0x000000000000218a                last_matrix_activity_trigger
 .text.keyboard_pre_init_user
                0x00000000000021b0        0x2 .build/obj_redox_rev1_base_ad_rev2/quantum/keyboard.o
                0x00000000000021b0                keyboard_pre_init_user
 .text.matrix_setup
                0x00000000000021b2        0x2 .build/obj_redox_rev1_base_ad_rev2/quantum/keyboard.o
                0x00000000000021b2                matrix_setup
 .text.keyboard_pre_init_kb
                0x00000000000021b4        0x6 .build/obj_redox_rev1_base_ad_rev2/quantum/keyboard.o
                0x00000000000021b4                keyboard_pre_init_kb
 .text.keyboard_post_init_user
                0x00000000000021ba        0x2 .build/obj_redox_rev1_base_ad_rev2/quantum/keyboard.o
                0x00000000000021ba                keyboard_post_init_user
 .text.keyboard_post_init_kb
                0x00000000000021bc        0x6 .build/obj_redox_rev1_base_ad_rev2/quantum/keyboard.o
                0x00000000000021bc                keyboard_post_init_kb
 .text.matrix_can_read
                0x00000000000021c2        0x4 .build/obj_redox_rev1_base_ad_rev2/quantum/keyboard.o
                0x00000000000021c2                matrix_can_read
 .text.keyboard_setup
                0x00000000000021c6       0x12 .build/obj_redox_rev1_base_ad_rev2/quantum/keyboard.o
                0x00000000000021c6                keyboard_setup
 .text.should_process_keypress
                0x00000000000021d8        0x6 .build/obj_redox_rev1_base_ad_rev2/quantum/keyboard.o
                0x00000000000021d8                should_process_keypress
 .text.housekeeping_task_kb
                0x00000000000021de        0x2 .build/obj_redox_rev1_base_ad_rev2/quantum/keyboard.o
                0x00000000000021de                housekeeping_task_kb
 .text.housekeeping_task_user
                0x00000000000021e0        0x2 .build/obj_redox_rev1_base_ad_rev2/quantum/keyboard.o
                0x00000000000021e0                housekeeping_task_user
 .text.housekeeping_task
                0x00000000000021e2        0xa .build/obj_redox_rev1_base_ad_rev2/quantum/keyboard.o
                0x00000000000021e2                housekeeping_task
 .text.quantum_init
                0x00000000000021ec       0x3c .build/obj_redox_rev1_base_ad_rev2/quantum/keyboard.o
                0x00000000000021ec                quantum_init
 .text.keyboard_init
                0x0000000000002228       0x2e .build/obj_redox_rev1_base_ad_rev2/quantum/keyboard.o
                0x0000000000002228                keyboard_init
 .text.quantum_task
                0x0000000000002256        0xc .build/obj_redox_rev1_base_ad_rev2/quantum/keyboard.o
                0x0000000000002256                quantum_task
 .text.keyboard_task
                0x0000000000002262       0xde .build/obj_redox_rev1_base_ad_rev2/quantum/keyboard.o
                0x0000000000002262                keyboard_task
 .text.action_for_keycode
                0x0000000000002340      0x22c .build/obj_redox_rev1_base_ad_rev2/quantum/keymap_common.o
                0x0000000000002340                action_for_keycode
 .text.keymap_key_to_keycode
                0x000000000000256c       0x18 .build/obj_redox_rev1_base_ad_rev2/quantum/keymap_common.o
                0x000000000000256c                keymap_key_to_keycode
 .text.action_for_key
                0x0000000000002584        0xa .build/obj_redox_rev1_base_ad_rev2/quantum/keymap_common.o
                0x0000000000002584                action_for_key
 .text.keycode_config
                0x000000000000258e      0x148 .build/obj_redox_rev1_base_ad_rev2/quantum/keycode_config.o
                0x000000000000258e                keycode_config
 .text.mod_config
                0x00000000000026d6       0x9e .build/obj_redox_rev1_base_ad_rev2/quantum/keycode_config.o
                0x00000000000026d6                mod_config
 .text.sync_timer_init
                0x0000000000002774       0x12 .build/obj_redox_rev1_base_ad_rev2/quantum/sync_timer.o
                0x0000000000002774                sync_timer_init
 .text.sync_timer_update
                0x0000000000002786       0x3a .build/obj_redox_rev1_base_ad_rev2/quantum/sync_timer.o
                0x0000000000002786                sync_timer_update
 .text.sync_timer_read32
                0x00000000000027c0       0x34 .build/obj_redox_rev1_base_ad_rev2/quantum/sync_timer.o
                0x00000000000027c0                sync_timer_read32
 .text.sync_timer_read
                0x00000000000027f4       0x16 .build/obj_redox_rev1_base_ad_rev2/quantum/sync_timer.o
                0x00000000000027f4                sync_timer_read
 .text.sendchar
                0x000000000000280a        0x4 .build/obj_redox_rev1_base_ad_rev2/quantum/logging/sendchar.o
                0x000000000000280a                sendchar
 .text.matrix_init_user
                0x000000000000280e        0x2 .build/obj_redox_rev1_base_ad_rev2/quantum/matrix_common.o
                0x000000000000280e                matrix_init_user
 .text.matrix_init_kb
                0x0000000000002810        0x6 .build/obj_redox_rev1_base_ad_rev2/quantum/matrix_common.o
                0x0000000000002810                matrix_init_kb
 .text.matrix_scan_user
                0x0000000000002816        0x2 .build/obj_redox_rev1_base_ad_rev2/quantum/matrix_common.o
                0x0000000000002816                matrix_scan_user
 .text.matrix_scan_kb
                0x0000000000002818        0x6 .build/obj_redox_rev1_base_ad_rev2/quantum/matrix_common.o
                0x0000000000002818                matrix_scan_kb
 .text.matrix_get_row
                0x000000000000281e        0xc .build/obj_redox_rev1_base_ad_rev2/quantum/matrix_common.o
                0x000000000000281e                matrix_get_row
 .text.matrix_print
                0x000000000000282a        0x2 .build/obj_redox_rev1_base_ad_rev2/quantum/matrix_common.o
                0x000000000000282a                matrix_print
 .text.matrix_io_delay
                0x000000000000282c        0x8 .build/obj_redox_rev1_base_ad_rev2/quantum/matrix_common.o
                0x000000000000282c                matrix_io_delay
 .text.matrix_output_select_delay
                0x0000000000002834        0x4 .build/obj_redox_rev1_base_ad_rev2/quantum/matrix_common.o
                0x0000000000002834                matrix_output_select_delay
 .text.matrix_output_unselect_delay
                0x0000000000002838        0x6 .build/obj_redox_rev1_base_ad_rev2/quantum/matrix_common.o
                0x0000000000002838                matrix_output_unselect_delay
 .text.matrix_slave_scan_user
                0x000000000000283e        0x2 .build/obj_redox_rev1_base_ad_rev2/quantum/matrix_common.o
                0x000000000000283e                matrix_slave_scan_user
 .text.matrix_slave_scan_kb
                0x0000000000002840        0x6 .build/obj_redox_rev1_base_ad_rev2/quantum/matrix_common.o
                0x0000000000002840                matrix_slave_scan_kb
 .text.matrix_post_scan
                0x0000000000002846       0xb6 .build/obj_redox_rev1_base_ad_rev2/quantum/matrix_common.o
                0x0000000000002846                matrix_post_scan
 .text.setPinInputHigh_atomic
                0x00000000000028fc       0x2e .build/obj_redox_rev1_base_ad_rev2/quantum/matrix.o
 .text.matrix_init_pins
                0x000000000000292a       0x40 .build/obj_redox_rev1_base_ad_rev2/quantum/matrix.o
                0x000000000000292a                matrix_init_pins
 .text.matrix_read_cols_on_row
                0x000000000000296a       0xba .build/obj_redox_rev1_base_ad_rev2/quantum/matrix.o
                0x000000000000296a                matrix_read_cols_on_row
 .text.matrix_init
                0x0000000000002a24       0x46 .build/obj_redox_rev1_base_ad_rev2/quantum/matrix.o
                0x0000000000002a24                matrix_init
 .text.matrix_scan
                0x0000000000002a6a       0x7c .build/obj_redox_rev1_base_ad_rev2/quantum/matrix.o
                0x0000000000002a6a                matrix_scan
 .text.debounce_init
                0x0000000000002ae6        0x2 .build/obj_redox_rev1_base_ad_rev2/quantum/debounce/sym_defer_g.o
                0x0000000000002ae6                debounce_init
 .text.debounce
                0x0000000000002ae8       0x72 .build/obj_redox_rev1_base_ad_rev2/quantum/debounce/sym_defer_g.o
                0x0000000000002ae8                debounce
 .text.is_keyboard_master_impl
                0x0000000000002b5a       0x16 .build/obj_redox_rev1_base_ad_rev2/quantum/split_common/split_util.o
                0x0000000000002b5a                is_keyboard_master_impl
 .text.is_keyboard_left
                0x0000000000002b70        0x6 .build/obj_redox_rev1_base_ad_rev2/quantum/split_common/split_util.o
                0x0000000000002b70                is_keyboard_left
 .text.is_keyboard_master
                0x0000000000002b76        0x6 .build/obj_redox_rev1_base_ad_rev2/quantum/split_common/split_util.o
                0x0000000000002b76                is_keyboard_master
 .text.is_keyboard_left_impl
                0x0000000000002b7c        0x6 .build/obj_redox_rev1_base_ad_rev2/quantum/split_common/split_util.o
                0x0000000000002b7c                is_keyboard_left_impl
 .text.split_pre_init
                0x0000000000002b82       0x24 .build/obj_redox_rev1_base_ad_rev2/quantum/split_common/split_util.o
                0x0000000000002b82                split_pre_init
 .text.split_post_init
                0x0000000000002ba6        0xe .build/obj_redox_rev1_base_ad_rev2/quantum/split_common/split_util.o
                0x0000000000002ba6                split_post_init
 .text.is_transport_connected
                0x0000000000002bb4        0xe .build/obj_redox_rev1_base_ad_rev2/quantum/split_common/split_util.o
                0x0000000000002bb4                is_transport_connected
 .text.transport_master_if_connected
                0x0000000000002bc2       0x70 .build/obj_redox_rev1_base_ad_rev2/quantum/split_common/split_util.o
                0x0000000000002bc2                transport_master_if_connected
 .text.transport_master_init
                0x0000000000002c32        0x6 .build/obj_redox_rev1_base_ad_rev2/quantum/split_common/transport.o
                0x0000000000002c32                transport_master_init
 .text.transport_slave_init
                0x0000000000002c38        0x6 .build/obj_redox_rev1_base_ad_rev2/quantum/split_common/transport.o
                0x0000000000002c38                transport_slave_init
 .text.transport_execute_transaction
                0x0000000000002c3e       0x90 .build/obj_redox_rev1_base_ad_rev2/quantum/split_common/transport.o
                0x0000000000002c3e                transport_execute_transaction
 .text.transport_master
                0x0000000000002cce        0x6 .build/obj_redox_rev1_base_ad_rev2/quantum/split_common/transport.o
                0x0000000000002cce                transport_master
 .text.transport_slave
                0x0000000000002cd4        0x6 .build/obj_redox_rev1_base_ad_rev2/quantum/split_common/transport.o
                0x0000000000002cd4                transport_slave
 .text.sync_timer_handlers_master
                0x0000000000002cda       0x7c .build/obj_redox_rev1_base_ad_rev2/quantum/split_common/transactions.o
 .text.transaction_handler_master.isra.1
                0x0000000000002d56       0x66 .build/obj_redox_rev1_base_ad_rev2/quantum/split_common/transactions.o
 .text.rgblight_handlers_master
                0x0000000000002dbc       0x76 .build/obj_redox_rev1_base_ad_rev2/quantum/split_common/transactions.o
 .text.slave_matrix_handlers_master
                0x0000000000002e32       0xf6 .build/obj_redox_rev1_base_ad_rev2/quantum/split_common/transactions.o
 .text.transactions_master
                0x0000000000002f28       0x42 .build/obj_redox_rev1_base_ad_rev2/quantum/split_common/transactions.o
                0x0000000000002f28                transactions_master
 .text.transactions_slave
                0x0000000000002f6a       0x96 .build/obj_redox_rev1_base_ad_rev2/quantum/split_common/transactions.o
                0x0000000000002f6a                transactions_slave
 .text.protocol_keyboard_task
                0x0000000000003000        0x6 .build/obj_redox_rev1_base_ad_rev2/quantum/main.o
                0x0000000000003000                protocol_keyboard_task
 .text.startup.main
                0x0000000000003006       0x2a .build/obj_redox_rev1_base_ad_rev2/quantum/main.o
                0x0000000000003006                main
 .text.print_set_sendchar
                0x0000000000003030        0xa .build/obj_redox_rev1_base_ad_rev2/platforms/avr/printf.o
                0x0000000000003030                print_set_sendchar
 .text.hsv_to_rgb_impl
                0x000000000000303a      0x126 .build/obj_redox_rev1_base_ad_rev2/quantum/color.o
                0x000000000000303a                hsv_to_rgb_impl
 .text.hsv_to_rgb
                0x0000000000003160        0x8 .build/obj_redox_rev1_base_ad_rev2/quantum/color.o
                0x0000000000003160                hsv_to_rgb
 .text.rgblight_effect_dummy
                0x0000000000003168        0x2 .build/obj_redox_rev1_base_ad_rev2/quantum/rgblight/rgblight.o
 .text.rgblight_hsv_to_rgb
                0x000000000000316a        0x6 .build/obj_redox_rev1_base_ad_rev2/quantum/rgblight/rgblight.o
                0x000000000000316a                rgblight_hsv_to_rgb
 .text.sethsv_raw
                0x0000000000003170       0x1c .build/obj_redox_rev1_base_ad_rev2/quantum/rgblight/rgblight.o
                0x0000000000003170                sethsv_raw
 .text.rgblight_check_config
                0x000000000000318c       0x1e .build/obj_redox_rev1_base_ad_rev2/quantum/rgblight/rgblight.o
                0x000000000000318c                rgblight_check_config
 .text.eeconfig_read_rgblight
                0x00000000000031aa       0x64 .build/obj_redox_rev1_base_ad_rev2/quantum/rgblight/rgblight.o
                0x00000000000031aa                eeconfig_read_rgblight
 .text.eeconfig_update_rgblight
                0x000000000000320e       0x4c .build/obj_redox_rev1_base_ad_rev2/quantum/rgblight/rgblight.o
                0x000000000000320e                eeconfig_update_rgblight
 .text.eeconfig_update_rgblight_default
                0x000000000000325a       0x36 .build/obj_redox_rev1_base_ad_rev2/quantum/rgblight/rgblight.o
                0x000000000000325a                eeconfig_update_rgblight_default
 .text.rgblight_get_mode
                0x0000000000003290       0x12 .build/obj_redox_rev1_base_ad_rev2/quantum/rgblight/rgblight.o
                0x0000000000003290                rgblight_get_mode
 .text.rgblight_increase_speed_helper
                0x00000000000032a2       0x38 .build/obj_redox_rev1_base_ad_rev2/quantum/rgblight/rgblight.o
                0x00000000000032a2                rgblight_increase_speed_helper
 .text.rgblight_increase_speed
                0x00000000000032da        0x8 .build/obj_redox_rev1_base_ad_rev2/quantum/rgblight/rgblight.o
                0x00000000000032da                rgblight_increase_speed
 .text.rgblight_decrease_speed_helper
                0x00000000000032e2       0x38 .build/obj_redox_rev1_base_ad_rev2/quantum/rgblight/rgblight.o
                0x00000000000032e2                rgblight_decrease_speed_helper
 .text.rgblight_decrease_speed
                0x000000000000331a        0x8 .build/obj_redox_rev1_base_ad_rev2/quantum/rgblight/rgblight.o
                0x000000000000331a                rgblight_decrease_speed
 .text.rgblight_set
                0x0000000000003322       0x4e .build/obj_redox_rev1_base_ad_rev2/quantum/rgblight/rgblight.o
                0x0000000000003322                rgblight_set
 .text.rgblight_setrgb
                0x0000000000003370       0x32 .build/obj_redox_rev1_base_ad_rev2/quantum/rgblight/rgblight.o
                0x0000000000003370                rgblight_setrgb
 .text.rgblight_sethsv_noeeprom_old
                0x00000000000033a2       0x30 .build/obj_redox_rev1_base_ad_rev2/quantum/rgblight/rgblight.o
                0x00000000000033a2                rgblight_sethsv_noeeprom_old
 .text.rgblight_effect_breathing
                0x00000000000033d2       0x28 .build/obj_redox_rev1_base_ad_rev2/quantum/rgblight/rgblight.o
                0x00000000000033d2                rgblight_effect_breathing
 .text.rgblight_effect_rainbow_mood
                0x00000000000033fa       0x20 .build/obj_redox_rev1_base_ad_rev2/quantum/rgblight/rgblight.o
                0x00000000000033fa                rgblight_effect_rainbow_mood
 .text.rgblight_effect_rgbtest
                0x000000000000341a       0x72 .build/obj_redox_rev1_base_ad_rev2/quantum/rgblight/rgblight.o
                0x000000000000341a                rgblight_effect_rgbtest
 .text.rgblight_sethsv_eeprom_helper
                0x000000000000348c      0x120 .build/obj_redox_rev1_base_ad_rev2/quantum/rgblight/rgblight.o
                0x000000000000348c                rgblight_sethsv_eeprom_helper
 .text.rgblight_increase_hue_helper
                0x00000000000035ac       0x16 .build/obj_redox_rev1_base_ad_rev2/quantum/rgblight/rgblight.o
                0x00000000000035ac                rgblight_increase_hue_helper
 .text.rgblight_increase_hue
                0x00000000000035c2        0x8 .build/obj_redox_rev1_base_ad_rev2/quantum/rgblight/rgblight.o
                0x00000000000035c2                rgblight_increase_hue
 .text.rgblight_decrease_hue_helper
                0x00000000000035ca       0x16 .build/obj_redox_rev1_base_ad_rev2/quantum/rgblight/rgblight.o
                0x00000000000035ca                rgblight_decrease_hue_helper
 .text.rgblight_decrease_hue
                0x00000000000035e0        0x8 .build/obj_redox_rev1_base_ad_rev2/quantum/rgblight/rgblight.o
                0x00000000000035e0                rgblight_decrease_hue
 .text.rgblight_increase_sat_helper
                0x00000000000035e8       0x1a .build/obj_redox_rev1_base_ad_rev2/quantum/rgblight/rgblight.o
                0x00000000000035e8                rgblight_increase_sat_helper
 .text.rgblight_increase_sat
                0x0000000000003602        0x8 .build/obj_redox_rev1_base_ad_rev2/quantum/rgblight/rgblight.o
                0x0000000000003602                rgblight_increase_sat
 .text.rgblight_decrease_sat_helper
                0x000000000000360a       0x1a .build/obj_redox_rev1_base_ad_rev2/quantum/rgblight/rgblight.o
                0x000000000000360a                rgblight_decrease_sat_helper
 .text.rgblight_decrease_sat
                0x0000000000003624        0x8 .build/obj_redox_rev1_base_ad_rev2/quantum/rgblight/rgblight.o
                0x0000000000003624                rgblight_decrease_sat
 .text.rgblight_increase_val_helper
                0x000000000000362c       0x1a .build/obj_redox_rev1_base_ad_rev2/quantum/rgblight/rgblight.o
                0x000000000000362c                rgblight_increase_val_helper
 .text.rgblight_increase_val
                0x0000000000003646        0x8 .build/obj_redox_rev1_base_ad_rev2/quantum/rgblight/rgblight.o
                0x0000000000003646                rgblight_increase_val
 .text.rgblight_decrease_val_helper
                0x000000000000364e       0x1a .build/obj_redox_rev1_base_ad_rev2/quantum/rgblight/rgblight.o
                0x000000000000364e                rgblight_decrease_val_helper
 .text.rgblight_decrease_val
                0x0000000000003668        0x8 .build/obj_redox_rev1_base_ad_rev2/quantum/rgblight/rgblight.o
                0x0000000000003668                rgblight_decrease_val
 .text.rgblight_sethsv_noeeprom
                0x0000000000003670        0x8 .build/obj_redox_rev1_base_ad_rev2/quantum/rgblight/rgblight.o
                0x0000000000003670                rgblight_sethsv_noeeprom
 .text.rgblight_effect_rainbow_swirl
                0x0000000000003678       0x7a .build/obj_redox_rev1_base_ad_rev2/quantum/rgblight/rgblight.o
                0x0000000000003678                rgblight_effect_rainbow_swirl
 .text.rgblight_effect_snake
                0x00000000000036f2      0x11a .build/obj_redox_rev1_base_ad_rev2/quantum/rgblight/rgblight.o
                0x00000000000036f2                rgblight_effect_snake
 .text.rgblight_effect_knight
                0x000000000000380c      0x10a .build/obj_redox_rev1_base_ad_rev2/quantum/rgblight/rgblight.o
                0x000000000000380c                rgblight_effect_knight
 .text.rgblight_effect_christmas
                0x0000000000003916      0x114 .build/obj_redox_rev1_base_ad_rev2/quantum/rgblight/rgblight.o
                0x0000000000003916                rgblight_effect_christmas
 .text.rgblight_effect_alternating
                0x0000000000003a2a       0x7a .build/obj_redox_rev1_base_ad_rev2/quantum/rgblight/rgblight.o
                0x0000000000003a2a                rgblight_effect_alternating
 .text.rgblight_effect_twinkle
                0x0000000000003aa4      0x194 .build/obj_redox_rev1_base_ad_rev2/quantum/rgblight/rgblight.o
                0x0000000000003aa4                rgblight_effect_twinkle
 .text.rgblight_clear_change_flags
                0x0000000000003c38        0x6 .build/obj_redox_rev1_base_ad_rev2/quantum/rgblight/rgblight.o
                0x0000000000003c38                rgblight_clear_change_flags
 .text.rgblight_get_syncinfo
                0x0000000000003c3e       0x26 .build/obj_redox_rev1_base_ad_rev2/quantum/rgblight/rgblight.o
                0x0000000000003c3e                rgblight_get_syncinfo
 .text.rgblight_timer_init
                0x0000000000003c64        0xe .build/obj_redox_rev1_base_ad_rev2/quantum/rgblight/rgblight.o
                0x0000000000003c64                rgblight_timer_init
 .text.rgblight_disable_noeeprom
                0x0000000000003c72       0x1e .build/obj_redox_rev1_base_ad_rev2/quantum/rgblight/rgblight.o
                0x0000000000003c72                rgblight_disable_noeeprom
 .text.rgblight_disable
                0x0000000000003c90       0x30 .build/obj_redox_rev1_base_ad_rev2/quantum/rgblight/rgblight.o
                0x0000000000003c90                rgblight_disable
 .text.rgblight_timer_enable
                0x0000000000003cc0       0x38 .build/obj_redox_rev1_base_ad_rev2/quantum/rgblight/rgblight.o
                0x0000000000003cc0                rgblight_timer_enable
 .text.rgblight_mode_eeprom_helper
                0x0000000000003cf8       0x92 .build/obj_redox_rev1_base_ad_rev2/quantum/rgblight/rgblight.o
                0x0000000000003cf8                rgblight_mode_eeprom_helper
 .text.rgblight_step_helper
                0x0000000000003d8a       0x1a .build/obj_redox_rev1_base_ad_rev2/quantum/rgblight/rgblight.o
                0x0000000000003d8a                rgblight_step_helper
 .text.rgblight_step
                0x0000000000003da4        0x8 .build/obj_redox_rev1_base_ad_rev2/quantum/rgblight/rgblight.o
                0x0000000000003da4                rgblight_step
 .text.rgblight_step_reverse_helper
                0x0000000000003dac       0x18 .build/obj_redox_rev1_base_ad_rev2/quantum/rgblight/rgblight.o
                0x0000000000003dac                rgblight_step_reverse_helper
 .text.rgblight_step_reverse
                0x0000000000003dc4        0x8 .build/obj_redox_rev1_base_ad_rev2/quantum/rgblight/rgblight.o
                0x0000000000003dc4                rgblight_step_reverse
 .text.rgblight_mode
                0x0000000000003dcc        0x8 .build/obj_redox_rev1_base_ad_rev2/quantum/rgblight/rgblight.o
                0x0000000000003dcc                rgblight_mode
 .text.rgblight_enable
                0x0000000000003dd4       0x14 .build/obj_redox_rev1_base_ad_rev2/quantum/rgblight/rgblight.o
                0x0000000000003dd4                rgblight_enable
 .text.rgblight_toggle
                0x0000000000003de8       0x14 .build/obj_redox_rev1_base_ad_rev2/quantum/rgblight/rgblight.o
                0x0000000000003de8                rgblight_toggle
 .text.rgblight_mode_noeeprom
                0x0000000000003dfc        0x8 .build/obj_redox_rev1_base_ad_rev2/quantum/rgblight/rgblight.o
                0x0000000000003dfc                rgblight_mode_noeeprom
 .text.rgblight_init
                0x0000000000003e04       0x8c .build/obj_redox_rev1_base_ad_rev2/quantum/rgblight/rgblight.o
                0x0000000000003e04                rgblight_init
 .text.rgblight_update_sync
                0x0000000000003e90       0x6c .build/obj_redox_rev1_base_ad_rev2/quantum/rgblight/rgblight.o
                0x0000000000003e90                rgblight_update_sync
 .text.rgblight_timer_task
                0x0000000000003efc      0x19c .build/obj_redox_rev1_base_ad_rev2/quantum/rgblight/rgblight.o
                0x0000000000003efc                rgblight_timer_task
 .text.preprocess_rgblight
                0x0000000000004098        0x2 .build/obj_redox_rev1_base_ad_rev2/quantum/rgblight/rgblight.o
                0x0000000000004098                preprocess_rgblight
 .text.rgblight_task
                0x000000000000409a        0x6 .build/obj_redox_rev1_base_ad_rev2/quantum/rgblight/rgblight.o
                0x000000000000409a                rgblight_task
 .text.handleKeycodeRGB
                0x00000000000040a0        0xc .build/obj_redox_rev1_base_ad_rev2/quantum/process_keycode/process_rgb.o
 .text.handleKeycodeRGBMode
                0x00000000000040ac       0x2a .build/obj_redox_rev1_base_ad_rev2/quantum/process_keycode/process_rgb.o
 .text.process_rgb
                0x00000000000040d6      0x10e .build/obj_redox_rev1_base_ad_rev2/quantum/process_keycode/process_rgb.o
                0x00000000000040d6                process_rgb
 .text.process_unicode
                0x00000000000041e4       0x1c .build/obj_redox_rev1_base_ad_rev2/quantum/process_keycode/process_unicode.o
                0x00000000000041e4                process_unicode
 .text.process_unicode_common
                0x0000000000004200       0x7e .build/obj_redox_rev1_base_ad_rev2/quantum/process_keycode/process_unicode_common.o
                0x0000000000004200                process_unicode_common
 .text.send_nibble_wrapper
                0x000000000000427e       0x2a .build/obj_redox_rev1_base_ad_rev2/quantum/unicode/unicode.o
 .text.unicode_input_mode_set_user
                0x00000000000042a8        0x2 .build/obj_redox_rev1_base_ad_rev2/quantum/unicode/unicode.o
                0x00000000000042a8                unicode_input_mode_set_user
 .text.unicode_input_mode_set_kb
                0x00000000000042aa        0x6 .build/obj_redox_rev1_base_ad_rev2/quantum/unicode/unicode.o
                0x00000000000042aa                unicode_input_mode_set_kb
 .text.cycle_unicode_input_mode
                0x00000000000042b0       0x4c .build/obj_redox_rev1_base_ad_rev2/quantum/unicode/unicode.o
 .text.unicode_input_mode_init
                0x00000000000042fc       0x38 .build/obj_redox_rev1_base_ad_rev2/quantum/unicode/unicode.o
                0x00000000000042fc                unicode_input_mode_init
 .text.set_unicode_input_mode
                0x0000000000004334       0x1c .build/obj_redox_rev1_base_ad_rev2/quantum/unicode/unicode.o
                0x0000000000004334                set_unicode_input_mode
 .text.unicode_input_mode_step
                0x0000000000004350        0x8 .build/obj_redox_rev1_base_ad_rev2/quantum/unicode/unicode.o
                0x0000000000004350                unicode_input_mode_step
 .text.unicode_input_mode_step_reverse
                0x0000000000004358        0x8 .build/obj_redox_rev1_base_ad_rev2/quantum/unicode/unicode.o
                0x0000000000004358                unicode_input_mode_step_reverse
 .text.unicode_input_start
                0x0000000000004360       0xac .build/obj_redox_rev1_base_ad_rev2/quantum/unicode/unicode.o
                0x0000000000004360                unicode_input_start
 .text.unicode_input_finish
                0x000000000000440c       0x62 .build/obj_redox_rev1_base_ad_rev2/quantum/unicode/unicode.o
                0x000000000000440c                unicode_input_finish
 .text.register_hex32
                0x000000000000446e       0x8c .build/obj_redox_rev1_base_ad_rev2/quantum/unicode/unicode.o
                0x000000000000446e                register_hex32
 .text.register_unicode
                0x00000000000044fa       0x90 .build/obj_redox_rev1_base_ad_rev2/quantum/unicode/unicode.o
                0x00000000000044fa                register_unicode
 .text.ws2812_init
                0x000000000000458a        0x4 .build/obj_redox_rev1_base_ad_rev2/ws2812_bitbang.o
                0x000000000000458a                ws2812_init
 .text.ws2812_setleds
                0x000000000000458e       0x54 .build/obj_redox_rev1_base_ad_rev2/ws2812_bitbang.o
                0x000000000000458e                ws2812_setleds
 .text.bootmagic_reset_eeprom
                0x00000000000045e2        0x6 .build/obj_redox_rev1_base_ad_rev2/quantum/bootmagic/bootmagic.o
                0x00000000000045e2                bootmagic_reset_eeprom
 .text.bootmagic_should_reset
                0x00000000000045e8        0xa .build/obj_redox_rev1_base_ad_rev2/quantum/bootmagic/bootmagic.o
                0x00000000000045e8                bootmagic_should_reset
 .text.bootmagic_scan
                0x00000000000045f2       0x2c .build/obj_redox_rev1_base_ad_rev2/quantum/bootmagic/bootmagic.o
                0x00000000000045f2                bootmagic_scan
 .text.bootmagic
                0x000000000000461e        0x6 .build/obj_redox_rev1_base_ad_rev2/quantum/bootmagic/bootmagic.o
                0x000000000000461e                bootmagic
 .text.command_common
                0x0000000000004624      0x15c .build/obj_redox_rev1_base_ad_rev2/quantum/command.o
 .text.command_extra
                0x0000000000004780        0x4 .build/obj_redox_rev1_base_ad_rev2/quantum/command.o
                0x0000000000004780                command_extra
 .text.command_console_extra
                0x0000000000004784        0x6 .build/obj_redox_rev1_base_ad_rev2/quantum/command.o
                0x0000000000004784                command_console_extra
 .text.command_proc
                0x000000000000478a      0x17c .build/obj_redox_rev1_base_ad_rev2/quantum/command.o
                0x000000000000478a                command_proc
 .text.crc_init
                0x0000000000004906        0x2 .build/obj_redox_rev1_base_ad_rev2/quantum/crc.o
                0x0000000000004906                crc_init
 .text.crc8     0x0000000000004908       0x2e .build/obj_redox_rev1_base_ad_rev2/quantum/crc.o
                0x0000000000004908                crc8
 .text.process_grave_esc
                0x0000000000004936       0x54 .build/obj_redox_rev1_base_ad_rev2/quantum/process_keycode/process_grave_esc.o
                0x0000000000004936                process_grave_esc
 .text.process_magic
                0x000000000000498a      0x1fe .build/obj_redox_rev1_base_ad_rev2/quantum/process_keycode/process_magic.o
                0x000000000000498a                process_magic
 .text.times_inv_sqrt2
                0x0000000000004b88       0x1c .build/obj_redox_rev1_base_ad_rev2/quantum/mousekey.o
 .text.move_unit
                0x0000000000004ba4       0x80 .build/obj_redox_rev1_base_ad_rev2/quantum/mousekey.o
 .text.wheel_unit
                0x0000000000004c24       0x72 .build/obj_redox_rev1_base_ad_rev2/quantum/mousekey.o
 .text.mousekey_on
                0x0000000000004c96       0xe0 .build/obj_redox_rev1_base_ad_rev2/quantum/mousekey.o
                0x0000000000004c96                mousekey_on
 .text.mousekey_off
                0x0000000000004d76       0xf8 .build/obj_redox_rev1_base_ad_rev2/quantum/mousekey.o
                0x0000000000004d76                mousekey_off
 .text.mousekey_send
                0x0000000000004e6e       0x3e .build/obj_redox_rev1_base_ad_rev2/quantum/mousekey.o
                0x0000000000004e6e                mousekey_send
 .text.mousekey_clear
                0x0000000000004eac       0x1c .build/obj_redox_rev1_base_ad_rev2/quantum/mousekey.o
                0x0000000000004eac                mousekey_clear
 .text.should_mousekey_report_send
                0x0000000000004ec8       0x28 .build/obj_redox_rev1_base_ad_rev2/quantum/mousekey.o
                0x0000000000004ec8                should_mousekey_report_send
 .text.mousekey_task
                0x0000000000004ef0      0x1e4 .build/obj_redox_rev1_base_ad_rev2/quantum/mousekey.o
                0x0000000000004ef0                mousekey_task
 .text.send_char_with_delay
                0x00000000000050d4      0x148 .build/obj_redox_rev1_base_ad_rev2/quantum/send_string/send_string.o
                0x00000000000050d4                send_char_with_delay
 .text.send_char
                0x000000000000521c        0x8 .build/obj_redox_rev1_base_ad_rev2/quantum/send_string/send_string.o
                0x000000000000521c                send_char
 .text.send_nibble
                0x0000000000005224       0x16 .build/obj_redox_rev1_base_ad_rev2/quantum/send_string/send_string.o
                0x0000000000005224                send_nibble
 .text.send_string_with_delay_P
                0x000000000000523a       0xc2 .build/obj_redox_rev1_base_ad_rev2/quantum/send_string/send_string.o
                0x000000000000523a                send_string_with_delay_P
 .text.perform_space_cadet
                0x00000000000052fc       0xd0 .build/obj_redox_rev1_base_ad_rev2/quantum/process_keycode/process_space_cadet.o
                0x00000000000052fc                perform_space_cadet
 .text.process_space_cadet
                0x00000000000053cc       0x96 .build/obj_redox_rev1_base_ad_rev2/quantum/process_keycode/process_space_cadet.o
                0x00000000000053cc                process_space_cadet
 .text._process_tap_dance_action_fn
                0x0000000000005462        0xc .build/obj_redox_rev1_base_ad_rev2/quantum/process_keycode/process_tap_dance.o
 .text.process_tap_dance_action_on_reset
                0x000000000000546e       0x32 .build/obj_redox_rev1_base_ad_rev2/quantum/process_keycode/process_tap_dance.o
 .text.process_tap_dance_action_on_dance_finished
                0x00000000000054a0       0x48 .build/obj_redox_rev1_base_ad_rev2/quantum/process_keycode/process_tap_dance.o
 .text.tap_dance_pair_on_each_tap
                0x00000000000054e8       0x24 .build/obj_redox_rev1_base_ad_rev2/quantum/process_keycode/process_tap_dance.o
                0x00000000000054e8                tap_dance_pair_on_each_tap
 .text.tap_dance_pair_finished
                0x000000000000550c        0xc .build/obj_redox_rev1_base_ad_rev2/quantum/process_keycode/process_tap_dance.o
                0x000000000000550c                tap_dance_pair_finished
 .text.tap_dance_pair_reset
                0x0000000000005518       0x20 .build/obj_redox_rev1_base_ad_rev2/quantum/process_keycode/process_tap_dance.o
                0x0000000000005518                tap_dance_pair_reset
 .text.preprocess_tap_dance
                0x0000000000005538       0x56 .build/obj_redox_rev1_base_ad_rev2/quantum/process_keycode/process_tap_dance.o
                0x0000000000005538                preprocess_tap_dance
 .text.process_tap_dance
                0x000000000000558e       0xca .build/obj_redox_rev1_base_ad_rev2/quantum/process_keycode/process_tap_dance.o
                0x000000000000558e                process_tap_dance
 .text.tap_dance_task
                0x0000000000005658       0x48 .build/obj_redox_rev1_base_ad_rev2/quantum/process_keycode/process_tap_dance.o
                0x0000000000005658                tap_dance_task
 .text.host_set_driver
                0x00000000000056a0        0xa .build/obj_redox_rev1_base_ad_rev2/protocol/host.o
                0x00000000000056a0                host_set_driver
 .text.host_keyboard_leds
                0x00000000000056aa       0x28 .build/obj_redox_rev1_base_ad_rev2/protocol/host.o
                0x00000000000056aa                host_keyboard_leds
 .text.host_keyboard_led_state
                0x00000000000056d2        0x6 .build/obj_redox_rev1_base_ad_rev2/protocol/host.o
                0x00000000000056d2                host_keyboard_led_state
 .text.host_keyboard_send
                0x00000000000056d8       0x16 .build/obj_redox_rev1_base_ad_rev2/protocol/host.o
                0x00000000000056d8                host_keyboard_send
 .text.host_nkro_send
                0x00000000000056ee       0x1c .build/obj_redox_rev1_base_ad_rev2/protocol/host.o
                0x00000000000056ee                host_nkro_send
 .text.host_mouse_send
                0x000000000000570a       0x1c .build/obj_redox_rev1_base_ad_rev2/protocol/host.o
                0x000000000000570a                host_mouse_send
 .text.host_system_send
                0x0000000000005726       0x4a .build/obj_redox_rev1_base_ad_rev2/protocol/host.o
                0x0000000000005726                host_system_send
 .text.host_consumer_send
                0x0000000000005770       0x4a .build/obj_redox_rev1_base_ad_rev2/protocol/host.o
                0x0000000000005770                host_consumer_send
 .text.has_anykey
                0x00000000000057ba       0x3c .build/obj_redox_rev1_base_ad_rev2/protocol/report.o
                0x00000000000057ba                has_anykey
 .text.is_key_pressed
                0x00000000000057f6       0x72 .build/obj_redox_rev1_base_ad_rev2/protocol/report.o
                0x00000000000057f6                is_key_pressed
 .text.add_key_byte
                0x0000000000005868       0x34 .build/obj_redox_rev1_base_ad_rev2/protocol/report.o
                0x0000000000005868                add_key_byte
 .text.del_key_byte
                0x000000000000589c       0x1a .build/obj_redox_rev1_base_ad_rev2/protocol/report.o
                0x000000000000589c                del_key_byte
 .text.add_key_bit
                0x00000000000058b6       0x28 .build/obj_redox_rev1_base_ad_rev2/protocol/report.o
                0x00000000000058b6                add_key_bit
 .text.del_key_bit
                0x00000000000058de       0x2a .build/obj_redox_rev1_base_ad_rev2/protocol/report.o
                0x00000000000058de                del_key_bit
 .text.add_key_to_report
                0x0000000000005908       0x2e .build/obj_redox_rev1_base_ad_rev2/protocol/report.o
                0x0000000000005908                add_key_to_report
 .text.del_key_from_report
                0x0000000000005936       0x2e .build/obj_redox_rev1_base_ad_rev2/protocol/report.o
                0x0000000000005936                del_key_from_report
 .text.clear_keys_from_report
                0x0000000000005964       0x34 .build/obj_redox_rev1_base_ad_rev2/protocol/report.o
                0x0000000000005964                clear_keys_from_report
 .text.has_mouse_report_changed
                0x0000000000005998       0x5a .build/obj_redox_rev1_base_ad_rev2/protocol/report.o
                0x0000000000005998                has_mouse_report_changed
 .text.notify_usb_device_state_change_user
                0x00000000000059f2        0x2 .build/obj_redox_rev1_base_ad_rev2/protocol/usb_device_state.o
                0x00000000000059f2                notify_usb_device_state_change_user
 .text.notify_usb_device_state_change_kb
                0x00000000000059f4        0x6 .build/obj_redox_rev1_base_ad_rev2/protocol/usb_device_state.o
                0x00000000000059f4                notify_usb_device_state_change_kb
 .text.usb_device_state_set_configuration
                0x00000000000059fa       0x14 .build/obj_redox_rev1_base_ad_rev2/protocol/usb_device_state.o
                0x00000000000059fa                usb_device_state_set_configuration
 .text.usb_device_state_set_suspend
                0x0000000000005a0e        0xc .build/obj_redox_rev1_base_ad_rev2/protocol/usb_device_state.o
                0x0000000000005a0e                usb_device_state_set_suspend
 .text.usb_device_state_set_resume
                0x0000000000005a1a        0x6 .build/obj_redox_rev1_base_ad_rev2/protocol/usb_device_state.o
                0x0000000000005a1a                usb_device_state_set_resume
 .text.usb_device_state_set_reset
                0x0000000000005a20        0xc .build/obj_redox_rev1_base_ad_rev2/protocol/usb_device_state.o
                0x0000000000005a20                usb_device_state_set_reset
 .text.usb_device_state_init
                0x0000000000005a2c        0x6 .build/obj_redox_rev1_base_ad_rev2/protocol/usb_device_state.o
                0x0000000000005a2c                usb_device_state_init
 .text.suspend_wakeup_init_user
                0x0000000000005a32        0x2 .build/obj_redox_rev1_base_ad_rev2/platforms/suspend.o
                0x0000000000005a32                suspend_wakeup_init_user
 .text.suspend_power_down_user
                0x0000000000005a34        0x2 .build/obj_redox_rev1_base_ad_rev2/platforms/suspend.o
                0x0000000000005a34                suspend_power_down_user
 .text.suspend_power_down_kb
                0x0000000000005a36        0x6 .build/obj_redox_rev1_base_ad_rev2/platforms/suspend.o
                0x0000000000005a36                suspend_power_down_kb
 .text.matrix_power_up
                0x0000000000005a3c        0x2 .build/obj_redox_rev1_base_ad_rev2/platforms/suspend.o
                0x0000000000005a3c                matrix_power_up
 .text.matrix_power_down
                0x0000000000005a3e        0x2 .build/obj_redox_rev1_base_ad_rev2/platforms/suspend.o
                0x0000000000005a3e                matrix_power_down
 .text.suspend_wakeup_init_kb
                0x0000000000005a40        0x6 .build/obj_redox_rev1_base_ad_rev2/platforms/suspend.o
                0x0000000000005a40                suspend_wakeup_init_kb
 .text.suspend_wakeup_condition
                0x0000000000005a46       0x28 .build/obj_redox_rev1_base_ad_rev2/platforms/suspend.o
                0x0000000000005a46                suspend_wakeup_condition
 .text.platform_setup
                0x0000000000005a6e        0xe .build/obj_redox_rev1_base_ad_rev2/platforms/avr/platform.o
                0x0000000000005a6e                platform_setup
 .text.__vector_12
                0x0000000000005a7c       0x52 .build/obj_redox_rev1_base_ad_rev2/platforms/avr/suspend.o
                0x0000000000005a7c                __vector_12
 .text.suspend_power_down
                0x0000000000005ace       0x56 .build/obj_redox_rev1_base_ad_rev2/platforms/avr/suspend.o
                0x0000000000005ace                suspend_power_down
 .text.suspend_wakeup_init
                0x0000000000005b24        0xa .build/obj_redox_rev1_base_ad_rev2/platforms/avr/suspend.o
                0x0000000000005b24                suspend_wakeup_init
 .text.timer_init
                0x0000000000005b2e       0x12 .build/obj_redox_rev1_base_ad_rev2/platforms/avr/timer.o
                0x0000000000005b2e                timer_init
 .text.timer_read
                0x0000000000005b40       0x18 .build/obj_redox_rev1_base_ad_rev2/platforms/avr/timer.o
                0x0000000000005b40                timer_read
 .text.timer_read32
                0x0000000000005b58       0x18 .build/obj_redox_rev1_base_ad_rev2/platforms/avr/timer.o
                0x0000000000005b58                timer_read32
 .text.timer_elapsed
                0x0000000000005b70       0x1e .build/obj_redox_rev1_base_ad_rev2/platforms/avr/timer.o
                0x0000000000005b70                timer_elapsed
 .text.timer_elapsed32
                0x0000000000005b8e       0x38 .build/obj_redox_rev1_base_ad_rev2/platforms/avr/timer.o
                0x0000000000005b8e                timer_elapsed32
 .text.__vector_21
                0x0000000000005bc6       0x4c .build/obj_redox_rev1_base_ad_rev2/platforms/avr/timer.o
                0x0000000000005bc6                __vector_21
 .text.bootloader_jump
                0x0000000000005c12       0x22 .build/obj_redox_rev1_base_ad_rev2/platforms/avr/bootloaders/caterina.o
                0x0000000000005c12                bootloader_jump
 .text.mcu_reset
                0x0000000000005c34       0x16 .build/obj_redox_rev1_base_ad_rev2/platforms/avr/bootloaders/caterina.o
                0x0000000000005c34                mcu_reset
 .text.sync_recv
                0x0000000000005c4a       0x10 .build/obj_redox_rev1_base_ad_rev2/serial.a(serial.o)
 .text.sync_send
                0x0000000000005c5a        0xc .build/obj_redox_rev1_base_ad_rev2/serial.a(serial.o)
 .text.serial_read_chunk.constprop.0
                0x0000000000005c66       0x54 .build/obj_redox_rev1_base_ad_rev2/serial.a(serial.o)
 .text.serial_recive_packet
                0x0000000000005cba       0x40 .build/obj_redox_rev1_base_ad_rev2/serial.a(serial.o)
 .text.soft_serial_initiator_init
                0x0000000000005cfa        0x6 .build/obj_redox_rev1_base_ad_rev2/serial.a(serial.o)
                0x0000000000005cfa                soft_serial_initiator_init
 .text.soft_serial_target_init
                0x0000000000005d00       0x12 .build/obj_redox_rev1_base_ad_rev2/serial.a(serial.o)
                0x0000000000005d00                soft_serial_target_init
 .text.serial_write_chunk
                0x0000000000005d12       0x42 .build/obj_redox_rev1_base_ad_rev2/serial.a(serial.o)
                0x0000000000005d12                serial_write_chunk
 .text.serial_send_packet
                0x0000000000005d54       0x32 .build/obj_redox_rev1_base_ad_rev2/serial.a(serial.o)
 .text.__vector_1
                0x0000000000005d86      0x14c .build/obj_redox_rev1_base_ad_rev2/serial.a(serial.o)
                0x0000000000005d86                __vector_1
 .text.soft_serial_transaction
                0x0000000000005ed2       0xee .build/obj_redox_rev1_base_ad_rev2/serial.a(serial.o)
                0x0000000000005ed2                soft_serial_transaction
 .text.keyboard_leds
                0x0000000000005fc0        0x6 .build/obj_redox_rev1_base_ad_rev2/lufa.o
 .text.send_report
                0x0000000000005fc6       0x48 .build/obj_redox_rev1_base_ad_rev2/lufa.o
                0x0000000000005fc6                send_report
 .text.send_extra
                0x000000000000600e        0xe .build/obj_redox_rev1_base_ad_rev2/lufa.o
 .text.send_mouse
                0x000000000000601c        0xe .build/obj_redox_rev1_base_ad_rev2/lufa.o
 .text.send_nkro
                0x000000000000602a        0xe .build/obj_redox_rev1_base_ad_rev2/lufa.o
 .text.send_keyboard
                0x0000000000006038       0x28 .build/obj_redox_rev1_base_ad_rev2/lufa.o
 .text.EVENT_USB_Device_Connect
                0x0000000000006060       0x1c .build/obj_redox_rev1_base_ad_rev2/lufa.o
                0x0000000000006060                EVENT_USB_Device_Connect
 .text.EVENT_USB_Device_Disconnect
                0x000000000000607c        0x6 .build/obj_redox_rev1_base_ad_rev2/lufa.o
                0x000000000000607c                EVENT_USB_Device_Disconnect
 .text.EVENT_USB_Device_Reset
                0x0000000000006082        0x6 .build/obj_redox_rev1_base_ad_rev2/lufa.o
                0x0000000000006082                EVENT_USB_Device_Reset
 .text.EVENT_USB_Device_Suspend
                0x0000000000006088       0x12 .build/obj_redox_rev1_base_ad_rev2/lufa.o
                0x0000000000006088                EVENT_USB_Device_Suspend
 .text.EVENT_USB_Device_WakeUp
                0x000000000000609a       0x16 .build/obj_redox_rev1_base_ad_rev2/lufa.o
                0x000000000000609a                EVENT_USB_Device_WakeUp
 .text.EVENT_USB_Device_ConfigurationChanged
                0x00000000000060b0       0x2a .build/obj_redox_rev1_base_ad_rev2/lufa.o
                0x00000000000060b0                EVENT_USB_Device_ConfigurationChanged
 .text.EVENT_USB_Device_ControlRequest
                0x00000000000060da      0x17a .build/obj_redox_rev1_base_ad_rev2/lufa.o
                0x00000000000060da                EVENT_USB_Device_ControlRequest
 .text.protocol_setup
                0x0000000000006254       0x34 .build/obj_redox_rev1_base_ad_rev2/lufa.o
                0x0000000000006254                protocol_setup
 .text.protocol_pre_init
                0x0000000000006288       0x1a .build/obj_redox_rev1_base_ad_rev2/lufa.o
                0x0000000000006288                protocol_pre_init
 .text.protocol_post_init
                0x00000000000062a2        0xa .build/obj_redox_rev1_base_ad_rev2/lufa.o
                0x00000000000062a2                protocol_post_init
 .text.protocol_pre_task
                0x00000000000062ac       0x34 .build/obj_redox_rev1_base_ad_rev2/lufa.o
                0x00000000000062ac                protocol_pre_task
 .text.protocol_post_task
                0x00000000000062e0        0x2 .build/obj_redox_rev1_base_ad_rev2/lufa.o
                0x00000000000062e0                protocol_post_task
 .text.CALLBACK_USB_GetDescriptor
                0x00000000000062e2       0x10 .build/obj_redox_rev1_base_ad_rev2/lufa.o
                0x00000000000062e2                CALLBACK_USB_GetDescriptor
 .text.get_usb_descriptor
                0x00000000000062f2       0xaa .build/obj_redox_rev1_base_ad_rev2/usb_descriptor.o
                0x00000000000062f2                get_usb_descriptor
 .text.USB_Device_SendRemoteWakeup
                0x000000000000639c       0x2c .build/obj_redox_rev1_base_ad_rev2/lib/lufa/LUFA/Drivers/USB/Core/AVR8/Device_AVR8.o
                0x000000000000639c                USB_Device_SendRemoteWakeup
 .text.Endpoint_Write_Stream_LE
                0x00000000000063c8       0x9e .build/obj_redox_rev1_base_ad_rev2/lib/lufa/LUFA/Drivers/USB/Core/AVR8/EndpointStream_AVR8.o
                0x00000000000063c8                Endpoint_Write_Stream_LE
 .text.Endpoint_Write_Control_Stream_LE
                0x0000000000006466       0xbe .build/obj_redox_rev1_base_ad_rev2/lib/lufa/LUFA/Drivers/USB/Core/AVR8/EndpointStream_AVR8.o
                0x0000000000006466                Endpoint_Write_Control_Stream_LE
 .text.Endpoint_Write_Control_PStream_LE
                0x0000000000006524       0xc0 .build/obj_redox_rev1_base_ad_rev2/lib/lufa/LUFA/Drivers/USB/Core/AVR8/EndpointStream_AVR8.o
                0x0000000000006524                Endpoint_Write_Control_PStream_LE
 .text.Endpoint_ConfigureEndpoint_Prv
                0x00000000000065e4       0x68 .build/obj_redox_rev1_base_ad_rev2/lib/lufa/LUFA/Drivers/USB/Core/AVR8/Endpoint_AVR8.o
                0x00000000000065e4                Endpoint_ConfigureEndpoint_Prv
 .text.Endpoint_ClearStatusStage
                0x000000000000664c       0x3e .build/obj_redox_rev1_base_ad_rev2/lib/lufa/LUFA/Drivers/USB/Core/AVR8/Endpoint_AVR8.o
                0x000000000000664c                Endpoint_ClearStatusStage
 .text.Endpoint_WaitUntilReady
                0x000000000000668a       0x5e .build/obj_redox_rev1_base_ad_rev2/lib/lufa/LUFA/Drivers/USB/Core/AVR8/Endpoint_AVR8.o
                0x000000000000668a                Endpoint_WaitUntilReady
 .text.USB_Disable
                0x00000000000066e8       0x34 .build/obj_redox_rev1_base_ad_rev2/lib/lufa/LUFA/Drivers/USB/Core/AVR8/USBController_AVR8.o
                0x00000000000066e8                USB_Disable
 .text.USB_ResetInterface
                0x000000000000671c       0x86 .build/obj_redox_rev1_base_ad_rev2/lib/lufa/LUFA/Drivers/USB/Core/AVR8/USBController_AVR8.o
                0x000000000000671c                USB_ResetInterface
 .text.USB_Init
                0x00000000000067a2       0x24 .build/obj_redox_rev1_base_ad_rev2/lib/lufa/LUFA/Drivers/USB/Core/AVR8/USBController_AVR8.o
                0x00000000000067a2                USB_Init
 .text.USB_INT_DisableAllInterrupts
                0x00000000000067c6       0x10 .build/obj_redox_rev1_base_ad_rev2/lib/lufa/LUFA/Drivers/USB/Core/AVR8/USBInterrupt_AVR8.o
                0x00000000000067c6                USB_INT_DisableAllInterrupts
 .text.USB_INT_ClearAllInterrupts
                0x00000000000067d6        0xa .build/obj_redox_rev1_base_ad_rev2/lib/lufa/LUFA/Drivers/USB/Core/AVR8/USBInterrupt_AVR8.o
                0x00000000000067d6                USB_INT_ClearAllInterrupts
 .text.__vector_10
                0x00000000000067e0      0x1a6 .build/obj_redox_rev1_base_ad_rev2/lib/lufa/LUFA/Drivers/USB/Core/AVR8/USBInterrupt_AVR8.o
                0x00000000000067e0                __vector_10
 .text.__vector_11
                0x0000000000006986       0x78 .build/obj_redox_rev1_base_ad_rev2/lib/lufa/LUFA/Drivers/USB/Core/AVR8/USBInterrupt_AVR8.o
                0x0000000000006986                __vector_11
 .text.USB_Device_ProcessControlRequest
                0x00000000000069fe      0x2a0 .build/obj_redox_rev1_base_ad_rev2/lib/lufa/LUFA/Drivers/USB/Core/DeviceStandardReq.o
                0x00000000000069fe                USB_Device_ProcessControlRequest
 .text.USB_Event_Stub
                0x0000000000006c9e        0x2 .build/obj_redox_rev1_base_ad_rev2/lib/lufa/LUFA/Drivers/USB/Core/Events.o
                0x0000000000006c9e                USB_Event_Stub
                0x0000000000006c9e                EVENT_USB_Device_StartOfFrame
 .text.USB_USBTask
                0x0000000000006ca0       0x38 .build/obj_redox_rev1_base_ad_rev2/lib/lufa/LUFA/Drivers/USB/Core/USBTask.o
                0x0000000000006ca0                USB_USBTask
 .text.usb_disconnect
                0x0000000000006cd8        0xa .build/obj_redox_rev1_base_ad_rev2/protocol/lufa/usb_util.o
                0x0000000000006cd8                usb_disconnect
 .text.usb_vbus_state
                0x0000000000006ce2       0x1a .build/obj_redox_rev1_base_ad_rev2/protocol/lufa/usb_util.o
                0x0000000000006ce2                usb_vbus_state
 .text.libgcc.div
                0x0000000000006cfc       0x18 /usr/lib/gcc/avr/7.3.0/avr5/libgcc.a(_udivmodqi4.o)
                0x0000000000006cfc                __udivmodqi4
 .text.libgcc.div
                0x0000000000006d14       0x1c /usr/lib/gcc/avr/7.3.0/avr5/libgcc.a(_divmodqi4.o)
                0x0000000000006d14                __divmodqi4
 .text.libgcc.div
                0x0000000000006d30       0x28 /usr/lib/gcc/avr/7.3.0/avr5/libgcc.a(_udivmodhi4.o)
                0x0000000000006d30                __udivmodhi4
 .text.libgcc.div
                0x0000000000006d58       0x28 /usr/lib/gcc/avr/7.3.0/avr5/libgcc.a(_divmodhi4.o)
                0x0000000000006d58                __divmodhi4
                0x0000000000006d58                _div
 .text.libgcc.div
                0x0000000000006d80       0x44 /usr/lib/gcc/avr/7.3.0/avr5/libgcc.a(_udivmodsi4.o)
                0x0000000000006d80                __udivmodsi4
 .text.libgcc   0x0000000000006dc4        0xc /usr/lib/gcc/avr/7.3.0/avr5/libgcc.a(_tablejump2.o)
                0x0000000000006dc4                __tablejump2__
 .text.libgcc.mul
                0x0000000000006dd0       0x10 /usr/lib/gcc/avr/7.3.0/avr5/libgcc.a(_mulhisi3.o)
                0x0000000000006dd0                __mulhisi3
 .text.libgcc.mul
                0x0000000000006de0       0x1e /usr/lib/gcc/avr/7.3.0/avr5/libgcc.a(_umulhisi3.o)
                0x0000000000006de0                __umulhisi3
 .text.libgcc.mul
                0x0000000000006dfe        0xe /usr/lib/gcc/avr/7.3.0/avr5/libgcc.a(_usmulhisi3.o)
                0x0000000000006dfe                __usmulhisi3
                0x0000000000006e02                __usmulhisi3_tail
 .text.libgcc.mul
                0x0000000000006e0c       0x16 /usr/lib/gcc/avr/7.3.0/avr5/libgcc.a(_muluhisi3.o)
                0x0000000000006e0c                __muluhisi3
 .text.libgcc.mul
                0x0000000000006e22       0x10 /usr/lib/gcc/avr/7.3.0/avr5/libgcc.a(_mulshisi3.o)
                0x0000000000006e22                __mulshisi3
                0x0000000000006e28                __mulohisi3
 .text.libgcc.prologue
                0x0000000000006e32       0x38 /usr/lib/gcc/avr/7.3.0/avr5/libgcc.a(_prologue.o)
                0x0000000000006e32                __prologue_saves__
 .text.libgcc.prologue
                0x0000000000006e6a       0x36 /usr/lib/gcc/avr/7.3.0/avr5/libgcc.a(_epilogue.o)
                0x0000000000006e6a                __epilogue_restores__
 .text.libgcc.builtins
                0x0000000000006ea0       0x32 /usr/lib/gcc/avr/7.3.0/avr5/libgcc.a(_ashldi3.o)
                0x0000000000006ea0                __ashldi3
 .text.libgcc.builtins
                0x0000000000006ed2       0x3a /usr/lib/gcc/avr/7.3.0/avr5/libgcc.a(_ashrdi3.o)
                0x0000000000006ed2                __ashrdi3
                0x0000000000006ed6                __lshrdi3
 .text.avr-libc
                0x0000000000006f0c       0xb8 /usr/lib/gcc/avr/7.3.0/../../../avr/lib/avr5/libc.a(rand.o)
                0x0000000000006f9e                rand_r
                0x0000000000006fa4                rand
                0x0000000000006fae                srand
 .text.avr-libc
                0x0000000000006fc4       0x1a /usr/lib/gcc/avr/7.3.0/../../../avr/lib/avr5/libc.a(memchr.o)
                0x0000000000006fc4                memchr
 .text.avr-libc
                0x0000000000006fde       0x1a /usr/lib/gcc/avr/7.3.0/../../../avr/lib/avr5/libc.a(memcmp.o)
                0x0000000000006fde                memcmp
 .text.avr-libc
                0x0000000000006ff8       0x12 /usr/lib/gcc/avr/7.3.0/../../../avr/lib/avr5/libc.a(memcpy.o)
                0x0000000000006ff8                memcpy
 .text.avr-libc
                0x000000000000700a       0x10 /usr/lib/gcc/avr/7.3.0/../../../avr/lib/avr5/libatmega32u4.a(eerd_byte.o)
                0x000000000000700a                eeprom_read_byte
 .text.avr-libc
                0x000000000000701a        0xc /usr/lib/gcc/avr/7.3.0/../../../avr/lib/avr5/libatmega32u4.a(eerd_dword.o)
                0x000000000000701a                eeprom_read_dword
                0x000000000000701a                eeprom_read_float
 .text.avr-libc
                0x0000000000007026        0xc /usr/lib/gcc/avr/7.3.0/../../../avr/lib/avr5/libatmega32u4.a(eerd_word.o)
                0x0000000000007026                eeprom_read_word
 .text.avr-libc
                0x0000000000007032       0x20 /usr/lib/gcc/avr/7.3.0/../../../avr/lib/avr5/libatmega32u4.a(eeupd_block.o)
                0x0000000000007032                eeprom_update_block
 .text.avr-libc
                0x0000000000007052       0x24 /usr/lib/gcc/avr/7.3.0/../../../avr/lib/avr5/libatmega32u4.a(eeupd_byte.o)
                0x0000000000007052                eeprom_update_byte
                0x0000000000007054                eeprom_update_r18
 .text.avr-libc
                0x0000000000007076       0x18 /usr/lib/gcc/avr/7.3.0/../../../avr/lib/avr5/libatmega32u4.a(eeupd_dword.o)
                0x0000000000007076                eeprom_update_dword
                0x0000000000007076                eeprom_update_float
 .text.avr-libc
                0x000000000000708e        0xc /usr/lib/gcc/avr/7.3.0/../../../avr/lib/avr5/libatmega32u4.a(eeupd_word.o)
                0x000000000000708e                eeprom_update_word
 .text.avr-libc
                0x000000000000709a       0x20 /usr/lib/gcc/avr/7.3.0/../../../avr/lib/avr5/libatmega32u4.a(eerd_block.o)
                0x000000000000709a                eeprom_read_block
                0x000000000000709e                eeprom_read_blraw
 .text.libgcc.div
                0x00000000000070ba       0x2e /usr/lib/gcc/avr/7.3.0/avr5/libgcc.a(_divmodsi4.o)
                0x00000000000070ba                __divmodsi4
 .text.libgcc.div
                0x00000000000070e8       0x10 /usr/lib/gcc/avr/7.3.0/avr5/libgcc.a(_negsi2.o)
                0x00000000000070e8                __negsi2
                0x00000000000070f8                . = ALIGN (0x2)
 *(.fini9)
 .fini9         0x00000000000070f8        0x0 /usr/lib/gcc/avr/7.3.0/avr5/libgcc.a(_exit.o)
                0x00000000000070f8                exit
                0x00000000000070f8                _exit
 *(.fini9)
 *(.fini8)
 *(.fini8)
 *(.fini7)
 *(.fini7)
 *(.fini6)
 *(.fini6)
 *(.fini5)
 *(.fini5)
 *(.fini4)
 *(.fini4)
 *(.fini3)
 *(.fini3)
 *(.fini2)
 *(.fini2)
 *(.fini1)
 *(.fini1)
 *(.fini0)
 .fini0         0x00000000000070f8        0x4 /usr/lib/gcc/avr/7.3.0/avr5/libgcc.a(_exit.o)
 *(.fini0)
                0x00000000000070fc                _etext = .

.data           0x0000000000800100      0x18e load address 0x00000000000070fc
                0x0000000000800100                PROVIDE (__data_start, .)
 *(.data)
 .data          0x0000000000800100        0x4 /usr/lib/gcc/avr/7.3.0/../../../avr/lib/avr5/libc.a(rand.o)
 *(.data*)
 .data.tap_dance_actions
                0x0000000000800104       0x70 .build/obj_redox_rev1_base_ad_rev2/quantum/keymap_introspection.o
                0x0000000000800104                tap_dance_actions
 .data.__compound_literal.6
                0x0000000000800174        0x4 .build/obj_redox_rev1_base_ad_rev2/quantum/keymap_introspection.o
 .data.__compound_literal.5
                0x0000000000800178        0x4 .build/obj_redox_rev1_base_ad_rev2/quantum/keymap_introspection.o
 .data.__compound_literal.4
                0x000000000080017c        0x4 .build/obj_redox_rev1_base_ad_rev2/quantum/keymap_introspection.o
 .data.__compound_literal.3
                0x0000000000800180        0x4 .build/obj_redox_rev1_base_ad_rev2/quantum/keymap_introspection.o
 .data.__compound_literal.2
                0x0000000000800184        0x4 .build/obj_redox_rev1_base_ad_rev2/quantum/keymap_introspection.o
 .data.__compound_literal.1
                0x0000000000800188        0x4 .build/obj_redox_rev1_base_ad_rev2/quantum/keymap_introspection.o
 .data.__compound_literal.0
                0x000000000080018c        0x4 .build/obj_redox_rev1_base_ad_rev2/quantum/keymap_introspection.o
 .data.nkro_report
                0x0000000000800190        0x2 .build/obj_redox_rev1_base_ad_rev2/quantum/action_util.o
                0x0000000000800190                nkro_report
 .data.keyboard_report
                0x0000000000800192        0x2 .build/obj_redox_rev1_base_ad_rev2/quantum/action_util.o
                0x0000000000800192                keyboard_report
 .data.isLeftHand
                0x0000000000800194        0x1 .build/obj_redox_rev1_base_ad_rev2/quantum/split_common/split_util.o
                0x0000000000800194                isLeftHand
 .data.split_transaction_table
                0x0000000000800195       0x20 .build/obj_redox_rev1_base_ad_rev2/quantum/split_common/transactions.o
                0x0000000000800195                split_transaction_table
 .data.increment.3611
                0x00000000008001b5        0x1 .build/obj_redox_rev1_base_ad_rev2/quantum/rgblight/rgblight.o
 .data.increment.3599
                0x00000000008001b6        0x1 .build/obj_redox_rev1_base_ad_rev2/quantum/rgblight/rgblight.o
 .data.high_bound.3598
                0x00000000008001b7        0x1 .build/obj_redox_rev1_base_ad_rev2/quantum/rgblight/rgblight.o
 .data.rgblight_ranges
                0x00000000008001b8        0x5 .build/obj_redox_rev1_base_ad_rev2/quantum/rgblight/rgblight.o
                0x00000000008001b8                rgblight_ranges
 .data.static_effect_table
                0x00000000008001bd        0xb .build/obj_redox_rev1_base_ad_rev2/quantum/rgblight/rgblight.o
 .data.mk_wheel_time_to_max
                0x00000000008001c8        0x1 .build/obj_redox_rev1_base_ad_rev2/quantum/mousekey.o
                0x00000000008001c8                mk_wheel_time_to_max
 .data.mk_wheel_max_speed
                0x00000000008001c9        0x1 .build/obj_redox_rev1_base_ad_rev2/quantum/mousekey.o
                0x00000000008001c9                mk_wheel_max_speed
 .data.mk_wheel_interval
                0x00000000008001ca        0x1 .build/obj_redox_rev1_base_ad_rev2/quantum/mousekey.o
                0x00000000008001ca                mk_wheel_interval
 .data.mk_wheel_delay
                0x00000000008001cb        0x1 .build/obj_redox_rev1_base_ad_rev2/quantum/mousekey.o
                0x00000000008001cb                mk_wheel_delay
 .data.mk_time_to_max
                0x00000000008001cc        0x1 .build/obj_redox_rev1_base_ad_rev2/quantum/mousekey.o
                0x00000000008001cc                mk_time_to_max
 .data.mk_max_speed
                0x00000000008001cd        0x1 .build/obj_redox_rev1_base_ad_rev2/quantum/mousekey.o
                0x00000000008001cd                mk_max_speed
 .data.mk_interval
                0x00000000008001ce        0x1 .build/obj_redox_rev1_base_ad_rev2/quantum/mousekey.o
                0x00000000008001ce                mk_interval
 .data.mk_delay
                0x00000000008001cf        0x1 .build/obj_redox_rev1_base_ad_rev2/quantum/mousekey.o
                0x00000000008001cf                mk_delay
 .data.lufa_driver
                0x00000000008001d0        0xa .build/obj_redox_rev1_base_ad_rev2/lufa.o
                0x00000000008001d0                lufa_driver
 .data.keyboard_protocol
                0x00000000008001da        0x1 .build/obj_redox_rev1_base_ad_rev2/lufa.o
                0x00000000008001da                keyboard_protocol
 *(.gnu.linkonce.d*)
 *(.rodata)
 *(.rodata*)
 .rodata.CSWTCH.11
                0x00000000008001db       0x36 .build/obj_redox_rev1_base_ad_rev2/quantum/action.o
 .rodata.CSWTCH.9
                0x0000000000800211        0x3 .build/obj_redox_rev1_base_ad_rev2/quantum/action.o
 .rodata.CSWTCH.4
                0x0000000000800214       0x36 .build/obj_redox_rev1_base_ad_rev2/quantum/keymap_common.o
 .rodata.CSWTCH.2
                0x000000000080024a        0x3 .build/obj_redox_rev1_base_ad_rev2/quantum/keymap_common.o
 .rodata.col_pins
                0x000000000080024d        0x7 .build/obj_redox_rev1_base_ad_rev2/quantum/matrix.o
 .rodata.row_pins
                0x0000000000800254        0x5 .build/obj_redox_rev1_base_ad_rev2/quantum/matrix.o
 .rodata.split_shmem
                0x0000000000800259        0x2 .build/obj_redox_rev1_base_ad_rev2/quantum/split_common/transport.o
                0x0000000000800259                split_shmem
 .rodata.mode_base_table
                0x000000000080025b       0x2b .build/obj_redox_rev1_base_ad_rev2/quantum/rgblight/rgblight.o
 .rodata.rgblight_driver
                0x0000000000800286        0x4 .build/obj_redox_rev1_base_ad_rev2/quantum/rgblight/rgblight_drivers.o
                0x0000000000800286                rgblight_driver
 .rodata.selected
                0x000000000080028a        0x3 .build/obj_redox_rev1_base_ad_rev2/quantum/unicode/unicode.o
 *(.gnu.linkonce.r*)
                0x000000000080028e                . = ALIGN (0x2)
 *fill*         0x000000000080028d        0x1 
                0x000000000080028e                _edata = .
                0x000000000080028e                PROVIDE (__data_end, .)

.bss            0x000000000080028e      0x1f4
                0x000000000080028e                PROVIDE (__bss_start, .)
 *(.bss)
 .bss           0x000000000080028e        0x2 .build/obj_redox_rev1_base_ad_rev2/platforms/avr/xprintf.o
                0x000000000080028e                xfunc_out
 *(.bss*)
 .bss.shift_held
                0x0000000000800290        0x1 .build/obj_redox_rev1_base_ad_rev2/quantum/keymap_introspection.o
 .bss.last_led_status.3613
                0x0000000000800291        0x1 .build/obj_redox_rev1_base_ad_rev2/quantum/led.o
 .bss.last_led_modification_time
                0x0000000000800292        0x4 .build/obj_redox_rev1_base_ad_rev2/quantum/led.o
 .bss.disable_action_cache
                0x0000000000800296        0x1 .build/obj_redox_rev1_base_ad_rev2/quantum/action.o
                0x0000000000800296                disable_action_cache
 .bss.source_layers_cache
                0x0000000000800297       0x24 .build/obj_redox_rev1_base_ad_rev2/quantum/action_layer.o
                0x0000000000800297                source_layers_cache
 .bss.layer_state
                0x00000000008002bb        0x2 .build/obj_redox_rev1_base_ad_rev2/quantum/action_layer.o
                0x00000000008002bb                layer_state
 .bss.default_layer_state
                0x00000000008002bd        0x2 .build/obj_redox_rev1_base_ad_rev2/quantum/action_layer.o
                0x00000000008002bd                default_layer_state
 .bss.waiting_buffer_tail
                0x00000000008002bf        0x1 .build/obj_redox_rev1_base_ad_rev2/quantum/action_tapping.o
 .bss.waiting_buffer_head
                0x00000000008002c0        0x1 .build/obj_redox_rev1_base_ad_rev2/quantum/action_tapping.o
 .bss.waiting_buffer
                0x00000000008002c1       0x38 .build/obj_redox_rev1_base_ad_rev2/quantum/action_tapping.o
 .bss.tapping_key
                0x00000000008002f9        0x7 .build/obj_redox_rev1_base_ad_rev2/quantum/action_tapping.o
 .bss.last_report.4338
                0x0000000000800300       0x20 .build/obj_redox_rev1_base_ad_rev2/quantum/action_util.o
 .bss.last_report.4334
                0x0000000000800320        0x8 .build/obj_redox_rev1_base_ad_rev2/quantum/action_util.o
 .bss.oneshot_layer_data
                0x0000000000800328        0x1 .build/obj_redox_rev1_base_ad_rev2/quantum/action_util.o
 .bss.oneshot_locked_mods
                0x0000000000800329        0x1 .build/obj_redox_rev1_base_ad_rev2/quantum/action_util.o
 .bss.oneshot_mods
                0x000000000080032a        0x1 .build/obj_redox_rev1_base_ad_rev2/quantum/action_util.o
 .bss.__compound_literal.1
                0x000000000080032b       0x20 .build/obj_redox_rev1_base_ad_rev2/quantum/action_util.o
 .bss.__compound_literal.0
                0x000000000080034b        0x8 .build/obj_redox_rev1_base_ad_rev2/quantum/action_util.o
 .bss.weak_mods
                0x0000000000800353        0x1 .build/obj_redox_rev1_base_ad_rev2/quantum/action_util.o
 .bss.real_mods
                0x0000000000800354        0x1 .build/obj_redox_rev1_base_ad_rev2/quantum/action_util.o
 .bss.last_tick.4765
                0x0000000000800355        0x2 .build/obj_redox_rev1_base_ad_rev2/quantum/keyboard.o
 .bss.matrix_previous.4772
                0x0000000000800357        0xa .build/obj_redox_rev1_base_ad_rev2/quantum/keyboard.o
 .bss.last_matrix_modification_time
                0x0000000000800361        0x4 .build/obj_redox_rev1_base_ad_rev2/quantum/keyboard.o
 .bss.last_input_modification_time
                0x0000000000800365        0x4 .build/obj_redox_rev1_base_ad_rev2/quantum/keyboard.o
 .bss.debug_config
                0x0000000000800369        0x1 .build/obj_redox_rev1_base_ad_rev2/quantum/logging/debug.o
                0x0000000000800369                debug_config
 .bss.last_connected.4494
                0x000000000080036a        0x1 .build/obj_redox_rev1_base_ad_rev2/quantum/matrix_common.o
 .bss.debouncing_time
                0x000000000080036b        0x2 .build/obj_redox_rev1_base_ad_rev2/quantum/debounce/sym_defer_g.o
 .bss.debouncing
                0x000000000080036d        0x1 .build/obj_redox_rev1_base_ad_rev2/quantum/debounce/sym_defer_g.o
 .bss.connection_check_timer.4324
                0x000000000080036e        0x2 .build/obj_redox_rev1_base_ad_rev2/quantum/split_common/split_util.o
 .bss.split_config
                0x0000000000800370        0x2 .build/obj_redox_rev1_base_ad_rev2/quantum/split_common/split_util.o
 .bss.connection_errors
                0x0000000000800372        0x1 .build/obj_redox_rev1_base_ad_rev2/quantum/split_common/split_util.o
 .bss.shared_memory
                0x0000000000800373       0x15 .build/obj_redox_rev1_base_ad_rev2/quantum/split_common/transport.o
 .bss.last_sync_timer.4903
                0x0000000000800388        0x4 .build/obj_redox_rev1_base_ad_rev2/quantum/split_common/transactions.o
 .bss.last_matrix.4885
                0x000000000080038c        0x5 .build/obj_redox_rev1_base_ad_rev2/quantum/split_common/transactions.o
 .bss.last_update.4884
                0x0000000000800391        0x4 .build/obj_redox_rev1_base_ad_rev2/quantum/split_common/transactions.o
 .bss.last_update.4896
                0x0000000000800395        0x4 .build/obj_redox_rev1_base_ad_rev2/quantum/split_common/transactions.o
 .bss.last_update.4908
                0x0000000000800399        0x4 .build/obj_redox_rev1_base_ad_rev2/quantum/split_common/transactions.o
 .bss.maxval.3626
                0x000000000080039d        0x1 .build/obj_redox_rev1_base_ad_rev2/quantum/rgblight/rgblight.o
 .bss.low_bound.3597
                0x000000000080039e        0x1 .build/obj_redox_rev1_base_ad_rev2/quantum/rgblight/rgblight.o
 .bss.pos.3581  0x000000000080039f        0x1 .build/obj_redox_rev1_base_ad_rev2/quantum/rgblight/rgblight.o
 .bss.report_last_timer.3548
                0x00000000008003a0        0x2 .build/obj_redox_rev1_base_ad_rev2/quantum/rgblight/rgblight.o
 .bss.tick_flag.3549
                0x00000000008003a2        0x1 .build/obj_redox_rev1_base_ad_rev2/quantum/rgblight/rgblight.o
 .bss.led_twinkle_state
                0x00000000008003a3       0x46 .build/obj_redox_rev1_base_ad_rev2/quantum/rgblight/rgblight.o
 .bss.animation_status
                0x00000000008003e9        0x6 .build/obj_redox_rev1_base_ad_rev2/quantum/rgblight/rgblight.o
                0x00000000008003e9                animation_status
 .bss.is_rgblight_initialized
                0x00000000008003ef        0x1 .build/obj_redox_rev1_base_ad_rev2/quantum/rgblight/rgblight.o
                0x00000000008003ef                is_rgblight_initialized
 .bss.rgblight_status
                0x00000000008003f0        0x3 .build/obj_redox_rev1_base_ad_rev2/quantum/rgblight/rgblight.o
                0x00000000008003f0                rgblight_status
 .bss.selected_index
                0x00000000008003f3        0x1 .build/obj_redox_rev1_base_ad_rev2/quantum/unicode/unicode.o
 .bss.pp.5400   0x00000000008003f4        0x2 .build/obj_redox_rev1_base_ad_rev2/quantum/command.o
 .bss.param.5399
                0x00000000008003f6        0x1 .build/obj_redox_rev1_base_ad_rev2/quantum/command.o
 .bss.command_state
                0x00000000008003f7        0x1 .build/obj_redox_rev1_base_ad_rev2/quantum/command.o
                0x00000000008003f7                command_state
 .bss.grave_esc_was_shifted
                0x00000000008003f8        0x1 .build/obj_redox_rev1_base_ad_rev2/quantum/process_keycode/process_grave_esc.o
 .bss.last_timer_w
                0x00000000008003f9        0x2 .build/obj_redox_rev1_base_ad_rev2/quantum/mousekey.o
 .bss.last_timer_c
                0x00000000008003fb        0x2 .build/obj_redox_rev1_base_ad_rev2/quantum/mousekey.o
 .bss.mousekey_wheel_repeat
                0x00000000008003fd        0x1 .build/obj_redox_rev1_base_ad_rev2/quantum/mousekey.o
 .bss.mousekey_repeat
                0x00000000008003fe        0x1 .build/obj_redox_rev1_base_ad_rev2/quantum/mousekey.o
 .bss.mousekey_accel
                0x00000000008003ff        0x1 .build/obj_redox_rev1_base_ad_rev2/quantum/mousekey.o
 .bss.mouse_report
                0x0000000000800400        0x6 .build/obj_redox_rev1_base_ad_rev2/quantum/mousekey.o
 .bss.sc_timer  0x0000000000800406        0x2 .build/obj_redox_rev1_base_ad_rev2/quantum/process_keycode/process_space_cadet.o
 .bss.sc_last   0x0000000000800408        0x1 .build/obj_redox_rev1_base_ad_rev2/quantum/process_keycode/process_space_cadet.o
 .bss.last_tap_time
                0x0000000000800409        0x2 .build/obj_redox_rev1_base_ad_rev2/quantum/process_keycode/process_tap_dance.o
 .bss.active_td
                0x000000000080040b        0x2 .build/obj_redox_rev1_base_ad_rev2/quantum/process_keycode/process_tap_dance.o
 .bss.split_led_state
                0x000000000080040d        0x1 .build/obj_redox_rev1_base_ad_rev2/protocol/host.o
                0x000000000080040d                split_led_state
 .bss.last_consumer_usage
                0x000000000080040e        0x2 .build/obj_redox_rev1_base_ad_rev2/protocol/host.o
 .bss.last_system_usage
                0x0000000000800410        0x2 .build/obj_redox_rev1_base_ad_rev2/protocol/host.o
 .bss.driver    0x0000000000800412        0x2 .build/obj_redox_rev1_base_ad_rev2/protocol/host.o
 .bss.usb_device_state
                0x0000000000800414        0x1 .build/obj_redox_rev1_base_ad_rev2/protocol/usb_device_state.o
                0x0000000000800414                usb_device_state
 .bss.wdt_timeout
                0x0000000000800415        0x1 .build/obj_redox_rev1_base_ad_rev2/platforms/avr/suspend.o
 .bss.keyboard_report_sent
                0x0000000000800416        0x8 .build/obj_redox_rev1_base_ad_rev2/lufa.o
 .bss.keyboard_led_state
                0x000000000080041e        0x1 .build/obj_redox_rev1_base_ad_rev2/lufa.o
 .bss.keyboard_idle
                0x000000000080041f        0x1 .build/obj_redox_rev1_base_ad_rev2/lufa.o
                0x000000000080041f                keyboard_idle
 *(COMMON)
 COMMON         0x0000000000800420        0x2 .build/obj_redox_rev1_base_ad_rev2/quantum/keycode_config.o
                0x0000000000800420                keymap_config
 COMMON         0x0000000000800422        0x4 .build/obj_redox_rev1_base_ad_rev2/quantum/sync_timer.o
                0x0000000000800422                sync_timer_ms
 COMMON         0x0000000000800426       0x16 .build/obj_redox_rev1_base_ad_rev2/quantum/matrix_common.o
                0x0000000000800426                thatHand
                0x0000000000800427                raw_matrix
                0x0000000000800431                matrix
                0x000000000080043b                thisHand
 COMMON         0x000000000080043c       0x32 .build/obj_redox_rev1_base_ad_rev2/quantum/rgblight/rgblight.o
                0x000000000080043c                rgblight_config
                0x0000000000800444                led
 COMMON         0x000000000080046e        0x3 .build/obj_redox_rev1_base_ad_rev2/quantum/unicode/unicode.o
                0x000000000080046e                unicode_saved_led_state
                0x000000000080046f                unicode_config
                0x0000000000800470                unicode_saved_mods
 COMMON         0x0000000000800471        0x4 .build/obj_redox_rev1_base_ad_rev2/platforms/avr/timer.o
                0x0000000000800471                timer_count
 COMMON         0x0000000000800475        0x3 .build/obj_redox_rev1_base_ad_rev2/lib/lufa/LUFA/Drivers/USB/Core/DeviceStandardReq.o
                0x0000000000800475                USB_Device_ConfigurationNumber
                0x0000000000800476                USB_Device_CurrentlySelfPowered
                0x0000000000800477                USB_Device_RemoteWakeupEnabled
 COMMON         0x0000000000800478        0xa .build/obj_redox_rev1_base_ad_rev2/lib/lufa/LUFA/Drivers/USB/Core/USBTask.o
                0x0000000000800478                USB_IsInitialized
                0x0000000000800479                USB_DeviceState
                0x000000000080047a                USB_ControlRequest
                0x0000000000800482                PROVIDE (__bss_end, .)
                0x00000000000070fc                __data_load_start = LOADADDR (.data)
                0x000000000000728a                __data_load_end = (__data_load_start + SIZEOF (.data))

.noinit         0x0000000000800482        0x0
                [!provide]                        PROVIDE (__noinit_start, .)
 *(.noinit*)
                [!provide]                        PROVIDE (__noinit_end, .)
                0x0000000000800482                _end = .
                [!provide]                        PROVIDE (__heap_start, .)

.eeprom         0x0000000000810000        0x0
 *(.eeprom*)
                0x0000000000810000                __eeprom_end = .

.fuse
 *(.fuse)
 *(.lfuse)
 *(.hfuse)
 *(.efuse)

.lock
 *(.lock*)

.signature
 *(.signature*)

.user_signatures
 *(.user_signatures*)

.stab
 *(.stab)

.stabstr
 *(.stabstr)

.stab.excl
 *(.stab.excl)

.stab.exclstr
 *(.stab.exclstr)

.stab.index
 *(.stab.index)

.stab.indexstr
 *(.stab.indexstr)

.comment        0x0000000000000000       0x11
 *(.comment)
 .comment       0x0000000000000000       0x11 .build/obj_redox_rev1_base_ad_rev2/quantum/keymap_introspection.o
                                         0x12 (size before relaxing)
 .comment       0x0000000000000011       0x12 .build/obj_redox_rev1_base_ad_rev2/quantum/quantum.o
 .comment       0x0000000000000011       0x12 .build/obj_redox_rev1_base_ad_rev2/quantum/led.o
 .comment       0x0000000000000011       0x12 .build/obj_redox_rev1_base_ad_rev2/quantum/action.o
 .comment       0x0000000000000011       0x12 .build/obj_redox_rev1_base_ad_rev2/quantum/action_layer.o
 .comment       0x0000000000000011       0x12 .build/obj_redox_rev1_base_ad_rev2/quantum/action_tapping.o
 .comment       0x0000000000000011       0x12 .build/obj_redox_rev1_base_ad_rev2/quantum/action_util.o
 .comment       0x0000000000000011       0x12 .build/obj_redox_rev1_base_ad_rev2/quantum/eeconfig.o
 .comment       0x0000000000000011       0x12 .build/obj_redox_rev1_base_ad_rev2/quantum/keyboard.o
 .comment       0x0000000000000011       0x12 .build/obj_redox_rev1_base_ad_rev2/quantum/keymap_common.o
 .comment       0x0000000000000011       0x12 .build/obj_redox_rev1_base_ad_rev2/quantum/keycode_config.o
 .comment       0x0000000000000011       0x12 .build/obj_redox_rev1_base_ad_rev2/quantum/sync_timer.o
 .comment       0x0000000000000011       0x12 .build/obj_redox_rev1_base_ad_rev2/quantum/logging/debug.o
 .comment       0x0000000000000011       0x12 .build/obj_redox_rev1_base_ad_rev2/quantum/logging/sendchar.o
 .comment       0x0000000000000011       0x12 .build/obj_redox_rev1_base_ad_rev2/quantum/matrix_common.o
 .comment       0x0000000000000011       0x12 .build/obj_redox_rev1_base_ad_rev2/quantum/matrix.o
 .comment       0x0000000000000011       0x12 .build/obj_redox_rev1_base_ad_rev2/quantum/debounce/sym_defer_g.o
 .comment       0x0000000000000011       0x12 .build/obj_redox_rev1_base_ad_rev2/quantum/split_common/split_util.o
 .comment       0x0000000000000011       0x12 .build/obj_redox_rev1_base_ad_rev2/quantum/split_common/transport.o
 .comment       0x0000000000000011       0x12 .build/obj_redox_rev1_base_ad_rev2/quantum/split_common/transactions.o
 .comment       0x0000000000000011       0x12 .build/obj_redox_rev1_base_ad_rev2/quantum/main.o
 .comment       0x0000000000000011       0x12 .build/obj_redox_rev1_base_ad_rev2/platforms/avr/printf.o
 .comment       0x0000000000000011       0x12 .build/obj_redox_rev1_base_ad_rev2/quantum/color.o
 .comment       0x0000000000000011       0x12 .build/obj_redox_rev1_base_ad_rev2/quantum/rgblight/rgblight.o
 .comment       0x0000000000000011       0x12 .build/obj_redox_rev1_base_ad_rev2/quantum/rgblight/rgblight_drivers.o
 .comment       0x0000000000000011       0x12 .build/obj_redox_rev1_base_ad_rev2/quantum/process_keycode/process_rgb.o
 .comment       0x0000000000000011       0x12 .build/obj_redox_rev1_base_ad_rev2/quantum/led_tables.o
 .comment       0x0000000000000011       0x12 .build/obj_redox_rev1_base_ad_rev2/quantum/process_keycode/process_unicode.o
 .comment       0x0000000000000011       0x12 .build/obj_redox_rev1_base_ad_rev2/quantum/process_keycode/process_unicode_common.o
 .comment       0x0000000000000011       0x12 .build/obj_redox_rev1_base_ad_rev2/quantum/unicode/unicode.o
 .comment       0x0000000000000011       0x12 .build/obj_redox_rev1_base_ad_rev2/ws2812_bitbang.o
 .comment       0x0000000000000011       0x12 .build/obj_redox_rev1_base_ad_rev2/quantum/bootmagic/bootmagic.o
 .comment       0x0000000000000011       0x12 .build/obj_redox_rev1_base_ad_rev2/quantum/command.o
 .comment       0x0000000000000011       0x12 .build/obj_redox_rev1_base_ad_rev2/quantum/crc.o
 .comment       0x0000000000000011       0x12 .build/obj_redox_rev1_base_ad_rev2/quantum/process_keycode/process_grave_esc.o
 .comment       0x0000000000000011       0x12 .build/obj_redox_rev1_base_ad_rev2/quantum/process_keycode/process_magic.o
 .comment       0x0000000000000011       0x12 .build/obj_redox_rev1_base_ad_rev2/quantum/mousekey.o
 .comment       0x0000000000000011       0x12 .build/obj_redox_rev1_base_ad_rev2/quantum/send_string/send_string.o
 .comment       0x0000000000000011       0x12 .build/obj_redox_rev1_base_ad_rev2/quantum/process_keycode/process_space_cadet.o
 .comment       0x0000000000000011       0x12 .build/obj_redox_rev1_base_ad_rev2/quantum/process_keycode/process_tap_dance.o
 .comment       0x0000000000000011       0x12 .build/obj_redox_rev1_base_ad_rev2/protocol/host.o
 .comment       0x0000000000000011       0x12 .build/obj_redox_rev1_base_ad_rev2/protocol/report.o
 .comment       0x0000000000000011       0x12 .build/obj_redox_rev1_base_ad_rev2/protocol/usb_device_state.o
 .comment       0x0000000000000011       0x12 .build/obj_redox_rev1_base_ad_rev2/platforms/suspend.o
 .comment       0x0000000000000011       0x12 .build/obj_redox_rev1_base_ad_rev2/platforms/avr/platform.o
 .comment       0x0000000000000011       0x12 .build/obj_redox_rev1_base_ad_rev2/platforms/avr/suspend.o
 .comment       0x0000000000000011       0x12 .build/obj_redox_rev1_base_ad_rev2/platforms/avr/timer.o
 .comment       0x0000000000000011       0x12 .build/obj_redox_rev1_base_ad_rev2/platforms/avr/bootloaders/caterina.o
 .comment       0x0000000000000011       0x12 .build/obj_redox_rev1_base_ad_rev2/serial.a(serial.o)
 .comment       0x0000000000000011       0x12 .build/obj_redox_rev1_base_ad_rev2/lufa.o
 .comment       0x0000000000000011       0x12 .build/obj_redox_rev1_base_ad_rev2/usb_descriptor.o
 .comment       0x0000000000000011       0x12 .build/obj_redox_rev1_base_ad_rev2/lib/lufa/LUFA/Drivers/USB/Core/AVR8/Device_AVR8.o
 .comment       0x0000000000000011       0x12 .build/obj_redox_rev1_base_ad_rev2/lib/lufa/LUFA/Drivers/USB/Core/AVR8/EndpointStream_AVR8.o
 .comment       0x0000000000000011       0x12 .build/obj_redox_rev1_base_ad_rev2/lib/lufa/LUFA/Drivers/USB/Core/AVR8/Endpoint_AVR8.o
 .comment       0x0000000000000011       0x12 .build/obj_redox_rev1_base_ad_rev2/lib/lufa/LUFA/Drivers/USB/Core/AVR8/USBController_AVR8.o
 .comment       0x0000000000000011       0x12 .build/obj_redox_rev1_base_ad_rev2/lib/lufa/LUFA/Drivers/USB/Core/AVR8/USBInterrupt_AVR8.o
 .comment       0x0000000000000011       0x12 .build/obj_redox_rev1_base_ad_rev2/lib/lufa/LUFA/Drivers/USB/Core/DeviceStandardReq.o
 .comment       0x0000000000000011       0x12 .build/obj_redox_rev1_base_ad_rev2/lib/lufa/LUFA/Drivers/USB/Core/Events.o
 .comment       0x0000000000000011       0x12 .build/obj_redox_rev1_base_ad_rev2/lib/lufa/LUFA/Drivers/USB/Core/USBTask.o
 .comment       0x0000000000000011       0x12 .build/obj_redox_rev1_base_ad_rev2/protocol/lufa/usb_util.o
 .comment       0x0000000000000011       0x12 /usr/lib/gcc/avr/7.3.0/../../../avr/lib/avr5/libc.a(rand.o)

.note.gnu.avr.deviceinfo
                0x0000000000000000       0x40
 .note.gnu.avr.deviceinfo
                0x0000000000000000       0x40 /usr/lib/gcc/avr/7.3.0/../../../avr/lib/avr5/crtatmega32u4.o

.note.gnu.build-id
 *(.note.gnu.build-id)

.debug
 *(.debug)

.line
 *(.line)

.debug_srcinfo
 *(.debug_srcinfo)

.debug_sfnames
 *(.debug_sfnames)

.debug_aranges  0x0000000000000000     0x16c8
 *(.debug_aranges)
 .debug_aranges
                0x0000000000000000       0x40 .build/obj_redox_rev1_base_ad_rev2/quantum/keymap_introspection.o
 .debug_aranges
                0x0000000000000040       0xf8 .build/obj_redox_rev1_base_ad_rev2/quantum/quantum.o
 .debug_aranges
                0x0000000000000138       0x70 .build/obj_redox_rev1_base_ad_rev2/quantum/led.o
 .debug_aranges
                0x00000000000001a8       0xe0 .build/obj_redox_rev1_base_ad_rev2/quantum/action.o
 .debug_aranges
                0x0000000000000288      0x100 .build/obj_redox_rev1_base_ad_rev2/quantum/action_layer.o
 .debug_aranges
                0x0000000000000388       0x48 .build/obj_redox_rev1_base_ad_rev2/quantum/action_tapping.o
 .debug_aranges
                0x00000000000003d0      0x178 .build/obj_redox_rev1_base_ad_rev2/quantum/action_util.o
 .debug_aranges
                0x0000000000000548       0xd8 .build/obj_redox_rev1_base_ad_rev2/quantum/eeconfig.o
 .debug_aranges
                0x0000000000000620       0xe0 .build/obj_redox_rev1_base_ad_rev2/quantum/keyboard.o
 .debug_aranges
                0x0000000000000700       0x30 .build/obj_redox_rev1_base_ad_rev2/quantum/keymap_common.o
 .debug_aranges
                0x0000000000000730       0x28 .build/obj_redox_rev1_base_ad_rev2/quantum/keycode_config.o
 .debug_aranges
                0x0000000000000758       0x48 .build/obj_redox_rev1_base_ad_rev2/quantum/sync_timer.o
 .debug_aranges
                0x00000000000007a0       0x18 .build/obj_redox_rev1_base_ad_rev2/quantum/logging/debug.o
 .debug_aranges
                0x00000000000007b8       0x20 .build/obj_redox_rev1_base_ad_rev2/quantum/logging/sendchar.o
 .debug_aranges
                0x00000000000007d8       0xa0 .build/obj_redox_rev1_base_ad_rev2/quantum/matrix_common.o
 .debug_aranges
                0x0000000000000878       0x48 .build/obj_redox_rev1_base_ad_rev2/quantum/matrix.o
 .debug_aranges
                0x00000000000008c0       0x30 .build/obj_redox_rev1_base_ad_rev2/quantum/debounce/sym_defer_g.o
 .debug_aranges
                0x00000000000008f0       0x58 .build/obj_redox_rev1_base_ad_rev2/quantum/split_common/split_util.o
 .debug_aranges
                0x0000000000000948       0x40 .build/obj_redox_rev1_base_ad_rev2/quantum/split_common/transport.o
 .debug_aranges
                0x0000000000000988       0x48 .build/obj_redox_rev1_base_ad_rev2/quantum/split_common/transactions.o
 .debug_aranges
                0x00000000000009d0       0x28 .build/obj_redox_rev1_base_ad_rev2/quantum/main.o
 .debug_aranges
                0x00000000000009f8       0x20 .build/obj_redox_rev1_base_ad_rev2/platforms/avr/printf.o
 .debug_aranges
                0x0000000000000a18       0x30 .build/obj_redox_rev1_base_ad_rev2/quantum/color.o
 .debug_aranges
                0x0000000000000a48      0x328 .build/obj_redox_rev1_base_ad_rev2/quantum/rgblight/rgblight.o
 .debug_aranges
                0x0000000000000d70       0x18 .build/obj_redox_rev1_base_ad_rev2/quantum/rgblight/rgblight_drivers.o
 .debug_aranges
                0x0000000000000d88       0x30 .build/obj_redox_rev1_base_ad_rev2/quantum/process_keycode/process_rgb.o
 .debug_aranges
                0x0000000000000db8       0x18 .build/obj_redox_rev1_base_ad_rev2/quantum/led_tables.o
 .debug_aranges
                0x0000000000000dd0       0x20 .build/obj_redox_rev1_base_ad_rev2/quantum/process_keycode/process_unicode.o
 .debug_aranges
                0x0000000000000df0       0x20 .build/obj_redox_rev1_base_ad_rev2/quantum/process_keycode/process_unicode_common.o
 .debug_aranges
                0x0000000000000e10       0x98 .build/obj_redox_rev1_base_ad_rev2/quantum/unicode/unicode.o
 .debug_aranges
                0x0000000000000ea8       0x28 .build/obj_redox_rev1_base_ad_rev2/ws2812_bitbang.o
 .debug_aranges
                0x0000000000000ed0       0x38 .build/obj_redox_rev1_base_ad_rev2/quantum/bootmagic/bootmagic.o
 .debug_aranges
                0x0000000000000f08       0x30 .build/obj_redox_rev1_base_ad_rev2/quantum/command.o
 .debug_aranges
                0x0000000000000f38       0x28 .build/obj_redox_rev1_base_ad_rev2/quantum/crc.o
 .debug_aranges
                0x0000000000000f60       0x20 .build/obj_redox_rev1_base_ad_rev2/quantum/process_keycode/process_grave_esc.o
 .debug_aranges
                0x0000000000000f80       0x20 .build/obj_redox_rev1_base_ad_rev2/quantum/process_keycode/process_magic.o
 .debug_aranges
                0x0000000000000fa0       0x68 .build/obj_redox_rev1_base_ad_rev2/quantum/mousekey.o
 .debug_aranges
                0x0000000000001008       0x70 .build/obj_redox_rev1_base_ad_rev2/quantum/send_string/send_string.o
 .debug_aranges
                0x0000000000001078       0x30 .build/obj_redox_rev1_base_ad_rev2/quantum/process_keycode/process_space_cadet.o
 .debug_aranges
                0x00000000000010a8       0x80 .build/obj_redox_rev1_base_ad_rev2/quantum/process_keycode/process_tap_dance.o
 .debug_aranges
                0x0000000000001128       0x80 .build/obj_redox_rev1_base_ad_rev2/protocol/host.o
 .debug_aranges
                0x00000000000011a8       0x70 .build/obj_redox_rev1_base_ad_rev2/protocol/report.o
 .debug_aranges
                0x0000000000001218       0x40 .build/obj_redox_rev1_base_ad_rev2/protocol/usb_device_state.o
 .debug_aranges
                0x0000000000001258       0x38 .build/obj_redox_rev1_base_ad_rev2/platforms/suspend.o
 .debug_aranges
                0x0000000000001290       0x20 .build/obj_redox_rev1_base_ad_rev2/platforms/avr/platform.o
 .debug_aranges
                0x00000000000012b0       0x30 .build/obj_redox_rev1_base_ad_rev2/platforms/avr/suspend.o
 .debug_aranges
                0x00000000000012e0       0x50 .build/obj_redox_rev1_base_ad_rev2/platforms/avr/timer.o
 .debug_aranges
                0x0000000000001330       0x28 .build/obj_redox_rev1_base_ad_rev2/platforms/avr/bootloaders/caterina.o
 .debug_aranges
                0x0000000000001358       0x68 .build/obj_redox_rev1_base_ad_rev2/serial.a(serial.o)
 .debug_aranges
                0x00000000000013c0       0xb8 .build/obj_redox_rev1_base_ad_rev2/lufa.o
 .debug_aranges
                0x0000000000001478       0x20 .build/obj_redox_rev1_base_ad_rev2/usb_descriptor.o
 .debug_aranges
                0x0000000000001498       0x20 .build/obj_redox_rev1_base_ad_rev2/lib/lufa/LUFA/Drivers/USB/Core/AVR8/Device_AVR8.o
 .debug_aranges
                0x00000000000014b8       0xc8 .build/obj_redox_rev1_base_ad_rev2/lib/lufa/LUFA/Drivers/USB/Core/AVR8/EndpointStream_AVR8.o
 .debug_aranges
                0x0000000000001580       0x40 .build/obj_redox_rev1_base_ad_rev2/lib/lufa/LUFA/Drivers/USB/Core/AVR8/Endpoint_AVR8.o
 .debug_aranges
                0x00000000000015c0       0x30 .build/obj_redox_rev1_base_ad_rev2/lib/lufa/LUFA/Drivers/USB/Core/AVR8/USBController_AVR8.o
 .debug_aranges
                0x00000000000015f0       0x38 .build/obj_redox_rev1_base_ad_rev2/lib/lufa/LUFA/Drivers/USB/Core/AVR8/USBInterrupt_AVR8.o
 .debug_aranges
                0x0000000000001628       0x20 .build/obj_redox_rev1_base_ad_rev2/lib/lufa/LUFA/Drivers/USB/Core/DeviceStandardReq.o
 .debug_aranges
                0x0000000000001648       0x30 .build/obj_redox_rev1_base_ad_rev2/lib/lufa/LUFA/Drivers/USB/Core/Events.o
 .debug_aranges
                0x0000000000001678       0x20 .build/obj_redox_rev1_base_ad_rev2/lib/lufa/LUFA/Drivers/USB/Core/USBTask.o
 .debug_aranges
                0x0000000000001698       0x30 .build/obj_redox_rev1_base_ad_rev2/protocol/lufa/usb_util.o

.debug_pubnames
 *(.debug_pubnames)

.debug_info     0x0000000000000000    0x4574e
 *(.debug_info .gnu.linkonce.wi.*)
 .debug_info    0x0000000000000000      0x9f4 /usr/lib/gcc/avr/7.3.0/../../../avr/lib/avr5/crtatmega32u4.o
 .debug_info    0x00000000000009f4     0x3499 .build/obj_redox_rev1_base_ad_rev2/quantum/keymap_introspection.o
 .debug_info    0x0000000000003e8d     0x3e11 .build/obj_redox_rev1_base_ad_rev2/quantum/quantum.o
 .debug_info    0x0000000000007c9e      0x52e .build/obj_redox_rev1_base_ad_rev2/quantum/led.o
 .debug_info    0x00000000000081cc     0x47e2 .build/obj_redox_rev1_base_ad_rev2/quantum/action.o
 .debug_info    0x000000000000c9ae      0xc65 .build/obj_redox_rev1_base_ad_rev2/quantum/action_layer.o
 .debug_info    0x000000000000d613     0x2cdf .build/obj_redox_rev1_base_ad_rev2/quantum/action_tapping.o
 .debug_info    0x00000000000102f2      0xe40 .build/obj_redox_rev1_base_ad_rev2/quantum/action_util.o
 .debug_info    0x0000000000011132      0x84f .build/obj_redox_rev1_base_ad_rev2/quantum/eeconfig.o
 .debug_info    0x0000000000011981     0x131f .build/obj_redox_rev1_base_ad_rev2/quantum/keyboard.o
 .debug_info    0x0000000000012ca0     0x30b2 .build/obj_redox_rev1_base_ad_rev2/quantum/keymap_common.o
 .debug_info    0x0000000000015d52     0x252e .build/obj_redox_rev1_base_ad_rev2/quantum/keycode_config.o
 .debug_info    0x0000000000018280      0x267 .build/obj_redox_rev1_base_ad_rev2/quantum/sync_timer.o
 .debug_info    0x00000000000184e7      0x1e5 .build/obj_redox_rev1_base_ad_rev2/quantum/logging/debug.o
 .debug_info    0x00000000000186cc       0xa0 .build/obj_redox_rev1_base_ad_rev2/quantum/logging/sendchar.o
 .debug_info    0x000000000001876c      0xc86 .build/obj_redox_rev1_base_ad_rev2/quantum/matrix_common.o
 .debug_info    0x00000000000193f2      0xbf2 .build/obj_redox_rev1_base_ad_rev2/quantum/matrix.o
 .debug_info    0x0000000000019fe4      0x2aa .build/obj_redox_rev1_base_ad_rev2/quantum/debounce/sym_defer_g.o
 .debug_info    0x000000000001a28e      0x95d .build/obj_redox_rev1_base_ad_rev2/quantum/split_common/split_util.o
 .debug_info    0x000000000001abeb      0x9db .build/obj_redox_rev1_base_ad_rev2/quantum/split_common/transport.o
 .debug_info    0x000000000001b5c6     0x1169 .build/obj_redox_rev1_base_ad_rev2/quantum/split_common/transactions.o
 .debug_info    0x000000000001c72f      0x1a5 .build/obj_redox_rev1_base_ad_rev2/quantum/main.o
 .debug_info    0x000000000001c8d4       0xe1 .build/obj_redox_rev1_base_ad_rev2/platforms/avr/printf.o
 .debug_info    0x000000000001c9b5      0x294 .build/obj_redox_rev1_base_ad_rev2/quantum/color.o
 .debug_info    0x000000000001cc49     0x2f5c .build/obj_redox_rev1_base_ad_rev2/quantum/rgblight/rgblight.o
 .debug_info    0x000000000001fba5      0x11c .build/obj_redox_rev1_base_ad_rev2/quantum/rgblight/rgblight_drivers.o
 .debug_info    0x000000000001fcc1     0x2b06 .build/obj_redox_rev1_base_ad_rev2/quantum/process_keycode/process_rgb.o
 .debug_info    0x00000000000227c7       0x90 .build/obj_redox_rev1_base_ad_rev2/quantum/led_tables.o
 .debug_info    0x0000000000022857      0x5c1 .build/obj_redox_rev1_base_ad_rev2/quantum/process_keycode/process_unicode.o
 .debug_info    0x0000000000022e18     0x28cd .build/obj_redox_rev1_base_ad_rev2/quantum/process_keycode/process_unicode_common.o
 .debug_info    0x00000000000256e5     0x365e .build/obj_redox_rev1_base_ad_rev2/quantum/unicode/unicode.o
 .debug_info    0x0000000000028d43      0x260 .build/obj_redox_rev1_base_ad_rev2/ws2812_bitbang.o
 .debug_info    0x0000000000028fa3      0x23b .build/obj_redox_rev1_base_ad_rev2/quantum/bootmagic/bootmagic.o
 .debug_info    0x00000000000291de     0x30b7 .build/obj_redox_rev1_base_ad_rev2/quantum/command.o
 .debug_info    0x000000000002c295      0x130 .build/obj_redox_rev1_base_ad_rev2/quantum/crc.o
 .debug_info    0x000000000002c3c5     0x2738 .build/obj_redox_rev1_base_ad_rev2/quantum/process_keycode/process_grave_esc.o
 .debug_info    0x000000000002eafd     0x26c3 .build/obj_redox_rev1_base_ad_rev2/quantum/process_keycode/process_magic.o
 .debug_info    0x00000000000311c0     0x29d4 .build/obj_redox_rev1_base_ad_rev2/quantum/mousekey.o
 .debug_info    0x0000000000033b94     0x3017 .build/obj_redox_rev1_base_ad_rev2/quantum/send_string/send_string.o
 .debug_info    0x0000000000036bab     0x2774 .build/obj_redox_rev1_base_ad_rev2/quantum/process_keycode/process_space_cadet.o
 .debug_info    0x000000000003931f     0x1465 .build/obj_redox_rev1_base_ad_rev2/quantum/process_keycode/process_tap_dance.o
 .debug_info    0x000000000003a784      0xa0b .build/obj_redox_rev1_base_ad_rev2/protocol/host.o
 .debug_info    0x000000000003b18f     0x2a3a .build/obj_redox_rev1_base_ad_rev2/protocol/report.o
 .debug_info    0x000000000003dbc9      0x25c .build/obj_redox_rev1_base_ad_rev2/protocol/usb_device_state.o
 .debug_info    0x000000000003de25      0x168 .build/obj_redox_rev1_base_ad_rev2/platforms/suspend.o
 .debug_info    0x000000000003df8d       0xa0 .build/obj_redox_rev1_base_ad_rev2/platforms/avr/platform.o
 .debug_info    0x000000000003e02d      0x5dc .build/obj_redox_rev1_base_ad_rev2/platforms/avr/suspend.o
 .debug_info    0x000000000003e609      0x3b3 .build/obj_redox_rev1_base_ad_rev2/platforms/avr/timer.o
 .debug_info    0x000000000003e9bc      0x11b .build/obj_redox_rev1_base_ad_rev2/platforms/avr/bootloaders/caterina.o
 .debug_info    0x000000000003ead7     0x109d .build/obj_redox_rev1_base_ad_rev2/serial.a(serial.o)
 .debug_info    0x000000000003fb74     0x1341 .build/obj_redox_rev1_base_ad_rev2/lufa.o
 .debug_info    0x0000000000040eb5      0x94f .build/obj_redox_rev1_base_ad_rev2/usb_descriptor.o
 .debug_info    0x0000000000041804      0x193 .build/obj_redox_rev1_base_ad_rev2/lib/lufa/LUFA/Drivers/USB/Core/AVR8/Device_AVR8.o
 .debug_info    0x0000000000041997     0x17df .build/obj_redox_rev1_base_ad_rev2/lib/lufa/LUFA/Drivers/USB/Core/AVR8/EndpointStream_AVR8.o
 .debug_info    0x0000000000043176      0x651 .build/obj_redox_rev1_base_ad_rev2/lib/lufa/LUFA/Drivers/USB/Core/AVR8/Endpoint_AVR8.o
 .debug_info    0x00000000000437c7      0x550 .build/obj_redox_rev1_base_ad_rev2/lib/lufa/LUFA/Drivers/USB/Core/AVR8/USBController_AVR8.o
 .debug_info    0x0000000000043d17      0x87c .build/obj_redox_rev1_base_ad_rev2/lib/lufa/LUFA/Drivers/USB/Core/AVR8/USBInterrupt_AVR8.o
 .debug_info    0x0000000000044593      0xa6b .build/obj_redox_rev1_base_ad_rev2/lib/lufa/LUFA/Drivers/USB/Core/DeviceStandardReq.o
 .debug_info    0x0000000000044ffe       0xe9 .build/obj_redox_rev1_base_ad_rev2/lib/lufa/LUFA/Drivers/USB/Core/Events.o
 .debug_info    0x00000000000450e7      0x2ae .build/obj_redox_rev1_base_ad_rev2/lib/lufa/LUFA/Drivers/USB/Core/USBTask.o
 .debug_info    0x0000000000045395      0x3b9 .build/obj_redox_rev1_base_ad_rev2/protocol/lufa/usb_util.o

.debug_abbrev   0x0000000000000000     0x8df5
 *(.debug_abbrev)
 .debug_abbrev  0x0000000000000000      0x96a /usr/lib/gcc/avr/7.3.0/../../../avr/lib/avr5/crtatmega32u4.o
 .debug_abbrev  0x000000000000096a      0x321 .build/obj_redox_rev1_base_ad_rev2/quantum/keymap_introspection.o
 .debug_abbrev  0x0000000000000c8b      0x44c .build/obj_redox_rev1_base_ad_rev2/quantum/quantum.o
 .debug_abbrev  0x00000000000010d7      0x24a .build/obj_redox_rev1_base_ad_rev2/quantum/led.o
 .debug_abbrev  0x0000000000001321      0x47f .build/obj_redox_rev1_base_ad_rev2/quantum/action.o
 .debug_abbrev  0x00000000000017a0      0x2d5 .build/obj_redox_rev1_base_ad_rev2/quantum/action_layer.o
 .debug_abbrev  0x0000000000001a75      0x2e0 .build/obj_redox_rev1_base_ad_rev2/quantum/action_tapping.o
 .debug_abbrev  0x0000000000001d55      0x357 .build/obj_redox_rev1_base_ad_rev2/quantum/action_util.o
 .debug_abbrev  0x00000000000020ac      0x193 .build/obj_redox_rev1_base_ad_rev2/quantum/eeconfig.o
 .debug_abbrev  0x000000000000223f      0x42a .build/obj_redox_rev1_base_ad_rev2/quantum/keyboard.o
 .debug_abbrev  0x0000000000002669      0x276 .build/obj_redox_rev1_base_ad_rev2/quantum/keymap_common.o
 .debug_abbrev  0x00000000000028df      0x113 .build/obj_redox_rev1_base_ad_rev2/quantum/keycode_config.o
 .debug_abbrev  0x00000000000029f2      0x111 .build/obj_redox_rev1_base_ad_rev2/quantum/sync_timer.o
 .debug_abbrev  0x0000000000002b03      0x120 .build/obj_redox_rev1_base_ad_rev2/quantum/logging/debug.o
 .debug_abbrev  0x0000000000002c23       0x62 .build/obj_redox_rev1_base_ad_rev2/quantum/logging/sendchar.o
 .debug_abbrev  0x0000000000002c85      0x3ad .build/obj_redox_rev1_base_ad_rev2/quantum/matrix_common.o
 .debug_abbrev  0x0000000000003032      0x3cf .build/obj_redox_rev1_base_ad_rev2/quantum/matrix.o
 .debug_abbrev  0x0000000000003401      0x1b2 .build/obj_redox_rev1_base_ad_rev2/quantum/debounce/sym_defer_g.o
 .debug_abbrev  0x00000000000035b3      0x2ed .build/obj_redox_rev1_base_ad_rev2/quantum/split_common/split_util.o
 .debug_abbrev  0x00000000000038a0      0x2e4 .build/obj_redox_rev1_base_ad_rev2/quantum/split_common/transport.o
 .debug_abbrev  0x0000000000003b84      0x455 .build/obj_redox_rev1_base_ad_rev2/quantum/split_common/transactions.o
 .debug_abbrev  0x0000000000003fd9       0xa4 .build/obj_redox_rev1_base_ad_rev2/quantum/main.o
 .debug_abbrev  0x000000000000407d       0x95 .build/obj_redox_rev1_base_ad_rev2/platforms/avr/printf.o
 .debug_abbrev  0x0000000000004112      0x170 .build/obj_redox_rev1_base_ad_rev2/quantum/color.o
 .debug_abbrev  0x0000000000004282      0x621 .build/obj_redox_rev1_base_ad_rev2/quantum/rgblight/rgblight.o
 .debug_abbrev  0x00000000000048a3       0xb2 .build/obj_redox_rev1_base_ad_rev2/quantum/rgblight/rgblight_drivers.o
 .debug_abbrev  0x0000000000004955      0x230 .build/obj_redox_rev1_base_ad_rev2/quantum/process_keycode/process_rgb.o
 .debug_abbrev  0x0000000000004b85       0x66 .build/obj_redox_rev1_base_ad_rev2/quantum/led_tables.o
 .debug_abbrev  0x0000000000004beb      0x14b .build/obj_redox_rev1_base_ad_rev2/quantum/process_keycode/process_unicode.o
 .debug_abbrev  0x0000000000004d36      0x17a .build/obj_redox_rev1_base_ad_rev2/quantum/process_keycode/process_unicode_common.o
 .debug_abbrev  0x0000000000004eb0      0x409 .build/obj_redox_rev1_base_ad_rev2/quantum/unicode/unicode.o
 .debug_abbrev  0x00000000000052b9      0x15f .build/obj_redox_rev1_base_ad_rev2/ws2812_bitbang.o
 .debug_abbrev  0x0000000000005418      0x14d .build/obj_redox_rev1_base_ad_rev2/quantum/bootmagic/bootmagic.o
 .debug_abbrev  0x0000000000005565      0x398 .build/obj_redox_rev1_base_ad_rev2/quantum/command.o
 .debug_abbrev  0x00000000000058fd       0xa0 .build/obj_redox_rev1_base_ad_rev2/quantum/crc.o
 .debug_abbrev  0x000000000000599d      0x191 .build/obj_redox_rev1_base_ad_rev2/quantum/process_keycode/process_grave_esc.o
 .debug_abbrev  0x0000000000005b2e      0x128 .build/obj_redox_rev1_base_ad_rev2/quantum/process_keycode/process_magic.o
 .debug_abbrev  0x0000000000005c56      0x2de .build/obj_redox_rev1_base_ad_rev2/quantum/mousekey.o
 .debug_abbrev  0x0000000000005f34      0x299 .build/obj_redox_rev1_base_ad_rev2/quantum/send_string/send_string.o
 .debug_abbrev  0x00000000000061cd      0x196 .build/obj_redox_rev1_base_ad_rev2/quantum/process_keycode/process_space_cadet.o
 .debug_abbrev  0x0000000000006363      0x361 .build/obj_redox_rev1_base_ad_rev2/quantum/process_keycode/process_tap_dance.o
 .debug_abbrev  0x00000000000066c4      0x2f6 .build/obj_redox_rev1_base_ad_rev2/protocol/host.o
 .debug_abbrev  0x00000000000069ba      0x2ba .build/obj_redox_rev1_base_ad_rev2/protocol/report.o
 .debug_abbrev  0x0000000000006c74      0x13b .build/obj_redox_rev1_base_ad_rev2/protocol/usb_device_state.o
 .debug_abbrev  0x0000000000006daf       0xe2 .build/obj_redox_rev1_base_ad_rev2/platforms/suspend.o
 .debug_abbrev  0x0000000000006e91       0x71 .build/obj_redox_rev1_base_ad_rev2/platforms/avr/platform.o
 .debug_abbrev  0x0000000000006f02      0x202 .build/obj_redox_rev1_base_ad_rev2/platforms/avr/suspend.o
 .debug_abbrev  0x0000000000007104      0x182 .build/obj_redox_rev1_base_ad_rev2/platforms/avr/timer.o
 .debug_abbrev  0x0000000000007286       0xa6 .build/obj_redox_rev1_base_ad_rev2/platforms/avr/bootloaders/caterina.o
 .debug_abbrev  0x000000000000732c      0x41a .build/obj_redox_rev1_base_ad_rev2/serial.a(serial.o)
 .debug_abbrev  0x0000000000007746      0x4da .build/obj_redox_rev1_base_ad_rev2/lufa.o
 .debug_abbrev  0x0000000000007c20      0x1d9 .build/obj_redox_rev1_base_ad_rev2/usb_descriptor.o
 .debug_abbrev  0x0000000000007df9       0xb6 .build/obj_redox_rev1_base_ad_rev2/lib/lufa/LUFA/Drivers/USB/Core/AVR8/Device_AVR8.o
 .debug_abbrev  0x0000000000007eaf      0x20a .build/obj_redox_rev1_base_ad_rev2/lib/lufa/LUFA/Drivers/USB/Core/AVR8/EndpointStream_AVR8.o
 .debug_abbrev  0x00000000000080b9      0x251 .build/obj_redox_rev1_base_ad_rev2/lib/lufa/LUFA/Drivers/USB/Core/AVR8/Endpoint_AVR8.o
 .debug_abbrev  0x000000000000830a      0x1a1 .build/obj_redox_rev1_base_ad_rev2/lib/lufa/LUFA/Drivers/USB/Core/AVR8/USBController_AVR8.o
 .debug_abbrev  0x00000000000084ab      0x231 .build/obj_redox_rev1_base_ad_rev2/lib/lufa/LUFA/Drivers/USB/Core/AVR8/USBInterrupt_AVR8.o
 .debug_abbrev  0x00000000000086dc      0x2fc .build/obj_redox_rev1_base_ad_rev2/lib/lufa/LUFA/Drivers/USB/Core/DeviceStandardReq.o
 .debug_abbrev  0x00000000000089d8       0x81 .build/obj_redox_rev1_base_ad_rev2/lib/lufa/LUFA/Drivers/USB/Core/Events.o
 .debug_abbrev  0x0000000000008a59      0x198 .build/obj_redox_rev1_base_ad_rev2/lib/lufa/LUFA/Drivers/USB/Core/USBTask.o
 .debug_abbrev  0x0000000000008bf1      0x204 .build/obj_redox_rev1_base_ad_rev2/protocol/lufa/usb_util.o

.debug_line     0x0000000000000000     0xdff5
 *(.debug_line .debug_line.* .debug_line_end)
 .debug_line    0x0000000000000000       0x1a /usr/lib/gcc/avr/7.3.0/../../../avr/lib/avr5/crtatmega32u4.o
 .debug_line    0x000000000000001a      0x41b .build/obj_redox_rev1_base_ad_rev2/quantum/keymap_introspection.o
 .debug_line    0x0000000000000435      0x8f4 .build/obj_redox_rev1_base_ad_rev2/quantum/quantum.o
 .debug_line    0x0000000000000d29      0x1fb .build/obj_redox_rev1_base_ad_rev2/quantum/led.o
 .debug_line    0x0000000000000f24      0xc69 .build/obj_redox_rev1_base_ad_rev2/quantum/action.o
 .debug_line    0x0000000000001b8d      0x4dd .build/obj_redox_rev1_base_ad_rev2/quantum/action_layer.o
 .debug_line    0x000000000000206a      0x50f .build/obj_redox_rev1_base_ad_rev2/quantum/action_tapping.o
 .debug_line    0x0000000000002579      0x774 .build/obj_redox_rev1_base_ad_rev2/quantum/action_util.o
 .debug_line    0x0000000000002ced      0x3c2 .build/obj_redox_rev1_base_ad_rev2/quantum/eeconfig.o
 .debug_line    0x00000000000030af      0x65b .build/obj_redox_rev1_base_ad_rev2/quantum/keyboard.o
 .debug_line    0x000000000000370a      0x2d2 .build/obj_redox_rev1_base_ad_rev2/quantum/keymap_common.o
 .debug_line    0x00000000000039dc      0x1d2 .build/obj_redox_rev1_base_ad_rev2/quantum/keycode_config.o
 .debug_line    0x0000000000003bae      0x16c .build/obj_redox_rev1_base_ad_rev2/quantum/sync_timer.o
 .debug_line    0x0000000000003d1a       0x6c .build/obj_redox_rev1_base_ad_rev2/quantum/logging/debug.o
 .debug_line    0x0000000000003d86       0x6f .build/obj_redox_rev1_base_ad_rev2/quantum/logging/sendchar.o
 .debug_line    0x0000000000003df5      0x443 .build/obj_redox_rev1_base_ad_rev2/quantum/matrix_common.o
 .debug_line    0x0000000000004238      0x39f .build/obj_redox_rev1_base_ad_rev2/quantum/matrix.o
 .debug_line    0x00000000000045d7      0x171 .build/obj_redox_rev1_base_ad_rev2/quantum/debounce/sym_defer_g.o
 .debug_line    0x0000000000004748      0x29a .build/obj_redox_rev1_base_ad_rev2/quantum/split_common/split_util.o
 .debug_line    0x00000000000049e2      0x256 .build/obj_redox_rev1_base_ad_rev2/quantum/split_common/transport.o
 .debug_line    0x0000000000004c38      0x3d3 .build/obj_redox_rev1_base_ad_rev2/quantum/split_common/transactions.o
 .debug_line    0x000000000000500b       0xe8 .build/obj_redox_rev1_base_ad_rev2/quantum/main.o
 .debug_line    0x00000000000050f3       0x9c .build/obj_redox_rev1_base_ad_rev2/platforms/avr/printf.o
 .debug_line    0x000000000000518f      0x179 .build/obj_redox_rev1_base_ad_rev2/quantum/color.o
 .debug_line    0x0000000000005308     0x17c5 .build/obj_redox_rev1_base_ad_rev2/quantum/rgblight/rgblight.o
 .debug_line    0x0000000000006acd       0x8b .build/obj_redox_rev1_base_ad_rev2/quantum/rgblight/rgblight_drivers.o
 .debug_line    0x0000000000006b58      0x25b .build/obj_redox_rev1_base_ad_rev2/quantum/process_keycode/process_rgb.o
 .debug_line    0x0000000000006db3       0x63 .build/obj_redox_rev1_base_ad_rev2/quantum/led_tables.o
 .debug_line    0x0000000000006e16      0x113 .build/obj_redox_rev1_base_ad_rev2/quantum/process_keycode/process_unicode.o
 .debug_line    0x0000000000006f29      0x1bb .build/obj_redox_rev1_base_ad_rev2/quantum/process_keycode/process_unicode_common.o
 .debug_line    0x00000000000070e4      0x72c .build/obj_redox_rev1_base_ad_rev2/quantum/unicode/unicode.o
 .debug_line    0x0000000000007810      0x113 .build/obj_redox_rev1_base_ad_rev2/ws2812_bitbang.o
 .debug_line    0x0000000000007923      0x15d .build/obj_redox_rev1_base_ad_rev2/quantum/bootmagic/bootmagic.o
 .debug_line    0x0000000000007a80      0x4a8 .build/obj_redox_rev1_base_ad_rev2/quantum/command.o
 .debug_line    0x0000000000007f28       0xe4 .build/obj_redox_rev1_base_ad_rev2/quantum/crc.o
 .debug_line    0x000000000000800c      0x167 .build/obj_redox_rev1_base_ad_rev2/quantum/process_keycode/process_grave_esc.o
 .debug_line    0x0000000000008173      0x23d .build/obj_redox_rev1_base_ad_rev2/quantum/process_keycode/process_magic.o
 .debug_line    0x00000000000083b0      0x6fd .build/obj_redox_rev1_base_ad_rev2/quantum/mousekey.o
 .debug_line    0x0000000000008aad      0x548 .build/obj_redox_rev1_base_ad_rev2/quantum/send_string/send_string.o
 .debug_line    0x0000000000008ff5      0x1f7 .build/obj_redox_rev1_base_ad_rev2/quantum/process_keycode/process_space_cadet.o
 .debug_line    0x00000000000091ec      0x533 .build/obj_redox_rev1_base_ad_rev2/quantum/process_keycode/process_tap_dance.o
 .debug_line    0x000000000000971f      0x2b5 .build/obj_redox_rev1_base_ad_rev2/protocol/host.o
 .debug_line    0x00000000000099d4      0x3e5 .build/obj_redox_rev1_base_ad_rev2/protocol/report.o
 .debug_line    0x0000000000009db9      0x12b .build/obj_redox_rev1_base_ad_rev2/protocol/usb_device_state.o
 .debug_line    0x0000000000009ee4       0xf8 .build/obj_redox_rev1_base_ad_rev2/platforms/suspend.o
 .debug_line    0x0000000000009fdc       0x79 .build/obj_redox_rev1_base_ad_rev2/platforms/avr/platform.o
 .debug_line    0x000000000000a055      0x251 .build/obj_redox_rev1_base_ad_rev2/platforms/avr/suspend.o
 .debug_line    0x000000000000a2a6      0x215 .build/obj_redox_rev1_base_ad_rev2/platforms/avr/timer.o
 .debug_line    0x000000000000a4bb       0xbd .build/obj_redox_rev1_base_ad_rev2/platforms/avr/bootloaders/caterina.o
 .debug_line    0x000000000000a578      0x595 .build/obj_redox_rev1_base_ad_rev2/serial.a(serial.o)
 .debug_line    0x000000000000ab0d      0x7ce .build/obj_redox_rev1_base_ad_rev2/lufa.o
 .debug_line    0x000000000000b2db      0x272 .build/obj_redox_rev1_base_ad_rev2/usb_descriptor.o
 .debug_line    0x000000000000b54d      0x179 .build/obj_redox_rev1_base_ad_rev2/lib/lufa/LUFA/Drivers/USB/Core/AVR8/Device_AVR8.o
 .debug_line    0x000000000000b6c6     0x138a .build/obj_redox_rev1_base_ad_rev2/lib/lufa/LUFA/Drivers/USB/Core/AVR8/EndpointStream_AVR8.o
 .debug_line    0x000000000000ca50      0x4ac .build/obj_redox_rev1_base_ad_rev2/lib/lufa/LUFA/Drivers/USB/Core/AVR8/Endpoint_AVR8.o
 .debug_line    0x000000000000cefc      0x2fa .build/obj_redox_rev1_base_ad_rev2/lib/lufa/LUFA/Drivers/USB/Core/AVR8/USBController_AVR8.o
 .debug_line    0x000000000000d1f6      0x528 .build/obj_redox_rev1_base_ad_rev2/lib/lufa/LUFA/Drivers/USB/Core/AVR8/USBInterrupt_AVR8.o
 .debug_line    0x000000000000d71e      0x49c .build/obj_redox_rev1_base_ad_rev2/lib/lufa/LUFA/Drivers/USB/Core/DeviceStandardReq.o
 .debug_line    0x000000000000dbba       0xa8 .build/obj_redox_rev1_base_ad_rev2/lib/lufa/LUFA/Drivers/USB/Core/Events.o
 .debug_line    0x000000000000dc62      0x173 .build/obj_redox_rev1_base_ad_rev2/lib/lufa/LUFA/Drivers/USB/Core/USBTask.o
 .debug_line    0x000000000000ddd5      0x220 .build/obj_redox_rev1_base_ad_rev2/protocol/lufa/usb_util.o

.debug_frame    0x0000000000000000     0x33d8
 *(.debug_frame)
 .debug_frame   0x0000000000000000       0x6c .build/obj_redox_rev1_base_ad_rev2/quantum/keymap_introspection.o
 .debug_frame   0x000000000000006c      0x2c4 .build/obj_redox_rev1_base_ad_rev2/quantum/quantum.o
 .debug_frame   0x0000000000000330       0xe0 .build/obj_redox_rev1_base_ad_rev2/quantum/led.o
 .debug_frame   0x0000000000000410      0x208 .build/obj_redox_rev1_base_ad_rev2/quantum/action.o
 .debug_frame   0x0000000000000618      0x238 .build/obj_redox_rev1_base_ad_rev2/quantum/action_layer.o
 .debug_frame   0x0000000000000850       0xb8 .build/obj_redox_rev1_base_ad_rev2/quantum/action_tapping.o
 .debug_frame   0x0000000000000908      0x314 .build/obj_redox_rev1_base_ad_rev2/quantum/action_util.o
 .debug_frame   0x0000000000000c1c      0x19c .build/obj_redox_rev1_base_ad_rev2/quantum/eeconfig.o
 .debug_frame   0x0000000000000db8      0x234 .build/obj_redox_rev1_base_ad_rev2/quantum/keyboard.o
 .debug_frame   0x0000000000000fec       0x54 .build/obj_redox_rev1_base_ad_rev2/quantum/keymap_common.o
 .debug_frame   0x0000000000001040       0x34 .build/obj_redox_rev1_base_ad_rev2/quantum/keycode_config.o
 .debug_frame   0x0000000000001074       0xb4 .build/obj_redox_rev1_base_ad_rev2/quantum/sync_timer.o
 .debug_frame   0x0000000000001128       0x24 .build/obj_redox_rev1_base_ad_rev2/quantum/logging/sendchar.o
 .debug_frame   0x000000000000114c      0x16c .build/obj_redox_rev1_base_ad_rev2/quantum/matrix_common.o
 .debug_frame   0x00000000000012b8       0xac .build/obj_redox_rev1_base_ad_rev2/quantum/matrix.o
 .debug_frame   0x0000000000001364       0x58 .build/obj_redox_rev1_base_ad_rev2/quantum/debounce/sym_defer_g.o
 .debug_frame   0x00000000000013bc       0xb0 .build/obj_redox_rev1_base_ad_rev2/quantum/split_common/split_util.o
 .debug_frame   0x000000000000146c       0x78 .build/obj_redox_rev1_base_ad_rev2/quantum/split_common/transport.o
 .debug_frame   0x00000000000014e4       0xe4 .build/obj_redox_rev1_base_ad_rev2/quantum/split_common/transactions.o
 .debug_frame   0x00000000000015c8       0x34 .build/obj_redox_rev1_base_ad_rev2/quantum/main.o
 .debug_frame   0x00000000000015fc       0x24 .build/obj_redox_rev1_base_ad_rev2/platforms/avr/printf.o
 .debug_frame   0x0000000000001620       0x64 .build/obj_redox_rev1_base_ad_rev2/quantum/color.o
 .debug_frame   0x0000000000001684      0x7e0 .build/obj_redox_rev1_base_ad_rev2/quantum/rgblight/rgblight.o
 .debug_frame   0x0000000000001e64       0x60 .build/obj_redox_rev1_base_ad_rev2/quantum/process_keycode/process_rgb.o
 .debug_frame   0x0000000000001ec4       0x24 .build/obj_redox_rev1_base_ad_rev2/quantum/process_keycode/process_unicode.o
 .debug_frame   0x0000000000001ee8       0x38 .build/obj_redox_rev1_base_ad_rev2/quantum/process_keycode/process_unicode_common.o
 .debug_frame   0x0000000000001f20      0x184 .build/obj_redox_rev1_base_ad_rev2/quantum/unicode/unicode.o
 .debug_frame   0x00000000000020a4       0x34 .build/obj_redox_rev1_base_ad_rev2/ws2812_bitbang.o
 .debug_frame   0x00000000000020d8       0x54 .build/obj_redox_rev1_base_ad_rev2/quantum/bootmagic/bootmagic.o
 .debug_frame   0x000000000000212c       0x5c .build/obj_redox_rev1_base_ad_rev2/quantum/command.o
 .debug_frame   0x0000000000002188       0x34 .build/obj_redox_rev1_base_ad_rev2/quantum/crc.o
 .debug_frame   0x00000000000021bc       0x30 .build/obj_redox_rev1_base_ad_rev2/quantum/process_keycode/process_grave_esc.o
 .debug_frame   0x00000000000021ec       0x30 .build/obj_redox_rev1_base_ad_rev2/quantum/process_keycode/process_magic.o
 .debug_frame   0x000000000000221c       0xc8 .build/obj_redox_rev1_base_ad_rev2/quantum/mousekey.o
 .debug_frame   0x00000000000022e4      0x140 .build/obj_redox_rev1_base_ad_rev2/quantum/send_string/send_string.o
 .debug_frame   0x0000000000002424       0x60 .build/obj_redox_rev1_base_ad_rev2/quantum/process_keycode/process_space_cadet.o
 .debug_frame   0x0000000000002484      0x130 .build/obj_redox_rev1_base_ad_rev2/quantum/process_keycode/process_tap_dance.o
 .debug_frame   0x00000000000025b4      0x114 .build/obj_redox_rev1_base_ad_rev2/protocol/host.o
 .debug_frame   0x00000000000026c8       0xd0 .build/obj_redox_rev1_base_ad_rev2/protocol/report.o
 .debug_frame   0x0000000000002798       0x84 .build/obj_redox_rev1_base_ad_rev2/protocol/usb_device_state.o
 .debug_frame   0x000000000000281c       0x8c .build/obj_redox_rev1_base_ad_rev2/platforms/suspend.o
 .debug_frame   0x00000000000028a8       0x24 .build/obj_redox_rev1_base_ad_rev2/platforms/avr/platform.o
 .debug_frame   0x00000000000028cc       0x64 .build/obj_redox_rev1_base_ad_rev2/platforms/avr/suspend.o
 .debug_frame   0x0000000000002930       0xb8 .build/obj_redox_rev1_base_ad_rev2/platforms/avr/timer.o
 .debug_frame   0x00000000000029e8       0x34 .build/obj_redox_rev1_base_ad_rev2/platforms/avr/bootloaders/caterina.o
 .debug_frame   0x0000000000002a1c      0x154 .build/obj_redox_rev1_base_ad_rev2/serial.a(serial.o)
 .debug_frame   0x0000000000002b70      0x180 .build/obj_redox_rev1_base_ad_rev2/lufa.o
 .debug_frame   0x0000000000002cf0       0x24 .build/obj_redox_rev1_base_ad_rev2/usb_descriptor.o
 .debug_frame   0x0000000000002d14       0x24 .build/obj_redox_rev1_base_ad_rev2/lib/lufa/LUFA/Drivers/USB/Core/AVR8/Device_AVR8.o
 .debug_frame   0x0000000000002d38      0x404 .build/obj_redox_rev1_base_ad_rev2/lib/lufa/LUFA/Drivers/USB/Core/AVR8/EndpointStream_AVR8.o
 .debug_frame   0x000000000000313c       0x78 .build/obj_redox_rev1_base_ad_rev2/lib/lufa/LUFA/Drivers/USB/Core/AVR8/Endpoint_AVR8.o
 .debug_frame   0x00000000000031b4       0x58 .build/obj_redox_rev1_base_ad_rev2/lib/lufa/LUFA/Drivers/USB/Core/AVR8/USBController_AVR8.o
 .debug_frame   0x000000000000320c       0xe8 .build/obj_redox_rev1_base_ad_rev2/lib/lufa/LUFA/Drivers/USB/Core/AVR8/USBInterrupt_AVR8.o
 .debug_frame   0x00000000000032f4       0x30 .build/obj_redox_rev1_base_ad_rev2/lib/lufa/LUFA/Drivers/USB/Core/DeviceStandardReq.o
 .debug_frame   0x0000000000003324       0x44 .build/obj_redox_rev1_base_ad_rev2/lib/lufa/LUFA/Drivers/USB/Core/Events.o
 .debug_frame   0x0000000000003368       0x2c .build/obj_redox_rev1_base_ad_rev2/lib/lufa/LUFA/Drivers/USB/Core/USBTask.o
 .debug_frame   0x0000000000003394       0x44 .build/obj_redox_rev1_base_ad_rev2/protocol/lufa/usb_util.o

.debug_str      0x0000000000000000     0xb875
 *(.debug_str)
 .debug_str     0x0000000000000000      0x371 /usr/lib/gcc/avr/7.3.0/../../../avr/lib/avr5/crtatmega32u4.o
 .debug_str     0x0000000000000371     0x4d31 .build/obj_redox_rev1_base_ad_rev2/quantum/keymap_introspection.o
                                       0x4efa (size before relaxing)
 .debug_str     0x00000000000050a2      0x430 .build/obj_redox_rev1_base_ad_rev2/quantum/quantum.o
                                       0x524b (size before relaxing)
 .debug_str     0x00000000000054d2      0x103 .build/obj_redox_rev1_base_ad_rev2/quantum/led.o
                                        0x3b9 (size before relaxing)
 .debug_str     0x00000000000055d5      0xa37 .build/obj_redox_rev1_base_ad_rev2/quantum/action.o
                                       0x565a (size before relaxing)
 .debug_str     0x000000000000600c      0x164 .build/obj_redox_rev1_base_ad_rev2/quantum/action_layer.o
                                        0x5ec (size before relaxing)
 .debug_str     0x0000000000006170       0xdc .build/obj_redox_rev1_base_ad_rev2/quantum/action_tapping.o
                                       0x4634 (size before relaxing)
 .debug_str     0x000000000000624c      0x2ae .build/obj_redox_rev1_base_ad_rev2/quantum/action_util.o
                                        0x8b4 (size before relaxing)
 .debug_str     0x00000000000064fa      0x290 .build/obj_redox_rev1_base_ad_rev2/quantum/eeconfig.o
                                        0x4f7 (size before relaxing)
 .debug_str     0x000000000000678a      0x50f .build/obj_redox_rev1_base_ad_rev2/quantum/keyboard.o
                                        0xf78 (size before relaxing)
 .debug_str     0x0000000000006c99       0x52 .build/obj_redox_rev1_base_ad_rev2/quantum/keymap_common.o
                                       0x4e7a (size before relaxing)
 .debug_str     0x0000000000006ceb       0x6b .build/obj_redox_rev1_base_ad_rev2/quantum/keycode_config.o
                                       0x4309 (size before relaxing)
 .debug_str     0x0000000000006d56       0x58 .build/obj_redox_rev1_base_ad_rev2/quantum/sync_timer.o
                                        0x2bc (size before relaxing)
 .debug_str     0x0000000000006dae       0x18 .build/obj_redox_rev1_base_ad_rev2/quantum/logging/debug.o
                                        0x237 (size before relaxing)
 .debug_str     0x0000000000006dc6       0x1b .build/obj_redox_rev1_base_ad_rev2/quantum/logging/sendchar.o
                                        0x1d9 (size before relaxing)
 .debug_str     0x0000000000006de1      0x3ce .build/obj_redox_rev1_base_ad_rev2/quantum/matrix_common.o
                                        0x9c6 (size before relaxing)
 .debug_str     0x00000000000071af      0x125 .build/obj_redox_rev1_base_ad_rev2/quantum/matrix.o
                                        0x91e (size before relaxing)
 .debug_str     0x00000000000072d4       0xb4 .build/obj_redox_rev1_base_ad_rev2/quantum/debounce/sym_defer_g.o
                                        0x2e5 (size before relaxing)
 .debug_str     0x0000000000007388      0x122 .build/obj_redox_rev1_base_ad_rev2/quantum/split_common/split_util.o
                                        0x7cc (size before relaxing)
 .debug_str     0x00000000000074aa      0x11f .build/obj_redox_rev1_base_ad_rev2/quantum/split_common/transport.o
                                        0x8e2 (size before relaxing)
 .debug_str     0x00000000000075c9      0x23a .build/obj_redox_rev1_base_ad_rev2/quantum/split_common/transactions.o
                                        0xb16 (size before relaxing)
 .debug_str     0x0000000000007803       0x93 .build/obj_redox_rev1_base_ad_rev2/quantum/main.o
                                        0x291 (size before relaxing)
 .debug_str     0x0000000000007896       0x31 .build/obj_redox_rev1_base_ad_rev2/platforms/avr/printf.o
                                        0x1fe (size before relaxing)
 .debug_str     0x00000000000078c7       0x58 .build/obj_redox_rev1_base_ad_rev2/quantum/color.o
                                        0x23c (size before relaxing)
 .debug_str     0x000000000000791f      0xf9c .build/obj_redox_rev1_base_ad_rev2/quantum/rgblight/rgblight.o
                                       0x164a (size before relaxing)
 .debug_str     0x00000000000088bb       0x24 .build/obj_redox_rev1_base_ad_rev2/quantum/rgblight/rgblight_drivers.o
                                        0x214 (size before relaxing)
 .debug_str     0x00000000000088df       0xf2 .build/obj_redox_rev1_base_ad_rev2/quantum/process_keycode/process_rgb.o
                                       0x4b2f (size before relaxing)
 .debug_str     0x00000000000089d1       0x15 .build/obj_redox_rev1_base_ad_rev2/quantum/led_tables.o
                                        0x1d1 (size before relaxing)
 .debug_str     0x00000000000089e6       0x4b .build/obj_redox_rev1_base_ad_rev2/quantum/process_keycode/process_unicode.o
                                        0x830 (size before relaxing)
 .debug_str     0x0000000000008a31       0xa7 .build/obj_redox_rev1_base_ad_rev2/quantum/process_keycode/process_unicode_common.o
                                       0x4687 (size before relaxing)
 .debug_str     0x0000000000008ad8      0x1bb .build/obj_redox_rev1_base_ad_rev2/quantum/unicode/unicode.o
                                       0x4d35 (size before relaxing)
 .debug_str     0x0000000000008c93       0x97 .build/obj_redox_rev1_base_ad_rev2/ws2812_bitbang.o
                                        0x2a8 (size before relaxing)
 .debug_str     0x0000000000008d2a       0x5b .build/obj_redox_rev1_base_ad_rev2/quantum/bootmagic/bootmagic.o
                                        0x2c1 (size before relaxing)
 .debug_str     0x0000000000008d85       0xc4 .build/obj_redox_rev1_base_ad_rev2/quantum/command.o
                                       0x4b22 (size before relaxing)
 .debug_str     0x0000000000008e49       0x2b .build/obj_redox_rev1_base_ad_rev2/quantum/crc.o
                                        0x1ff (size before relaxing)
 .debug_str     0x0000000000008e74       0x42 .build/obj_redox_rev1_base_ad_rev2/quantum/process_keycode/process_grave_esc.o
                                       0x442b (size before relaxing)
 .debug_str     0x0000000000008eb6       0x28 .build/obj_redox_rev1_base_ad_rev2/quantum/process_keycode/process_magic.o
                                       0x442c (size before relaxing)
 .debug_str     0x0000000000008ede      0x144 .build/obj_redox_rev1_base_ad_rev2/quantum/mousekey.o
                                       0x444b (size before relaxing)
 .debug_str     0x0000000000009022       0xc1 .build/obj_redox_rev1_base_ad_rev2/quantum/send_string/send_string.o
                                       0x455f (size before relaxing)
 .debug_str     0x00000000000090e3       0x7f .build/obj_redox_rev1_base_ad_rev2/quantum/process_keycode/process_space_cadet.o
                                       0x43d6 (size before relaxing)
 .debug_str     0x0000000000009162      0x1d5 .build/obj_redox_rev1_base_ad_rev2/quantum/process_keycode/process_tap_dance.o
                                       0x10d1 (size before relaxing)
 .debug_str     0x0000000000009337      0x231 .build/obj_redox_rev1_base_ad_rev2/protocol/host.o
                                        0x70a (size before relaxing)
 .debug_str     0x0000000000009568       0x7d .build/obj_redox_rev1_base_ad_rev2/protocol/report.o
                                       0x4486 (size before relaxing)
 .debug_str     0x00000000000095e5      0x1ad .build/obj_redox_rev1_base_ad_rev2/protocol/usb_device_state.o
                                        0x361 (size before relaxing)
 .debug_str     0x0000000000009792       0x80 .build/obj_redox_rev1_base_ad_rev2/platforms/suspend.o
                                        0x27c (size before relaxing)
 .debug_str     0x0000000000009812       0x26 .build/obj_redox_rev1_base_ad_rev2/platforms/avr/platform.o
                                        0x1e3 (size before relaxing)
 .debug_str     0x0000000000009838      0x20b .build/obj_redox_rev1_base_ad_rev2/platforms/avr/suspend.o
                                        0x569 (size before relaxing)
 .debug_str     0x0000000000009a43       0x43 .build/obj_redox_rev1_base_ad_rev2/platforms/avr/timer.o
                                        0x273 (size before relaxing)
 .debug_str     0x0000000000009a86       0x43 .build/obj_redox_rev1_base_ad_rev2/platforms/avr/bootloaders/caterina.o
                                        0x21a (size before relaxing)
 .debug_str     0x0000000000009ac9      0x281 .build/obj_redox_rev1_base_ad_rev2/serial.a(serial.o)
                                        0x8ff (size before relaxing)
 .debug_str     0x0000000000009d4a      0x585 .build/obj_redox_rev1_base_ad_rev2/lufa.o
                                        0xe13 (size before relaxing)
 .debug_str     0x000000000000a2cf      0x6a9 .build/obj_redox_rev1_base_ad_rev2/usb_descriptor.o
                                        0xb58 (size before relaxing)
 .debug_str     0x000000000000a978       0x5e .build/obj_redox_rev1_base_ad_rev2/lib/lufa/LUFA/Drivers/USB/Core/AVR8/Device_AVR8.o
                                        0x318 (size before relaxing)
 .debug_str     0x000000000000a9d6      0x4a3 .build/obj_redox_rev1_base_ad_rev2/lib/lufa/LUFA/Drivers/USB/Core/AVR8/EndpointStream_AVR8.o
                                        0x90c (size before relaxing)
 .debug_str     0x000000000000ae79      0x254 .build/obj_redox_rev1_base_ad_rev2/lib/lufa/LUFA/Drivers/USB/Core/AVR8/Endpoint_AVR8.o
                                        0x6cc (size before relaxing)
 .debug_str     0x000000000000b0cd      0x181 .build/obj_redox_rev1_base_ad_rev2/lib/lufa/LUFA/Drivers/USB/Core/AVR8/USBController_AVR8.o
                                        0x5f0 (size before relaxing)
 .debug_str     0x000000000000b24e      0x146 .build/obj_redox_rev1_base_ad_rev2/lib/lufa/LUFA/Drivers/USB/Core/AVR8/USBInterrupt_AVR8.o
                                        0x6c0 (size before relaxing)
 .debug_str     0x000000000000b394      0x40d .build/obj_redox_rev1_base_ad_rev2/lib/lufa/LUFA/Drivers/USB/Core/DeviceStandardReq.o
                                        0x9fd (size before relaxing)
 .debug_str     0x000000000000b7a1       0x59 .build/obj_redox_rev1_base_ad_rev2/lib/lufa/LUFA/Drivers/USB/Core/Events.o
                                        0x213 (size before relaxing)
 .debug_str     0x000000000000b7fa       0x45 .build/obj_redox_rev1_base_ad_rev2/lib/lufa/LUFA/Drivers/USB/Core/USBTask.o
                                        0x41f (size before relaxing)
 .debug_str     0x000000000000b83f       0x36 .build/obj_redox_rev1_base_ad_rev2/protocol/lufa/usb_util.o
                                        0x464 (size before relaxing)

.debug_loc      0x0000000000000000     0xe380
 *(.debug_loc)
 .debug_loc     0x0000000000000000      0x37b .build/obj_redox_rev1_base_ad_rev2/quantum/keymap_introspection.o
 .debug_loc     0x000000000000037b      0xbff .build/obj_redox_rev1_base_ad_rev2/quantum/quantum.o
 .debug_loc     0x0000000000000f7a      0x12d .build/obj_redox_rev1_base_ad_rev2/quantum/led.o
 .debug_loc     0x00000000000010a7      0xb32 .build/obj_redox_rev1_base_ad_rev2/quantum/action.o
 .debug_loc     0x0000000000001bd9      0x873 .build/obj_redox_rev1_base_ad_rev2/quantum/action_layer.o
 .debug_loc     0x000000000000244c      0x46f .build/obj_redox_rev1_base_ad_rev2/quantum/action_tapping.o
 .debug_loc     0x00000000000028bb      0x380 .build/obj_redox_rev1_base_ad_rev2/quantum/action_util.o
 .debug_loc     0x0000000000002c3b      0x1f8 .build/obj_redox_rev1_base_ad_rev2/quantum/eeconfig.o
 .debug_loc     0x0000000000002e33      0x271 .build/obj_redox_rev1_base_ad_rev2/quantum/keyboard.o
 .debug_loc     0x00000000000030a4      0x40e .build/obj_redox_rev1_base_ad_rev2/quantum/keymap_common.o
 .debug_loc     0x00000000000034b2      0x1c7 .build/obj_redox_rev1_base_ad_rev2/quantum/keycode_config.o
 .debug_loc     0x0000000000003679      0x18e .build/obj_redox_rev1_base_ad_rev2/quantum/sync_timer.o
 .debug_loc     0x0000000000003807       0x21 .build/obj_redox_rev1_base_ad_rev2/quantum/logging/sendchar.o
 .debug_loc     0x0000000000003828      0x249 .build/obj_redox_rev1_base_ad_rev2/quantum/matrix_common.o
 .debug_loc     0x0000000000003a71      0x48b .build/obj_redox_rev1_base_ad_rev2/quantum/matrix.o
 .debug_loc     0x0000000000003efc      0x12e .build/obj_redox_rev1_base_ad_rev2/quantum/debounce/sym_defer_g.o
 .debug_loc     0x000000000000402a      0x17b .build/obj_redox_rev1_base_ad_rev2/quantum/split_common/split_util.o
 .debug_loc     0x00000000000041a5      0x1f2 .build/obj_redox_rev1_base_ad_rev2/quantum/split_common/transport.o
 .debug_loc     0x0000000000004397      0x5a4 .build/obj_redox_rev1_base_ad_rev2/quantum/split_common/transactions.o
 .debug_loc     0x000000000000493b      0x1aa .build/obj_redox_rev1_base_ad_rev2/quantum/color.o
 .debug_loc     0x0000000000004ae5     0x21ba .build/obj_redox_rev1_base_ad_rev2/quantum/rgblight/rgblight.o
 .debug_loc     0x0000000000006c9f      0x249 .build/obj_redox_rev1_base_ad_rev2/quantum/process_keycode/process_rgb.o
 .debug_loc     0x0000000000006ee8       0x5c .build/obj_redox_rev1_base_ad_rev2/quantum/process_keycode/process_unicode.o
 .debug_loc     0x0000000000006f44      0x165 .build/obj_redox_rev1_base_ad_rev2/quantum/process_keycode/process_unicode_common.o
 .debug_loc     0x00000000000070a9      0x538 .build/obj_redox_rev1_base_ad_rev2/quantum/unicode/unicode.o
 .debug_loc     0x00000000000075e1      0x1af .build/obj_redox_rev1_base_ad_rev2/ws2812_bitbang.o
 .debug_loc     0x0000000000007790       0x48 .build/obj_redox_rev1_base_ad_rev2/quantum/bootmagic/bootmagic.o
 .debug_loc     0x00000000000077d8      0x2e2 .build/obj_redox_rev1_base_ad_rev2/quantum/command.o
 .debug_loc     0x0000000000007aba      0x135 .build/obj_redox_rev1_base_ad_rev2/quantum/crc.o
 .debug_loc     0x0000000000007bef      0x14b .build/obj_redox_rev1_base_ad_rev2/quantum/process_keycode/process_grave_esc.o
 .debug_loc     0x0000000000007d3a       0xab .build/obj_redox_rev1_base_ad_rev2/quantum/process_keycode/process_magic.o
 .debug_loc     0x0000000000007de5      0x326 .build/obj_redox_rev1_base_ad_rev2/quantum/mousekey.o
 .debug_loc     0x000000000000810b      0xee6 .build/obj_redox_rev1_base_ad_rev2/quantum/send_string/send_string.o
 .debug_loc     0x0000000000008ff1      0x34c .build/obj_redox_rev1_base_ad_rev2/quantum/process_keycode/process_space_cadet.o
 .debug_loc     0x000000000000933d      0x75d .build/obj_redox_rev1_base_ad_rev2/quantum/process_keycode/process_tap_dance.o
 .debug_loc     0x0000000000009a9a      0x11e .build/obj_redox_rev1_base_ad_rev2/protocol/host.o
 .debug_loc     0x0000000000009bb8      0x370 .build/obj_redox_rev1_base_ad_rev2/protocol/report.o
 .debug_loc     0x0000000000009f28      0x104 .build/obj_redox_rev1_base_ad_rev2/protocol/usb_device_state.o
 .debug_loc     0x000000000000a02c       0x4c .build/obj_redox_rev1_base_ad_rev2/platforms/suspend.o
 .debug_loc     0x000000000000a078       0x77 .build/obj_redox_rev1_base_ad_rev2/platforms/avr/suspend.o
 .debug_loc     0x000000000000a0ef      0x21d .build/obj_redox_rev1_base_ad_rev2/platforms/avr/timer.o
 .debug_loc     0x000000000000a30c      0x953 .build/obj_redox_rev1_base_ad_rev2/serial.a(serial.o)
 .debug_loc     0x000000000000ac5f      0x435 .build/obj_redox_rev1_base_ad_rev2/lufa.o
 .debug_loc     0x000000000000b094      0x272 .build/obj_redox_rev1_base_ad_rev2/usb_descriptor.o
 .debug_loc     0x000000000000b306     0x2400 .build/obj_redox_rev1_base_ad_rev2/lib/lufa/LUFA/Drivers/USB/Core/AVR8/EndpointStream_AVR8.o
 .debug_loc     0x000000000000d706      0x422 .build/obj_redox_rev1_base_ad_rev2/lib/lufa/LUFA/Drivers/USB/Core/AVR8/Endpoint_AVR8.o
 .debug_loc     0x000000000000db28       0xd5 .build/obj_redox_rev1_base_ad_rev2/lib/lufa/LUFA/Drivers/USB/Core/AVR8/USBController_AVR8.o
 .debug_loc     0x000000000000dbfd      0x3e7 .build/obj_redox_rev1_base_ad_rev2/lib/lufa/LUFA/Drivers/USB/Core/AVR8/USBInterrupt_AVR8.o
 .debug_loc     0x000000000000dfe4      0x30e .build/obj_redox_rev1_base_ad_rev2/lib/lufa/LUFA/Drivers/USB/Core/DeviceStandardReq.o
 .debug_loc     0x000000000000e2f2       0x49 .build/obj_redox_rev1_base_ad_rev2/lib/lufa/LUFA/Drivers/USB/Core/USBTask.o
 .debug_loc     0x000000000000e33b       0x45 .build/obj_redox_rev1_base_ad_rev2/protocol/lufa/usb_util.o

.debug_macinfo
 *(.debug_macinfo)

.debug_weaknames
 *(.debug_weaknames)

.debug_funcnames
 *(.debug_funcnames)

.debug_typenames
 *(.debug_typenames)

.debug_varnames
 *(.debug_varnames)

.debug_pubtypes
 *(.debug_pubtypes)

.debug_ranges   0x0000000000000000     0x1d20
 *(.debug_ranges)
 .debug_ranges  0x0000000000000000       0x30 .build/obj_redox_rev1_base_ad_rev2/quantum/keymap_introspection.o
 .debug_ranges  0x0000000000000030      0x148 .build/obj_redox_rev1_base_ad_rev2/quantum/quantum.o
 .debug_ranges  0x0000000000000178       0x60 .build/obj_redox_rev1_base_ad_rev2/quantum/led.o
 .debug_ranges  0x00000000000001d8      0x178 .build/obj_redox_rev1_base_ad_rev2/quantum/action.o
 .debug_ranges  0x0000000000000350      0x138 .build/obj_redox_rev1_base_ad_rev2/quantum/action_layer.o
 .debug_ranges  0x0000000000000488       0xb0 .build/obj_redox_rev1_base_ad_rev2/quantum/action_tapping.o
 .debug_ranges  0x0000000000000538      0x168 .build/obj_redox_rev1_base_ad_rev2/quantum/action_util.o
 .debug_ranges  0x00000000000006a0       0xc8 .build/obj_redox_rev1_base_ad_rev2/quantum/eeconfig.o
 .debug_ranges  0x0000000000000768      0x128 .build/obj_redox_rev1_base_ad_rev2/quantum/keyboard.o
 .debug_ranges  0x0000000000000890       0x20 .build/obj_redox_rev1_base_ad_rev2/quantum/keymap_common.o
 .debug_ranges  0x00000000000008b0       0x18 .build/obj_redox_rev1_base_ad_rev2/quantum/keycode_config.o
 .debug_ranges  0x00000000000008c8       0x38 .build/obj_redox_rev1_base_ad_rev2/quantum/sync_timer.o
 .debug_ranges  0x0000000000000900       0x10 .build/obj_redox_rev1_base_ad_rev2/quantum/logging/sendchar.o
 .debug_ranges  0x0000000000000910       0xa8 .build/obj_redox_rev1_base_ad_rev2/quantum/matrix_common.o
 .debug_ranges  0x00000000000009b8       0x68 .build/obj_redox_rev1_base_ad_rev2/quantum/matrix.o
 .debug_ranges  0x0000000000000a20       0x20 .build/obj_redox_rev1_base_ad_rev2/quantum/debounce/sym_defer_g.o
 .debug_ranges  0x0000000000000a40       0x60 .build/obj_redox_rev1_base_ad_rev2/quantum/split_common/split_util.o
 .debug_ranges  0x0000000000000aa0       0x30 .build/obj_redox_rev1_base_ad_rev2/quantum/split_common/transport.o
 .debug_ranges  0x0000000000000ad0       0x88 .build/obj_redox_rev1_base_ad_rev2/quantum/split_common/transactions.o
 .debug_ranges  0x0000000000000b58       0x18 .build/obj_redox_rev1_base_ad_rev2/quantum/main.o
 .debug_ranges  0x0000000000000b70       0x10 .build/obj_redox_rev1_base_ad_rev2/platforms/avr/printf.o
 .debug_ranges  0x0000000000000b80       0x20 .build/obj_redox_rev1_base_ad_rev2/quantum/color.o
 .debug_ranges  0x0000000000000ba0      0x480 .build/obj_redox_rev1_base_ad_rev2/quantum/rgblight/rgblight.o
 .debug_ranges  0x0000000000001020       0x38 .build/obj_redox_rev1_base_ad_rev2/quantum/process_keycode/process_rgb.o
 .debug_ranges  0x0000000000001058       0x10 .build/obj_redox_rev1_base_ad_rev2/quantum/process_keycode/process_unicode.o
 .debug_ranges  0x0000000000001068       0x28 .build/obj_redox_rev1_base_ad_rev2/quantum/process_keycode/process_unicode_common.o
 .debug_ranges  0x0000000000001090       0xa0 .build/obj_redox_rev1_base_ad_rev2/quantum/unicode/unicode.o
 .debug_ranges  0x0000000000001130       0x38 .build/obj_redox_rev1_base_ad_rev2/ws2812_bitbang.o
 .debug_ranges  0x0000000000001168       0x28 .build/obj_redox_rev1_base_ad_rev2/quantum/bootmagic/bootmagic.o
 .debug_ranges  0x0000000000001190       0x88 .build/obj_redox_rev1_base_ad_rev2/quantum/command.o
 .debug_ranges  0x0000000000001218       0x18 .build/obj_redox_rev1_base_ad_rev2/quantum/crc.o
 .debug_ranges  0x0000000000001230       0x28 .build/obj_redox_rev1_base_ad_rev2/quantum/process_keycode/process_grave_esc.o
 .debug_ranges  0x0000000000001258       0x10 .build/obj_redox_rev1_base_ad_rev2/quantum/process_keycode/process_magic.o
 .debug_ranges  0x0000000000001268       0x58 .build/obj_redox_rev1_base_ad_rev2/quantum/mousekey.o
 .debug_ranges  0x00000000000012c0      0x150 .build/obj_redox_rev1_base_ad_rev2/quantum/send_string/send_string.o
 .debug_ranges  0x0000000000001410       0x20 .build/obj_redox_rev1_base_ad_rev2/quantum/process_keycode/process_space_cadet.o
 .debug_ranges  0x0000000000001430       0x70 .build/obj_redox_rev1_base_ad_rev2/quantum/process_keycode/process_tap_dance.o
 .debug_ranges  0x00000000000014a0       0x70 .build/obj_redox_rev1_base_ad_rev2/protocol/host.o
 .debug_ranges  0x0000000000001510       0x60 .build/obj_redox_rev1_base_ad_rev2/protocol/report.o
 .debug_ranges  0x0000000000001570       0x30 .build/obj_redox_rev1_base_ad_rev2/protocol/usb_device_state.o
 .debug_ranges  0x00000000000015a0       0x40 .build/obj_redox_rev1_base_ad_rev2/platforms/suspend.o
 .debug_ranges  0x00000000000015e0       0x10 .build/obj_redox_rev1_base_ad_rev2/platforms/avr/platform.o
 .debug_ranges  0x00000000000015f0       0x20 .build/obj_redox_rev1_base_ad_rev2/platforms/avr/suspend.o
 .debug_ranges  0x0000000000001610       0x40 .build/obj_redox_rev1_base_ad_rev2/platforms/avr/timer.o
 .debug_ranges  0x0000000000001650       0x18 .build/obj_redox_rev1_base_ad_rev2/platforms/avr/bootloaders/caterina.o
 .debug_ranges  0x0000000000001668       0xc0 .build/obj_redox_rev1_base_ad_rev2/serial.a(serial.o)
 .debug_ranges  0x0000000000001728       0xc0 .build/obj_redox_rev1_base_ad_rev2/lufa.o
 .debug_ranges  0x00000000000017e8       0x28 .build/obj_redox_rev1_base_ad_rev2/usb_descriptor.o
 .debug_ranges  0x0000000000001810       0x10 .build/obj_redox_rev1_base_ad_rev2/lib/lufa/LUFA/Drivers/USB/Core/AVR8/Device_AVR8.o
 .debug_ranges  0x0000000000001820      0x238 .build/obj_redox_rev1_base_ad_rev2/lib/lufa/LUFA/Drivers/USB/Core/AVR8/EndpointStream_AVR8.o
 .debug_ranges  0x0000000000001a58       0xe8 .build/obj_redox_rev1_base_ad_rev2/lib/lufa/LUFA/Drivers/USB/Core/AVR8/Endpoint_AVR8.o
 .debug_ranges  0x0000000000001b40       0x20 .build/obj_redox_rev1_base_ad_rev2/lib/lufa/LUFA/Drivers/USB/Core/AVR8/USBController_AVR8.o
 .debug_ranges  0x0000000000001b60       0x28 .build/obj_redox_rev1_base_ad_rev2/lib/lufa/LUFA/Drivers/USB/Core/AVR8/USBInterrupt_AVR8.o
 .debug_ranges  0x0000000000001b88      0x100 .build/obj_redox_rev1_base_ad_rev2/lib/lufa/LUFA/Drivers/USB/Core/DeviceStandardReq.o
 .debug_ranges  0x0000000000001c88       0x20 .build/obj_redox_rev1_base_ad_rev2/lib/lufa/LUFA/Drivers/USB/Core/Events.o
 .debug_ranges  0x0000000000001ca8       0x58 .build/obj_redox_rev1_base_ad_rev2/lib/lufa/LUFA/Drivers/USB/Core/USBTask.o
 .debug_ranges  0x0000000000001d00       0x20 .build/obj_redox_rev1_base_ad_rev2/protocol/lufa/usb_util.o

.debug_macro
 *(.debug_macro)
OUTPUT(.build/redox_rev1_base_ad_rev2.elf elf32-avr)
LOAD linker stubs

Cross Reference Table

Symbol                                            File
CALLBACK_HIDParser_FilterHIDReportItem            .build/obj_redox_rev1_base_ad_rev2/lib/lufa/LUFA/Drivers/USB/Class/Common/HIDParser.o
CALLBACK_USB_GetDescriptor                        .build/obj_redox_rev1_base_ad_rev2/lufa.o
                                                  .build/obj_redox_rev1_base_ad_rev2/lib/lufa/LUFA/Drivers/USB/Core/DeviceStandardReq.o
CIE1931_CURVE                                     .build/obj_redox_rev1_base_ad_rev2/quantum/led_tables.o
                                                  .build/obj_redox_rev1_base_ad_rev2/quantum/color.o
ConfigurationDescriptor                           .build/obj_redox_rev1_base_ad_rev2/usb_descriptor.o
DeviceDescriptor                                  .build/obj_redox_rev1_base_ad_rev2/usb_descriptor.o
EVENT_USB_Device_ConfigurationChanged             .build/obj_redox_rev1_base_ad_rev2/lufa.o
                                                  .build/obj_redox_rev1_base_ad_rev2/lib/lufa/LUFA/Drivers/USB/Core/DeviceStandardReq.o
EVENT_USB_Device_Connect                          .build/obj_redox_rev1_base_ad_rev2/lufa.o
                                                  .build/obj_redox_rev1_base_ad_rev2/lib/lufa/LUFA/Drivers/USB/Core/AVR8/USBInterrupt_AVR8.o
EVENT_USB_Device_ControlRequest                   .build/obj_redox_rev1_base_ad_rev2/lufa.o
                                                  .build/obj_redox_rev1_base_ad_rev2/lib/lufa/LUFA/Drivers/USB/Core/DeviceStandardReq.o
EVENT_USB_Device_Disconnect                       .build/obj_redox_rev1_base_ad_rev2/lufa.o
                                                  .build/obj_redox_rev1_base_ad_rev2/lib/lufa/LUFA/Drivers/USB/Core/AVR8/USBInterrupt_AVR8.o
EVENT_USB_Device_Reset                            .build/obj_redox_rev1_base_ad_rev2/lufa.o
                                                  .build/obj_redox_rev1_base_ad_rev2/lib/lufa/LUFA/Drivers/USB/Core/AVR8/USBInterrupt_AVR8.o
EVENT_USB_Device_StartOfFrame                     .build/obj_redox_rev1_base_ad_rev2/lib/lufa/LUFA/Drivers/USB/Core/Events.o
                                                  .build/obj_redox_rev1_base_ad_rev2/lib/lufa/LUFA/Drivers/USB/Core/AVR8/USBInterrupt_AVR8.o
EVENT_USB_Device_Suspend                          .build/obj_redox_rev1_base_ad_rev2/lufa.o
                                                  .build/obj_redox_rev1_base_ad_rev2/lib/lufa/LUFA/Drivers/USB/Core/AVR8/USBInterrupt_AVR8.o
EVENT_USB_Device_WakeUp                           .build/obj_redox_rev1_base_ad_rev2/lufa.o
                                                  .build/obj_redox_rev1_base_ad_rev2/lib/lufa/LUFA/Drivers/USB/Core/AVR8/USBInterrupt_AVR8.o
Endpoint_ClearEndpoints                           .build/obj_redox_rev1_base_ad_rev2/lib/lufa/LUFA/Drivers/USB/Core/AVR8/Endpoint_AVR8.o
Endpoint_ClearStatusStage                         .build/obj_redox_rev1_base_ad_rev2/lib/lufa/LUFA/Drivers/USB/Core/AVR8/Endpoint_AVR8.o
                                                  .build/obj_redox_rev1_base_ad_rev2/lib/lufa/LUFA/Drivers/USB/Core/DeviceStandardReq.o
                                                  .build/obj_redox_rev1_base_ad_rev2/lufa.o
Endpoint_ConfigureEndpointTable                   .build/obj_redox_rev1_base_ad_rev2/lib/lufa/LUFA/Drivers/USB/Core/AVR8/Endpoint_AVR8.o
Endpoint_ConfigureEndpoint_Prv                    .build/obj_redox_rev1_base_ad_rev2/lib/lufa/LUFA/Drivers/USB/Core/AVR8/Endpoint_AVR8.o
                                                  .build/obj_redox_rev1_base_ad_rev2/lib/lufa/LUFA/Drivers/USB/Core/AVR8/USBInterrupt_AVR8.o
                                                  .build/obj_redox_rev1_base_ad_rev2/lib/lufa/LUFA/Drivers/USB/Core/AVR8/USBController_AVR8.o
                                                  .build/obj_redox_rev1_base_ad_rev2/lufa.o
Endpoint_Discard_Stream                           .build/obj_redox_rev1_base_ad_rev2/lib/lufa/LUFA/Drivers/USB/Core/AVR8/EndpointStream_AVR8.o
Endpoint_Null_Stream                              .build/obj_redox_rev1_base_ad_rev2/lib/lufa/LUFA/Drivers/USB/Core/AVR8/EndpointStream_AVR8.o
Endpoint_Read_Control_EStream_BE                  .build/obj_redox_rev1_base_ad_rev2/lib/lufa/LUFA/Drivers/USB/Core/AVR8/EndpointStream_AVR8.o
Endpoint_Read_Control_EStream_LE                  .build/obj_redox_rev1_base_ad_rev2/lib/lufa/LUFA/Drivers/USB/Core/AVR8/EndpointStream_AVR8.o
Endpoint_Read_Control_Stream_BE                   .build/obj_redox_rev1_base_ad_rev2/lib/lufa/LUFA/Drivers/USB/Core/AVR8/EndpointStream_AVR8.o
Endpoint_Read_Control_Stream_LE                   .build/obj_redox_rev1_base_ad_rev2/lib/lufa/LUFA/Drivers/USB/Core/AVR8/EndpointStream_AVR8.o
Endpoint_Read_EStream_BE                          .build/obj_redox_rev1_base_ad_rev2/lib/lufa/LUFA/Drivers/USB/Core/AVR8/EndpointStream_AVR8.o
Endpoint_Read_EStream_LE                          .build/obj_redox_rev1_base_ad_rev2/lib/lufa/LUFA/Drivers/USB/Core/AVR8/EndpointStream_AVR8.o
Endpoint_Read_Stream_BE                           .build/obj_redox_rev1_base_ad_rev2/lib/lufa/LUFA/Drivers/USB/Core/AVR8/EndpointStream_AVR8.o
Endpoint_Read_Stream_LE                           .build/obj_redox_rev1_base_ad_rev2/lib/lufa/LUFA/Drivers/USB/Core/AVR8/EndpointStream_AVR8.o
Endpoint_WaitUntilReady                           .build/obj_redox_rev1_base_ad_rev2/lib/lufa/LUFA/Drivers/USB/Core/AVR8/Endpoint_AVR8.o
                                                  .build/obj_redox_rev1_base_ad_rev2/lib/lufa/LUFA/Drivers/USB/Core/AVR8/EndpointStream_AVR8.o
Endpoint_Write_Control_EStream_BE                 .build/obj_redox_rev1_base_ad_rev2/lib/lufa/LUFA/Drivers/USB/Core/AVR8/EndpointStream_AVR8.o
Endpoint_Write_Control_EStream_LE                 .build/obj_redox_rev1_base_ad_rev2/lib/lufa/LUFA/Drivers/USB/Core/AVR8/EndpointStream_AVR8.o
Endpoint_Write_Control_PStream_BE                 .build/obj_redox_rev1_base_ad_rev2/lib/lufa/LUFA/Drivers/USB/Core/AVR8/EndpointStream_AVR8.o
Endpoint_Write_Control_PStream_LE                 .build/obj_redox_rev1_base_ad_rev2/lib/lufa/LUFA/Drivers/USB/Core/AVR8/EndpointStream_AVR8.o
                                                  .build/obj_redox_rev1_base_ad_rev2/lib/lufa/LUFA/Drivers/USB/Core/DeviceStandardReq.o
Endpoint_Write_Control_Stream_BE                  .build/obj_redox_rev1_base_ad_rev2/lib/lufa/LUFA/Drivers/USB/Core/AVR8/EndpointStream_AVR8.o
Endpoint_Write_Control_Stream_LE                  .build/obj_redox_rev1_base_ad_rev2/lib/lufa/LUFA/Drivers/USB/Core/AVR8/EndpointStream_AVR8.o
                                                  .build/obj_redox_rev1_base_ad_rev2/lib/lufa/LUFA/Drivers/USB/Core/DeviceStandardReq.o
                                                  .build/obj_redox_rev1_base_ad_rev2/lufa.o
Endpoint_Write_EStream_BE                         .build/obj_redox_rev1_base_ad_rev2/lib/lufa/LUFA/Drivers/USB/Core/AVR8/EndpointStream_AVR8.o
Endpoint_Write_EStream_LE                         .build/obj_redox_rev1_base_ad_rev2/lib/lufa/LUFA/Drivers/USB/Core/AVR8/EndpointStream_AVR8.o
Endpoint_Write_PStream_BE                         .build/obj_redox_rev1_base_ad_rev2/lib/lufa/LUFA/Drivers/USB/Core/AVR8/EndpointStream_AVR8.o
Endpoint_Write_PStream_LE                         .build/obj_redox_rev1_base_ad_rev2/lib/lufa/LUFA/Drivers/USB/Core/AVR8/EndpointStream_AVR8.o
Endpoint_Write_Stream_BE                          .build/obj_redox_rev1_base_ad_rev2/lib/lufa/LUFA/Drivers/USB/Core/AVR8/EndpointStream_AVR8.o
Endpoint_Write_Stream_LE                          .build/obj_redox_rev1_base_ad_rev2/lib/lufa/LUFA/Drivers/USB/Core/AVR8/EndpointStream_AVR8.o
                                                  .build/obj_redox_rev1_base_ad_rev2/lufa.o
KeyboardReport                                    .build/obj_redox_rev1_base_ad_rev2/usb_descriptor.o
LanguageString                                    .build/obj_redox_rev1_base_ad_rev2/usb_descriptor.o
ManufacturerString                                .build/obj_redox_rev1_base_ad_rev2/usb_descriptor.o
ProductString                                     .build/obj_redox_rev1_base_ad_rev2/usb_descriptor.o
RGBLED_BREATHING_INTERVALS                        .build/obj_redox_rev1_base_ad_rev2/quantum/rgblight/rgblight.o
RGBLED_GRADIENT_RANGES                            .build/obj_redox_rev1_base_ad_rev2/quantum/rgblight/rgblight.o
RGBLED_KNIGHT_INTERVALS                           .build/obj_redox_rev1_base_ad_rev2/quantum/rgblight/rgblight.o
RGBLED_RAINBOW_MOOD_INTERVALS                     .build/obj_redox_rev1_base_ad_rev2/quantum/rgblight/rgblight.o
RGBLED_RAINBOW_SWIRL_INTERVALS                    .build/obj_redox_rev1_base_ad_rev2/quantum/rgblight/rgblight.o
RGBLED_RGBTEST_INTERVALS                          .build/obj_redox_rev1_base_ad_rev2/quantum/rgblight/rgblight.o
RGBLED_SNAKE_INTERVALS                            .build/obj_redox_rev1_base_ad_rev2/quantum/rgblight/rgblight.o
RGBLED_TWINKLE_INTERVALS                          .build/obj_redox_rev1_base_ad_rev2/quantum/rgblight/rgblight.o
SharedReport                                      .build/obj_redox_rev1_base_ad_rev2/usb_descriptor.o
USB_ControlRequest                                .build/obj_redox_rev1_base_ad_rev2/lib/lufa/LUFA/Drivers/USB/Core/USBTask.o
                                                  .build/obj_redox_rev1_base_ad_rev2/lib/lufa/LUFA/Drivers/USB/Core/DeviceStandardReq.o
                                                  .build/obj_redox_rev1_base_ad_rev2/lib/lufa/LUFA/Drivers/USB/Core/AVR8/Endpoint_AVR8.o
                                                  .build/obj_redox_rev1_base_ad_rev2/lib/lufa/LUFA/Drivers/USB/Core/AVR8/EndpointStream_AVR8.o
                                                  .build/obj_redox_rev1_base_ad_rev2/lufa.o
USB_DeviceState                                   .build/obj_redox_rev1_base_ad_rev2/lib/lufa/LUFA/Drivers/USB/Core/USBTask.o
                                                  .build/obj_redox_rev1_base_ad_rev2/protocol/lufa/usb_util.o
                                                  .build/obj_redox_rev1_base_ad_rev2/lib/lufa/LUFA/Drivers/USB/Core/DeviceStandardReq.o
                                                  .build/obj_redox_rev1_base_ad_rev2/lib/lufa/LUFA/Drivers/USB/Core/AVR8/USBInterrupt_AVR8.o
                                                  .build/obj_redox_rev1_base_ad_rev2/lib/lufa/LUFA/Drivers/USB/Core/AVR8/USBController_AVR8.o
                                                  .build/obj_redox_rev1_base_ad_rev2/lib/lufa/LUFA/Drivers/USB/Core/AVR8/Endpoint_AVR8.o
                                                  .build/obj_redox_rev1_base_ad_rev2/lib/lufa/LUFA/Drivers/USB/Core/AVR8/EndpointStream_AVR8.o
                                                  .build/obj_redox_rev1_base_ad_rev2/lufa.o
                                                  .build/obj_redox_rev1_base_ad_rev2/platforms/avr/suspend.o
USB_Device_ConfigurationNumber                    .build/obj_redox_rev1_base_ad_rev2/lib/lufa/LUFA/Drivers/USB/Core/DeviceStandardReq.o
                                                  .build/obj_redox_rev1_base_ad_rev2/lib/lufa/LUFA/Drivers/USB/Core/AVR8/USBInterrupt_AVR8.o
                                                  .build/obj_redox_rev1_base_ad_rev2/lib/lufa/LUFA/Drivers/USB/Core/AVR8/USBController_AVR8.o
                                                  .build/obj_redox_rev1_base_ad_rev2/lufa.o
USB_Device_CurrentlySelfPowered                   .build/obj_redox_rev1_base_ad_rev2/lib/lufa/LUFA/Drivers/USB/Core/DeviceStandardReq.o
                                                  .build/obj_redox_rev1_base_ad_rev2/lib/lufa/LUFA/Drivers/USB/Core/AVR8/USBController_AVR8.o
USB_Device_ProcessControlRequest                  .build/obj_redox_rev1_base_ad_rev2/lib/lufa/LUFA/Drivers/USB/Core/DeviceStandardReq.o
                                                  .build/obj_redox_rev1_base_ad_rev2/lib/lufa/LUFA/Drivers/USB/Core/USBTask.o
                                                  .build/obj_redox_rev1_base_ad_rev2/lib/lufa/LUFA/Drivers/USB/Core/AVR8/USBInterrupt_AVR8.o
USB_Device_RemoteWakeupEnabled                    .build/obj_redox_rev1_base_ad_rev2/lib/lufa/LUFA/Drivers/USB/Core/DeviceStandardReq.o
                                                  .build/obj_redox_rev1_base_ad_rev2/lib/lufa/LUFA/Drivers/USB/Core/AVR8/USBController_AVR8.o
                                                  .build/obj_redox_rev1_base_ad_rev2/lufa.o
USB_Device_SendRemoteWakeup                       .build/obj_redox_rev1_base_ad_rev2/lib/lufa/LUFA/Drivers/USB/Core/AVR8/Device_AVR8.o
                                                  .build/obj_redox_rev1_base_ad_rev2/lufa.o
USB_Disable                                       .build/obj_redox_rev1_base_ad_rev2/lib/lufa/LUFA/Drivers/USB/Core/AVR8/USBController_AVR8.o
                                                  .build/obj_redox_rev1_base_ad_rev2/protocol/lufa/usb_util.o
                                                  .build/obj_redox_rev1_base_ad_rev2/lufa.o
USB_Event_Stub                                    .build/obj_redox_rev1_base_ad_rev2/lib/lufa/LUFA/Drivers/USB/Core/Events.o
USB_Event_Stub_2                                  .build/obj_redox_rev1_base_ad_rev2/lib/lufa/LUFA/Drivers/USB/Core/Events.o
USB_Event_Stub_3                                  .build/obj_redox_rev1_base_ad_rev2/lib/lufa/LUFA/Drivers/USB/Core/Events.o
USB_GetHIDReportItemInfo                          .build/obj_redox_rev1_base_ad_rev2/lib/lufa/LUFA/Drivers/USB/Class/Common/HIDParser.o
USB_GetHIDReportSize                              .build/obj_redox_rev1_base_ad_rev2/lib/lufa/LUFA/Drivers/USB/Class/Common/HIDParser.o
USB_GetNextDescriptorComp                         .build/obj_redox_rev1_base_ad_rev2/lib/lufa/LUFA/Drivers/USB/Core/ConfigDescriptors.o
USB_GetNextDescriptorOfType                       .build/obj_redox_rev1_base_ad_rev2/lib/lufa/LUFA/Drivers/USB/Core/ConfigDescriptors.o
USB_GetNextDescriptorOfTypeAfter                  .build/obj_redox_rev1_base_ad_rev2/lib/lufa/LUFA/Drivers/USB/Core/ConfigDescriptors.o
USB_GetNextDescriptorOfTypeBefore                 .build/obj_redox_rev1_base_ad_rev2/lib/lufa/LUFA/Drivers/USB/Core/ConfigDescriptors.o
USB_INT_ClearAllInterrupts                        .build/obj_redox_rev1_base_ad_rev2/lib/lufa/LUFA/Drivers/USB/Core/AVR8/USBInterrupt_AVR8.o
                                                  .build/obj_redox_rev1_base_ad_rev2/lib/lufa/LUFA/Drivers/USB/Core/AVR8/USBController_AVR8.o
USB_INT_DisableAllInterrupts                      .build/obj_redox_rev1_base_ad_rev2/lib/lufa/LUFA/Drivers/USB/Core/AVR8/USBInterrupt_AVR8.o
                                                  .build/obj_redox_rev1_base_ad_rev2/lib/lufa/LUFA/Drivers/USB/Core/AVR8/USBController_AVR8.o
USB_Init                                          .build/obj_redox_rev1_base_ad_rev2/lib/lufa/LUFA/Drivers/USB/Core/AVR8/USBController_AVR8.o
                                                  .build/obj_redox_rev1_base_ad_rev2/lufa.o
USB_IsInitialized                                 .build/obj_redox_rev1_base_ad_rev2/lib/lufa/LUFA/Drivers/USB/Core/USBTask.o
                                                  .build/obj_redox_rev1_base_ad_rev2/lib/lufa/LUFA/Drivers/USB/Core/AVR8/USBController_AVR8.o
                                                  .build/obj_redox_rev1_base_ad_rev2/lufa.o
USB_ProcessHIDReport                              .build/obj_redox_rev1_base_ad_rev2/lib/lufa/LUFA/Drivers/USB/Class/Common/HIDParser.o
USB_ResetInterface                                .build/obj_redox_rev1_base_ad_rev2/lib/lufa/LUFA/Drivers/USB/Core/AVR8/USBController_AVR8.o
USB_SetHIDReportItemInfo                          .build/obj_redox_rev1_base_ad_rev2/lib/lufa/LUFA/Drivers/USB/Class/Common/HIDParser.o
USB_USBTask                                       .build/obj_redox_rev1_base_ad_rev2/lib/lufa/LUFA/Drivers/USB/Core/USBTask.o
                                                  .build/obj_redox_rev1_base_ad_rev2/lufa.o
__DATA_REGION_LENGTH__                            /usr/lib/gcc/avr/7.3.0/../../../avr/lib/avr5/crtatmega32u4.o
__DATA_REGION_ORIGIN__                            /usr/lib/gcc/avr/7.3.0/../../../avr/lib/avr5/crtatmega32u4.o
__EEPROM_REGION_LENGTH__                          /usr/lib/gcc/avr/7.3.0/../../../avr/lib/avr5/crtatmega32u4.o
__FUSE_REGION_LENGTH__                            /usr/lib/gcc/avr/7.3.0/../../../avr/lib/avr5/crtatmega32u4.o
__TEXT_REGION_LENGTH__                            /usr/lib/gcc/avr/7.3.0/../../../avr/lib/avr5/crtatmega32u4.o
__ashldi3                                         /usr/lib/gcc/avr/7.3.0/avr5/libgcc.a(_ashldi3.o)
                                                  .build/obj_redox_rev1_base_ad_rev2/quantum/rgblight/rgblight.o
__ashrdi3                                         /usr/lib/gcc/avr/7.3.0/avr5/libgcc.a(_ashrdi3.o)
__bad_interrupt                                   /usr/lib/gcc/avr/7.3.0/../../../avr/lib/avr5/crtatmega32u4.o
__bss_end                                         /usr/lib/gcc/avr/7.3.0/avr5/libgcc.a(_clear_bss.o)
__bss_start                                       /usr/lib/gcc/avr/7.3.0/avr5/libgcc.a(_clear_bss.o)
__data_end                                        /usr/lib/gcc/avr/7.3.0/avr5/libgcc.a(_copy_data.o)
__data_load_start                                 /usr/lib/gcc/avr/7.3.0/avr5/libgcc.a(_copy_data.o)
__data_start                                      /usr/lib/gcc/avr/7.3.0/avr5/libgcc.a(_copy_data.o)
__divmodhi4                                       /usr/lib/gcc/avr/7.3.0/avr5/libgcc.a(_divmodhi4.o)
                                                  .build/obj_redox_rev1_base_ad_rev2/quantum/mousekey.o
                                                  .build/obj_redox_rev1_base_ad_rev2/quantum/unicode/unicode.o
                                                  .build/obj_redox_rev1_base_ad_rev2/quantum/rgblight/rgblight.o
__divmodqi4                                       /usr/lib/gcc/avr/7.3.0/avr5/libgcc.a(_divmodqi4.o)
                                                  .build/obj_redox_rev1_base_ad_rev2/quantum/rgblight/rgblight.o
__divmodsi4                                       /usr/lib/gcc/avr/7.3.0/avr5/libgcc.a(_divmodsi4.o)
                                                  /usr/lib/gcc/avr/7.3.0/../../../avr/lib/avr5/libc.a(rand.o)
__do_clear_bss                                    /usr/lib/gcc/avr/7.3.0/avr5/libgcc.a(_clear_bss.o)
                                                  .build/obj_redox_rev1_base_ad_rev2/lib/lufa/LUFA/Drivers/USB/Core/USBTask.o
                                                  .build/obj_redox_rev1_base_ad_rev2/lib/lufa/LUFA/Drivers/USB/Core/DeviceStandardReq.o
                                                  .build/obj_redox_rev1_base_ad_rev2/lufa.o
                                                  .build/obj_redox_rev1_base_ad_rev2/platforms/avr/timer.o
                                                  .build/obj_redox_rev1_base_ad_rev2/platforms/avr/suspend.o
                                                  .build/obj_redox_rev1_base_ad_rev2/protocol/usb_device_state.o
                                                  .build/obj_redox_rev1_base_ad_rev2/protocol/host.o
                                                  .build/obj_redox_rev1_base_ad_rev2/quantum/process_keycode/process_tap_dance.o
                                                  .build/obj_redox_rev1_base_ad_rev2/quantum/process_keycode/process_space_cadet.o
                                                  .build/obj_redox_rev1_base_ad_rev2/quantum/mousekey.o
                                                  .build/obj_redox_rev1_base_ad_rev2/quantum/process_keycode/process_grave_esc.o
                                                  .build/obj_redox_rev1_base_ad_rev2/quantum/command.o
                                                  .build/obj_redox_rev1_base_ad_rev2/quantum/unicode/unicode.o
                                                  .build/obj_redox_rev1_base_ad_rev2/quantum/rgblight/rgblight.o
                                                  .build/obj_redox_rev1_base_ad_rev2/quantum/split_common/transactions.o
                                                  .build/obj_redox_rev1_base_ad_rev2/quantum/split_common/transport.o
                                                  .build/obj_redox_rev1_base_ad_rev2/quantum/split_common/split_util.o
                                                  .build/obj_redox_rev1_base_ad_rev2/quantum/debounce/sym_defer_g.o
                                                  .build/obj_redox_rev1_base_ad_rev2/quantum/matrix_common.o
                                                  .build/obj_redox_rev1_base_ad_rev2/quantum/logging/debug.o
                                                  .build/obj_redox_rev1_base_ad_rev2/quantum/sync_timer.o
                                                  .build/obj_redox_rev1_base_ad_rev2/quantum/keycode_config.o
                                                  .build/obj_redox_rev1_base_ad_rev2/quantum/keyboard.o
                                                  .build/obj_redox_rev1_base_ad_rev2/quantum/action_util.o
                                                  .build/obj_redox_rev1_base_ad_rev2/quantum/action_tapping.o
                                                  .build/obj_redox_rev1_base_ad_rev2/quantum/action_layer.o
                                                  .build/obj_redox_rev1_base_ad_rev2/quantum/action.o
                                                  .build/obj_redox_rev1_base_ad_rev2/quantum/led.o
                                                  .build/obj_redox_rev1_base_ad_rev2/quantum/quantum.o
                                                  .build/obj_redox_rev1_base_ad_rev2/quantum/keymap_introspection.o
__do_copy_data                                    /usr/lib/gcc/avr/7.3.0/avr5/libgcc.a(_copy_data.o)
                                                  /usr/lib/gcc/avr/7.3.0/../../../avr/lib/avr5/libc.a(rand.o)
                                                  .build/obj_redox_rev1_base_ad_rev2/lufa.o
                                                  .build/obj_redox_rev1_base_ad_rev2/quantum/mousekey.o
                                                  .build/obj_redox_rev1_base_ad_rev2/quantum/unicode/unicode.o
                                                  .build/obj_redox_rev1_base_ad_rev2/quantum/rgblight/rgblight_drivers.o
                                                  .build/obj_redox_rev1_base_ad_rev2/quantum/rgblight/rgblight.o
                                                  .build/obj_redox_rev1_base_ad_rev2/quantum/split_common/transactions.o
                                                  .build/obj_redox_rev1_base_ad_rev2/quantum/split_common/transport.o
                                                  .build/obj_redox_rev1_base_ad_rev2/quantum/split_common/split_util.o
                                                  .build/obj_redox_rev1_base_ad_rev2/quantum/matrix.o
                                                  .build/obj_redox_rev1_base_ad_rev2/quantum/keymap_common.o
                                                  .build/obj_redox_rev1_base_ad_rev2/quantum/action_util.o
                                                  .build/obj_redox_rev1_base_ad_rev2/quantum/action.o
                                                  .build/obj_redox_rev1_base_ad_rev2/quantum/quantum.o
                                                  .build/obj_redox_rev1_base_ad_rev2/quantum/keymap_introspection.o
__epilogue_restores__                             /usr/lib/gcc/avr/7.3.0/avr5/libgcc.a(_epilogue.o)
                                                  .build/obj_redox_rev1_base_ad_rev2/lib/lufa/LUFA/Drivers/USB/Core/DeviceStandardReq.o
                                                  .build/obj_redox_rev1_base_ad_rev2/lib/lufa/LUFA/Drivers/USB/Core/ConfigDescriptors.o
                                                  .build/obj_redox_rev1_base_ad_rev2/lib/lufa/LUFA/Drivers/USB/Core/AVR8/EndpointStream_AVR8.o
                                                  .build/obj_redox_rev1_base_ad_rev2/lib/lufa/LUFA/Drivers/USB/Class/Common/HIDParser.o
                                                  .build/obj_redox_rev1_base_ad_rev2/serial.a(serial.o)
                                                  .build/obj_redox_rev1_base_ad_rev2/platforms/avr/hardware_id.o
                                                  .build/obj_redox_rev1_base_ad_rev2/protocol/host.o
                                                  .build/obj_redox_rev1_base_ad_rev2/quantum/send_string/send_string.o
                                                  .build/obj_redox_rev1_base_ad_rev2/quantum/mousekey.o
                                                  .build/obj_redox_rev1_base_ad_rev2/quantum/unicode/unicode.o
                                                  .build/obj_redox_rev1_base_ad_rev2/quantum/rgblight/rgblight.o
                                                  .build/obj_redox_rev1_base_ad_rev2/quantum/color.o
                                                  .build/obj_redox_rev1_base_ad_rev2/quantum/split_common/transactions.o
                                                  .build/obj_redox_rev1_base_ad_rev2/quantum/split_common/transport.o
                                                  .build/obj_redox_rev1_base_ad_rev2/quantum/debounce/sym_defer_g.o
                                                  .build/obj_redox_rev1_base_ad_rev2/quantum/matrix.o
                                                  .build/obj_redox_rev1_base_ad_rev2/quantum/matrix_common.o
                                                  .build/obj_redox_rev1_base_ad_rev2/quantum/keyboard.o
                                                  .build/obj_redox_rev1_base_ad_rev2/quantum/eeconfig.o
                                                  .build/obj_redox_rev1_base_ad_rev2/quantum/action_tapping.o
                                                  .build/obj_redox_rev1_base_ad_rev2/quantum/action_layer.o
                                                  .build/obj_redox_rev1_base_ad_rev2/quantum/action.o
                                                  .build/obj_redox_rev1_base_ad_rev2/quantum/bitwise.o
                                                  .build/obj_redox_rev1_base_ad_rev2/quantum/quantum.o
__heap_end                                        /usr/lib/gcc/avr/7.3.0/../../../avr/lib/avr5/crtatmega32u4.o
__init                                            /usr/lib/gcc/avr/7.3.0/../../../avr/lib/avr5/crtatmega32u4.o
__lshrdi3                                         /usr/lib/gcc/avr/7.3.0/avr5/libgcc.a(_ashrdi3.o)
                                                  .build/obj_redox_rev1_base_ad_rev2/quantum/rgblight/rgblight.o
__mulhisi3                                        /usr/lib/gcc/avr/7.3.0/avr5/libgcc.a(_mulhisi3.o)
                                                  .build/obj_redox_rev1_base_ad_rev2/quantum/rgblight/rgblight.o
__mulohisi3                                       /usr/lib/gcc/avr/7.3.0/avr5/libgcc.a(_mulshisi3.o)
                                                  /usr/lib/gcc/avr/7.3.0/../../../avr/lib/avr5/libc.a(rand.o)
__mulshisi3                                       /usr/lib/gcc/avr/7.3.0/avr5/libgcc.a(_mulshisi3.o)
                                                  .build/obj_redox_rev1_base_ad_rev2/quantum/rgblight/rgblight.o
__muluhisi3                                       /usr/lib/gcc/avr/7.3.0/avr5/libgcc.a(_muluhisi3.o)
                                                  /usr/lib/gcc/avr/7.3.0/../../../avr/lib/avr5/libc.a(rand.o)
                                                  /usr/lib/gcc/avr/7.3.0/avr5/libgcc.a(_mulshisi3.o)
                                                  .build/obj_redox_rev1_base_ad_rev2/quantum/rgblight/rgblight.o
__negsi2                                          /usr/lib/gcc/avr/7.3.0/avr5/libgcc.a(_negsi2.o)
                                                  /usr/lib/gcc/avr/7.3.0/avr5/libgcc.a(_divmodsi4.o)
__prologue_saves__                                /usr/lib/gcc/avr/7.3.0/avr5/libgcc.a(_prologue.o)
                                                  .build/obj_redox_rev1_base_ad_rev2/lib/lufa/LUFA/Drivers/USB/Core/DeviceStandardReq.o
                                                  .build/obj_redox_rev1_base_ad_rev2/lib/lufa/LUFA/Drivers/USB/Core/ConfigDescriptors.o
                                                  .build/obj_redox_rev1_base_ad_rev2/lib/lufa/LUFA/Drivers/USB/Class/Common/HIDParser.o
                                                  .build/obj_redox_rev1_base_ad_rev2/serial.a(serial.o)
                                                  .build/obj_redox_rev1_base_ad_rev2/platforms/avr/hardware_id.o
                                                  .build/obj_redox_rev1_base_ad_rev2/protocol/host.o
                                                  .build/obj_redox_rev1_base_ad_rev2/quantum/send_string/send_string.o
                                                  .build/obj_redox_rev1_base_ad_rev2/quantum/mousekey.o
                                                  .build/obj_redox_rev1_base_ad_rev2/quantum/unicode/unicode.o
                                                  .build/obj_redox_rev1_base_ad_rev2/quantum/rgblight/rgblight.o
                                                  .build/obj_redox_rev1_base_ad_rev2/quantum/split_common/transactions.o
                                                  .build/obj_redox_rev1_base_ad_rev2/quantum/split_common/transport.o
                                                  .build/obj_redox_rev1_base_ad_rev2/quantum/debounce/sym_defer_g.o
                                                  .build/obj_redox_rev1_base_ad_rev2/quantum/matrix.o
                                                  .build/obj_redox_rev1_base_ad_rev2/quantum/matrix_common.o
                                                  .build/obj_redox_rev1_base_ad_rev2/quantum/keyboard.o
                                                  .build/obj_redox_rev1_base_ad_rev2/quantum/eeconfig.o
                                                  .build/obj_redox_rev1_base_ad_rev2/quantum/action_tapping.o
                                                  .build/obj_redox_rev1_base_ad_rev2/quantum/action_layer.o
                                                  .build/obj_redox_rev1_base_ad_rev2/quantum/action.o
                                                  .build/obj_redox_rev1_base_ad_rev2/quantum/bitwise.o
                                                  .build/obj_redox_rev1_base_ad_rev2/quantum/quantum.o
__stack                                           /usr/lib/gcc/avr/7.3.0/../../../avr/lib/avr5/crtatmega32u4.o
__tablejump2__                                    /usr/lib/gcc/avr/7.3.0/avr5/libgcc.a(_tablejump2.o)
                                                  .build/obj_redox_rev1_base_ad_rev2/lib/lufa/LUFA/Drivers/USB/Core/DeviceStandardReq.o
                                                  .build/obj_redox_rev1_base_ad_rev2/quantum/process_keycode/process_space_cadet.o
                                                  .build/obj_redox_rev1_base_ad_rev2/quantum/process_keycode/process_magic.o
                                                  .build/obj_redox_rev1_base_ad_rev2/quantum/command.o
                                                  .build/obj_redox_rev1_base_ad_rev2/quantum/process_keycode/process_unicode_common.o
                                                  .build/obj_redox_rev1_base_ad_rev2/quantum/process_keycode/process_rgb.o
                                                  .build/obj_redox_rev1_base_ad_rev2/quantum/action.o
__udivmodhi4                                      /usr/lib/gcc/avr/7.3.0/avr5/libgcc.a(_udivmodhi4.o)
                                                  /usr/lib/gcc/avr/7.3.0/avr5/libgcc.a(_divmodhi4.o)
                                                  .build/obj_redox_rev1_base_ad_rev2/quantum/rgblight/rgblight.o
                                                  .build/obj_redox_rev1_base_ad_rev2/quantum/color.o
__udivmodqi4                                      /usr/lib/gcc/avr/7.3.0/avr5/libgcc.a(_udivmodqi4.o)
                                                  /usr/lib/gcc/avr/7.3.0/avr5/libgcc.a(_divmodqi4.o)
                                                  .build/obj_redox_rev1_base_ad_rev2/quantum/rgblight/rgblight.o
__udivmodsi4                                      /usr/lib/gcc/avr/7.3.0/avr5/libgcc.a(_udivmodsi4.o)
                                                  /usr/lib/gcc/avr/7.3.0/avr5/libgcc.a(_divmodsi4.o)
                                                  .build/obj_redox_rev1_base_ad_rev2/quantum/rgblight/rgblight.o
                                                  .build/obj_redox_rev1_base_ad_rev2/quantum/quantum.o
__umulhisi3                                       /usr/lib/gcc/avr/7.3.0/avr5/libgcc.a(_umulhisi3.o)
                                                  /usr/lib/gcc/avr/7.3.0/avr5/libgcc.a(_muluhisi3.o)
                                                  /usr/lib/gcc/avr/7.3.0/avr5/libgcc.a(_usmulhisi3.o)
                                                  /usr/lib/gcc/avr/7.3.0/avr5/libgcc.a(_mulhisi3.o)
                                                  .build/obj_redox_rev1_base_ad_rev2/quantum/rgblight/rgblight.o
__usmulhisi3                                      /usr/lib/gcc/avr/7.3.0/avr5/libgcc.a(_usmulhisi3.o)
__usmulhisi3_tail                                 /usr/lib/gcc/avr/7.3.0/avr5/libgcc.a(_usmulhisi3.o)
                                                  /usr/lib/gcc/avr/7.3.0/avr5/libgcc.a(_mulhisi3.o)
__vector_1                                        .build/obj_redox_rev1_base_ad_rev2/serial.a(serial.o)
                                                  /usr/lib/gcc/avr/7.3.0/../../../avr/lib/avr5/crtatmega32u4.o
__vector_10                                       .build/obj_redox_rev1_base_ad_rev2/lib/lufa/LUFA/Drivers/USB/Core/AVR8/USBInterrupt_AVR8.o
                                                  /usr/lib/gcc/avr/7.3.0/../../../avr/lib/avr5/crtatmega32u4.o
__vector_11                                       .build/obj_redox_rev1_base_ad_rev2/lib/lufa/LUFA/Drivers/USB/Core/AVR8/USBInterrupt_AVR8.o
                                                  /usr/lib/gcc/avr/7.3.0/../../../avr/lib/avr5/crtatmega32u4.o
__vector_12                                       .build/obj_redox_rev1_base_ad_rev2/platforms/avr/suspend.o
                                                  /usr/lib/gcc/avr/7.3.0/../../../avr/lib/avr5/crtatmega32u4.o
__vector_13                                       /usr/lib/gcc/avr/7.3.0/../../../avr/lib/avr5/crtatmega32u4.o
__vector_14                                       /usr/lib/gcc/avr/7.3.0/../../../avr/lib/avr5/crtatmega32u4.o
__vector_15                                       /usr/lib/gcc/avr/7.3.0/../../../avr/lib/avr5/crtatmega32u4.o
__vector_16                                       /usr/lib/gcc/avr/7.3.0/../../../avr/lib/avr5/crtatmega32u4.o
__vector_17                                       /usr/lib/gcc/avr/7.3.0/../../../avr/lib/avr5/crtatmega32u4.o
__vector_18                                       /usr/lib/gcc/avr/7.3.0/../../../avr/lib/avr5/crtatmega32u4.o
__vector_19                                       /usr/lib/gcc/avr/7.3.0/../../../avr/lib/avr5/crtatmega32u4.o
__vector_2                                        /usr/lib/gcc/avr/7.3.0/../../../avr/lib/avr5/crtatmega32u4.o
__vector_20                                       /usr/lib/gcc/avr/7.3.0/../../../avr/lib/avr5/crtatmega32u4.o
__vector_21                                       .build/obj_redox_rev1_base_ad_rev2/platforms/avr/timer.o
                                                  /usr/lib/gcc/avr/7.3.0/../../../avr/lib/avr5/crtatmega32u4.o
__vector_22                                       /usr/lib/gcc/avr/7.3.0/../../../avr/lib/avr5/crtatmega32u4.o
__vector_23                                       /usr/lib/gcc/avr/7.3.0/../../../avr/lib/avr5/crtatmega32u4.o
__vector_24                                       /usr/lib/gcc/avr/7.3.0/../../../avr/lib/avr5/crtatmega32u4.o
__vector_25                                       /usr/lib/gcc/avr/7.3.0/../../../avr/lib/avr5/crtatmega32u4.o
__vector_26                                       /usr/lib/gcc/avr/7.3.0/../../../avr/lib/avr5/crtatmega32u4.o
__vector_27                                       /usr/lib/gcc/avr/7.3.0/../../../avr/lib/avr5/crtatmega32u4.o
__vector_28                                       /usr/lib/gcc/avr/7.3.0/../../../avr/lib/avr5/crtatmega32u4.o
__vector_29                                       /usr/lib/gcc/avr/7.3.0/../../../avr/lib/avr5/crtatmega32u4.o
__vector_3                                        /usr/lib/gcc/avr/7.3.0/../../../avr/lib/avr5/crtatmega32u4.o
__vector_30                                       /usr/lib/gcc/avr/7.3.0/../../../avr/lib/avr5/crtatmega32u4.o
__vector_31                                       /usr/lib/gcc/avr/7.3.0/../../../avr/lib/avr5/crtatmega32u4.o
__vector_32                                       /usr/lib/gcc/avr/7.3.0/../../../avr/lib/avr5/crtatmega32u4.o
__vector_33                                       /usr/lib/gcc/avr/7.3.0/../../../avr/lib/avr5/crtatmega32u4.o
__vector_34                                       /usr/lib/gcc/avr/7.3.0/../../../avr/lib/avr5/crtatmega32u4.o
__vector_35                                       /usr/lib/gcc/avr/7.3.0/../../../avr/lib/avr5/crtatmega32u4.o
__vector_36                                       /usr/lib/gcc/avr/7.3.0/../../../avr/lib/avr5/crtatmega32u4.o
__vector_37                                       /usr/lib/gcc/avr/7.3.0/../../../avr/lib/avr5/crtatmega32u4.o
__vector_38                                       /usr/lib/gcc/avr/7.3.0/../../../avr/lib/avr5/crtatmega32u4.o
__vector_39                                       /usr/lib/gcc/avr/7.3.0/../../../avr/lib/avr5/crtatmega32u4.o
__vector_4                                        /usr/lib/gcc/avr/7.3.0/../../../avr/lib/avr5/crtatmega32u4.o
__vector_40                                       /usr/lib/gcc/avr/7.3.0/../../../avr/lib/avr5/crtatmega32u4.o
__vector_41                                       /usr/lib/gcc/avr/7.3.0/../../../avr/lib/avr5/crtatmega32u4.o
__vector_42                                       /usr/lib/gcc/avr/7.3.0/../../../avr/lib/avr5/crtatmega32u4.o
__vector_5                                        /usr/lib/gcc/avr/7.3.0/../../../avr/lib/avr5/crtatmega32u4.o
__vector_6                                        /usr/lib/gcc/avr/7.3.0/../../../avr/lib/avr5/crtatmega32u4.o
__vector_7                                        /usr/lib/gcc/avr/7.3.0/../../../avr/lib/avr5/crtatmega32u4.o
__vector_8                                        /usr/lib/gcc/avr/7.3.0/../../../avr/lib/avr5/crtatmega32u4.o
__vector_9                                        /usr/lib/gcc/avr/7.3.0/../../../avr/lib/avr5/crtatmega32u4.o
__vector_default                                  /usr/lib/gcc/avr/7.3.0/../../../avr/lib/avr5/crtatmega32u4.o
__vectors                                         /usr/lib/gcc/avr/7.3.0/../../../avr/lib/avr5/crtatmega32u4.o
__xprintf                                         .build/obj_redox_rev1_base_ad_rev2/platforms/avr/xprintf.o
_div                                              /usr/lib/gcc/avr/7.3.0/avr5/libgcc.a(_divmodhi4.o)
_exit                                             /usr/lib/gcc/avr/7.3.0/avr5/libgcc.a(_exit.o)
action_exec                                       .build/obj_redox_rev1_base_ad_rev2/quantum/action.o
                                                  .build/obj_redox_rev1_base_ad_rev2/quantum/keyboard.o
action_for_key                                    .build/obj_redox_rev1_base_ad_rev2/quantum/keymap_common.o
                                                  .build/obj_redox_rev1_base_ad_rev2/quantum/action_layer.o
action_for_keycode                                .build/obj_redox_rev1_base_ad_rev2/quantum/keymap_common.o
action_tapping_process                            .build/obj_redox_rev1_base_ad_rev2/quantum/action_tapping.o
                                                  .build/obj_redox_rev1_base_ad_rev2/quantum/action.o
add_key                                           .build/obj_redox_rev1_base_ad_rev2/quantum/action_util.o
add_key_bit                                       .build/obj_redox_rev1_base_ad_rev2/protocol/report.o
add_key_byte                                      .build/obj_redox_rev1_base_ad_rev2/protocol/report.o
add_key_to_report                                 .build/obj_redox_rev1_base_ad_rev2/protocol/report.o
                                                  .build/obj_redox_rev1_base_ad_rev2/quantum/process_keycode/process_grave_esc.o
                                                  .build/obj_redox_rev1_base_ad_rev2/quantum/action_util.o
                                                  .build/obj_redox_rev1_base_ad_rev2/quantum/action.o
add_mods                                          .build/obj_redox_rev1_base_ad_rev2/quantum/action_util.o
                                                  .build/obj_redox_rev1_base_ad_rev2/quantum/process_keycode/process_tap_dance.o
                                                  .build/obj_redox_rev1_base_ad_rev2/quantum/action.o
add_oneshot_locked_mods                           .build/obj_redox_rev1_base_ad_rev2/quantum/action_util.o
add_oneshot_mods                                  .build/obj_redox_rev1_base_ad_rev2/quantum/action_util.o
                                                  .build/obj_redox_rev1_base_ad_rev2/quantum/action.o
add_weak_mods                                     .build/obj_redox_rev1_base_ad_rev2/quantum/action_util.o
                                                  .build/obj_redox_rev1_base_ad_rev2/quantum/process_keycode/process_tap_dance.o
                                                  .build/obj_redox_rev1_base_ad_rev2/quantum/action.o
animation_status                                  .build/obj_redox_rev1_base_ad_rev2/quantum/rgblight/rgblight.o
ascii_to_altgr_lut                                .build/obj_redox_rev1_base_ad_rev2/quantum/send_string/send_string.o
ascii_to_dead_lut                                 .build/obj_redox_rev1_base_ad_rev2/quantum/send_string/send_string.o
ascii_to_keycode_lut                              .build/obj_redox_rev1_base_ad_rev2/quantum/send_string/send_string.o
ascii_to_shift_lut                                .build/obj_redox_rev1_base_ad_rev2/quantum/send_string/send_string.o
biton                                             .build/obj_redox_rev1_base_ad_rev2/quantum/bitwise.o
                                                  .build/obj_redox_rev1_base_ad_rev2/protocol/report.o
biton16                                           .build/obj_redox_rev1_base_ad_rev2/quantum/bitwise.o
biton32                                           .build/obj_redox_rev1_base_ad_rev2/quantum/bitwise.o
bitpop                                            .build/obj_redox_rev1_base_ad_rev2/quantum/bitwise.o
                                                  .build/obj_redox_rev1_base_ad_rev2/quantum/action_util.o
bitpop16                                          .build/obj_redox_rev1_base_ad_rev2/quantum/bitwise.o
bitpop32                                          .build/obj_redox_rev1_base_ad_rev2/quantum/bitwise.o
bitrev                                            .build/obj_redox_rev1_base_ad_rev2/quantum/bitwise.o
bitrev16                                          .build/obj_redox_rev1_base_ad_rev2/quantum/bitwise.o
bitrev32                                          .build/obj_redox_rev1_base_ad_rev2/quantum/bitwise.o
bootloader_jump                                   .build/obj_redox_rev1_base_ad_rev2/platforms/avr/bootloaders/caterina.o
                                                  .build/obj_redox_rev1_base_ad_rev2/quantum/bootmagic/bootmagic.o
                                                  .build/obj_redox_rev1_base_ad_rev2/quantum/quantum.o
bootmagic                                         .build/obj_redox_rev1_base_ad_rev2/quantum/bootmagic/bootmagic.o
                                                  .build/obj_redox_rev1_base_ad_rev2/quantum/keyboard.o
bootmagic_reset_eeprom                            .build/obj_redox_rev1_base_ad_rev2/quantum/bootmagic/bootmagic.o
bootmagic_scan                                    .build/obj_redox_rev1_base_ad_rev2/quantum/bootmagic/bootmagic.o
bootmagic_should_reset                            .build/obj_redox_rev1_base_ad_rev2/quantum/bootmagic/bootmagic.o
clear_keyboard                                    .build/obj_redox_rev1_base_ad_rev2/quantum/action.o
                                                  .build/obj_redox_rev1_base_ad_rev2/lufa.o
                                                  .build/obj_redox_rev1_base_ad_rev2/platforms/avr/suspend.o
                                                  .build/obj_redox_rev1_base_ad_rev2/quantum/process_keycode/process_magic.o
                                                  .build/obj_redox_rev1_base_ad_rev2/quantum/command.o
                                                  .build/obj_redox_rev1_base_ad_rev2/quantum/action_tapping.o
                                                  .build/obj_redox_rev1_base_ad_rev2/quantum/quantum.o
clear_keyboard_but_mods                           .build/obj_redox_rev1_base_ad_rev2/quantum/action.o
clear_keyboard_but_mods_and_keys                  .build/obj_redox_rev1_base_ad_rev2/quantum/action.o
clear_keys                                        .build/obj_redox_rev1_base_ad_rev2/quantum/action_util.o
clear_keys_from_report                            .build/obj_redox_rev1_base_ad_rev2/protocol/report.o
                                                  .build/obj_redox_rev1_base_ad_rev2/quantum/action_util.o
                                                  .build/obj_redox_rev1_base_ad_rev2/quantum/action.o
clear_mods                                        .build/obj_redox_rev1_base_ad_rev2/quantum/action_util.o
                                                  .build/obj_redox_rev1_base_ad_rev2/quantum/unicode/unicode.o
                                                  .build/obj_redox_rev1_base_ad_rev2/quantum/action.o
clear_oneshot_layer_state                         .build/obj_redox_rev1_base_ad_rev2/quantum/action_util.o
                                                  .build/obj_redox_rev1_base_ad_rev2/quantum/action.o
clear_oneshot_locked_mods                         .build/obj_redox_rev1_base_ad_rev2/quantum/action_util.o
clear_oneshot_mods                                .build/obj_redox_rev1_base_ad_rev2/quantum/action_util.o
clear_weak_mods                                   .build/obj_redox_rev1_base_ad_rev2/quantum/action_util.o
                                                  .build/obj_redox_rev1_base_ad_rev2/quantum/process_keycode/process_tap_dance.o
                                                  .build/obj_redox_rev1_base_ad_rev2/quantum/unicode/unicode.o
                                                  .build/obj_redox_rev1_base_ad_rev2/quantum/action.o
command_console_extra                             .build/obj_redox_rev1_base_ad_rev2/quantum/command.o
command_extra                                     .build/obj_redox_rev1_base_ad_rev2/quantum/command.o
command_proc                                      .build/obj_redox_rev1_base_ad_rev2/quantum/command.o
                                                  .build/obj_redox_rev1_base_ad_rev2/quantum/action.o
command_state                                     .build/obj_redox_rev1_base_ad_rev2/quantum/command.o
crc8                                              .build/obj_redox_rev1_base_ad_rev2/quantum/crc.o
                                                  .build/obj_redox_rev1_base_ad_rev2/quantum/split_common/transactions.o
crc_init                                          .build/obj_redox_rev1_base_ad_rev2/quantum/crc.o
                                                  .build/obj_redox_rev1_base_ad_rev2/quantum/keyboard.o
debounce                                          .build/obj_redox_rev1_base_ad_rev2/quantum/debounce/sym_defer_g.o
                                                  .build/obj_redox_rev1_base_ad_rev2/quantum/matrix.o
                                                  .build/obj_redox_rev1_base_ad_rev2/quantum/matrix_common.o
debounce_free                                     .build/obj_redox_rev1_base_ad_rev2/quantum/debounce/sym_defer_g.o
debounce_init                                     .build/obj_redox_rev1_base_ad_rev2/quantum/debounce/sym_defer_g.o
                                                  .build/obj_redox_rev1_base_ad_rev2/quantum/matrix.o
                                                  .build/obj_redox_rev1_base_ad_rev2/quantum/matrix_common.o
debug_action                                      .build/obj_redox_rev1_base_ad_rev2/quantum/action.o
debug_config                                      .build/obj_redox_rev1_base_ad_rev2/quantum/logging/debug.o
                                                  .build/obj_redox_rev1_base_ad_rev2/quantum/command.o
                                                  .build/obj_redox_rev1_base_ad_rev2/quantum/keyboard.o
debug_event                                       .build/obj_redox_rev1_base_ad_rev2/quantum/action.o
                                                  .build/obj_redox_rev1_base_ad_rev2/quantum/action_tapping.o
debug_record                                      .build/obj_redox_rev1_base_ad_rev2/quantum/action.o
                                                  .build/obj_redox_rev1_base_ad_rev2/quantum/action_tapping.o
decode_utf8                                       .build/obj_redox_rev1_base_ad_rev2/quantum/unicode/utf8.o
                                                  .build/obj_redox_rev1_base_ad_rev2/quantum/unicode/unicode.o
default_layer_and                                 .build/obj_redox_rev1_base_ad_rev2/quantum/action_layer.o
                                                  .build/obj_redox_rev1_base_ad_rev2/quantum/action.o
default_layer_debug                               .build/obj_redox_rev1_base_ad_rev2/quantum/action_layer.o
                                                  .build/obj_redox_rev1_base_ad_rev2/quantum/action.o
default_layer_or                                  .build/obj_redox_rev1_base_ad_rev2/quantum/action_layer.o
                                                  .build/obj_redox_rev1_base_ad_rev2/quantum/action.o
default_layer_set                                 .build/obj_redox_rev1_base_ad_rev2/quantum/action_layer.o
                                                  .build/obj_redox_rev1_base_ad_rev2/quantum/command.o
                                                  .build/obj_redox_rev1_base_ad_rev2/quantum/keyboard.o
                                                  .build/obj_redox_rev1_base_ad_rev2/quantum/action.o
                                                  .build/obj_redox_rev1_base_ad_rev2/quantum/quantum.o
default_layer_state                               .build/obj_redox_rev1_base_ad_rev2/quantum/action_layer.o
                                                  .build/obj_redox_rev1_base_ad_rev2/quantum/eeconfig.o
default_layer_state_set_kb                        .build/obj_redox_rev1_base_ad_rev2/quantum/action_layer.o
default_layer_state_set_user                      .build/obj_redox_rev1_base_ad_rev2/quantum/action_layer.o
default_layer_xor                                 .build/obj_redox_rev1_base_ad_rev2/quantum/action_layer.o
                                                  .build/obj_redox_rev1_base_ad_rev2/quantum/action.o
del_key                                           .build/obj_redox_rev1_base_ad_rev2/quantum/action_util.o
del_key_bit                                       .build/obj_redox_rev1_base_ad_rev2/protocol/report.o
del_key_byte                                      .build/obj_redox_rev1_base_ad_rev2/protocol/report.o
del_key_from_report                               .build/obj_redox_rev1_base_ad_rev2/protocol/report.o
                                                  .build/obj_redox_rev1_base_ad_rev2/quantum/process_keycode/process_grave_esc.o
                                                  .build/obj_redox_rev1_base_ad_rev2/quantum/action_util.o
                                                  .build/obj_redox_rev1_base_ad_rev2/quantum/action.o
del_mods                                          .build/obj_redox_rev1_base_ad_rev2/quantum/action_util.o
                                                  .build/obj_redox_rev1_base_ad_rev2/quantum/process_keycode/process_tap_dance.o
                                                  .build/obj_redox_rev1_base_ad_rev2/quantum/action.o
del_oneshot_locked_mods                           .build/obj_redox_rev1_base_ad_rev2/quantum/action_util.o
                                                  .build/obj_redox_rev1_base_ad_rev2/quantum/action.o
del_oneshot_mods                                  .build/obj_redox_rev1_base_ad_rev2/quantum/action_util.o
                                                  .build/obj_redox_rev1_base_ad_rev2/quantum/action.o
del_weak_mods                                     .build/obj_redox_rev1_base_ad_rev2/quantum/action_util.o
                                                  .build/obj_redox_rev1_base_ad_rev2/quantum/process_keycode/process_tap_dance.o
                                                  .build/obj_redox_rev1_base_ad_rev2/quantum/action.o
disable_action_cache                              .build/obj_redox_rev1_base_ad_rev2/quantum/action.o
                                                  .build/obj_redox_rev1_base_ad_rev2/quantum/action_layer.o
                                                  .build/obj_redox_rev1_base_ad_rev2/quantum/quantum.o
do_code16                                         .build/obj_redox_rev1_base_ad_rev2/quantum/quantum.o
eeconfig_debug_rgblight                           .build/obj_redox_rev1_base_ad_rev2/quantum/rgblight/rgblight.o
eeconfig_disable                                  .build/obj_redox_rev1_base_ad_rev2/quantum/eeconfig.o
                                                  .build/obj_redox_rev1_base_ad_rev2/quantum/bootmagic/bootmagic.o
                                                  .build/obj_redox_rev1_base_ad_rev2/quantum/quantum.o
eeconfig_enable                                   .build/obj_redox_rev1_base_ad_rev2/quantum/eeconfig.o
eeconfig_init                                     .build/obj_redox_rev1_base_ad_rev2/quantum/eeconfig.o
                                                  .build/obj_redox_rev1_base_ad_rev2/quantum/command.o
                                                  .build/obj_redox_rev1_base_ad_rev2/quantum/keyboard.o
eeconfig_init_kb                                  .build/obj_redox_rev1_base_ad_rev2/quantum/eeconfig.o
eeconfig_init_quantum                             .build/obj_redox_rev1_base_ad_rev2/quantum/eeconfig.o
eeconfig_init_user                                .build/obj_redox_rev1_base_ad_rev2/quantum/eeconfig.o
eeconfig_is_disabled                              .build/obj_redox_rev1_base_ad_rev2/quantum/eeconfig.o
eeconfig_is_enabled                               .build/obj_redox_rev1_base_ad_rev2/quantum/eeconfig.o
                                                  .build/obj_redox_rev1_base_ad_rev2/quantum/keyboard.o
eeconfig_read_audio                               .build/obj_redox_rev1_base_ad_rev2/quantum/eeconfig.o
eeconfig_read_debug                               .build/obj_redox_rev1_base_ad_rev2/quantum/eeconfig.o
                                                  .build/obj_redox_rev1_base_ad_rev2/quantum/keyboard.o
eeconfig_read_default_layer                       .build/obj_redox_rev1_base_ad_rev2/quantum/eeconfig.o
                                                  .build/obj_redox_rev1_base_ad_rev2/quantum/keyboard.o
eeconfig_read_handedness                          .build/obj_redox_rev1_base_ad_rev2/quantum/eeconfig.o
eeconfig_read_haptic                              .build/obj_redox_rev1_base_ad_rev2/quantum/eeconfig.o
eeconfig_read_kb                                  .build/obj_redox_rev1_base_ad_rev2/quantum/eeconfig.o
eeconfig_read_keymap                              .build/obj_redox_rev1_base_ad_rev2/quantum/eeconfig.o
                                                  .build/obj_redox_rev1_base_ad_rev2/quantum/process_keycode/process_magic.o
                                                  .build/obj_redox_rev1_base_ad_rev2/quantum/keyboard.o
eeconfig_read_rgblight                            .build/obj_redox_rev1_base_ad_rev2/quantum/rgblight/rgblight.o
eeconfig_read_user                                .build/obj_redox_rev1_base_ad_rev2/quantum/eeconfig.o
eeconfig_update_audio                             .build/obj_redox_rev1_base_ad_rev2/quantum/eeconfig.o
eeconfig_update_debug                             .build/obj_redox_rev1_base_ad_rev2/quantum/eeconfig.o
eeconfig_update_default_layer                     .build/obj_redox_rev1_base_ad_rev2/quantum/eeconfig.o
                                                  .build/obj_redox_rev1_base_ad_rev2/quantum/quantum.o
eeconfig_update_handedness                        .build/obj_redox_rev1_base_ad_rev2/quantum/eeconfig.o
                                                  .build/obj_redox_rev1_base_ad_rev2/quantum/process_keycode/process_magic.o
eeconfig_update_haptic                            .build/obj_redox_rev1_base_ad_rev2/quantum/eeconfig.o
eeconfig_update_kb                                .build/obj_redox_rev1_base_ad_rev2/quantum/eeconfig.o
eeconfig_update_keymap                            .build/obj_redox_rev1_base_ad_rev2/quantum/eeconfig.o
                                                  .build/obj_redox_rev1_base_ad_rev2/quantum/process_keycode/process_magic.o
                                                  .build/obj_redox_rev1_base_ad_rev2/quantum/action_util.o
eeconfig_update_rgblight                          .build/obj_redox_rev1_base_ad_rev2/quantum/rgblight/rgblight.o
eeconfig_update_rgblight_current                  .build/obj_redox_rev1_base_ad_rev2/quantum/rgblight/rgblight.o
eeconfig_update_rgblight_default                  .build/obj_redox_rev1_base_ad_rev2/quantum/rgblight/rgblight.o
eeconfig_update_user                              .build/obj_redox_rev1_base_ad_rev2/quantum/eeconfig.o
eeprom_read_block                                 /usr/lib/gcc/avr/7.3.0/../../../avr/lib/avr5/libatmega32u4.a(eerd_block.o)
eeprom_read_blraw                                 /usr/lib/gcc/avr/7.3.0/../../../avr/lib/avr5/libatmega32u4.a(eerd_block.o)
                                                  /usr/lib/gcc/avr/7.3.0/../../../avr/lib/avr5/libatmega32u4.a(eerd_word.o)
                                                  /usr/lib/gcc/avr/7.3.0/../../../avr/lib/avr5/libatmega32u4.a(eerd_dword.o)
eeprom_read_byte                                  /usr/lib/gcc/avr/7.3.0/../../../avr/lib/avr5/libatmega32u4.a(eerd_byte.o)
                                                  .build/obj_redox_rev1_base_ad_rev2/lib/lufa/LUFA/Drivers/USB/Core/AVR8/EndpointStream_AVR8.o
                                                  .build/obj_redox_rev1_base_ad_rev2/quantum/unicode/unicode.o
                                                  .build/obj_redox_rev1_base_ad_rev2/quantum/rgblight/rgblight.o
                                                  .build/obj_redox_rev1_base_ad_rev2/quantum/eeconfig.o
eeprom_read_dword                                 /usr/lib/gcc/avr/7.3.0/../../../avr/lib/avr5/libatmega32u4.a(eerd_dword.o)
                                                  .build/obj_redox_rev1_base_ad_rev2/quantum/rgblight/rgblight.o
                                                  .build/obj_redox_rev1_base_ad_rev2/quantum/eeconfig.o
eeprom_read_float                                 /usr/lib/gcc/avr/7.3.0/../../../avr/lib/avr5/libatmega32u4.a(eerd_dword.o)
eeprom_read_word                                  /usr/lib/gcc/avr/7.3.0/../../../avr/lib/avr5/libatmega32u4.a(eerd_word.o)
                                                  .build/obj_redox_rev1_base_ad_rev2/quantum/eeconfig.o
eeprom_update_block                               /usr/lib/gcc/avr/7.3.0/../../../avr/lib/avr5/libatmega32u4.a(eeupd_block.o)
                                                  .build/obj_redox_rev1_base_ad_rev2/quantum/eeconfig.o
eeprom_update_byte                                /usr/lib/gcc/avr/7.3.0/../../../avr/lib/avr5/libatmega32u4.a(eeupd_byte.o)
                                                  /usr/lib/gcc/avr/7.3.0/../../../avr/lib/avr5/libatmega32u4.a(eeupd_word.o)
                                                  /usr/lib/gcc/avr/7.3.0/../../../avr/lib/avr5/libatmega32u4.a(eeupd_dword.o)
                                                  .build/obj_redox_rev1_base_ad_rev2/lib/lufa/LUFA/Drivers/USB/Core/AVR8/EndpointStream_AVR8.o
                                                  .build/obj_redox_rev1_base_ad_rev2/quantum/unicode/unicode.o
                                                  .build/obj_redox_rev1_base_ad_rev2/quantum/rgblight/rgblight.o
                                                  .build/obj_redox_rev1_base_ad_rev2/quantum/eeconfig.o
eeprom_update_dword                               /usr/lib/gcc/avr/7.3.0/../../../avr/lib/avr5/libatmega32u4.a(eeupd_dword.o)
                                                  .build/obj_redox_rev1_base_ad_rev2/quantum/rgblight/rgblight.o
                                                  .build/obj_redox_rev1_base_ad_rev2/quantum/eeconfig.o
eeprom_update_float                               /usr/lib/gcc/avr/7.3.0/../../../avr/lib/avr5/libatmega32u4.a(eeupd_dword.o)
eeprom_update_r18                                 /usr/lib/gcc/avr/7.3.0/../../../avr/lib/avr5/libatmega32u4.a(eeupd_byte.o)
                                                  /usr/lib/gcc/avr/7.3.0/../../../avr/lib/avr5/libatmega32u4.a(eeupd_word.o)
                                                  /usr/lib/gcc/avr/7.3.0/../../../avr/lib/avr5/libatmega32u4.a(eeupd_dword.o)
                                                  /usr/lib/gcc/avr/7.3.0/../../../avr/lib/avr5/libatmega32u4.a(eeupd_block.o)
eeprom_update_word                                /usr/lib/gcc/avr/7.3.0/../../../avr/lib/avr5/libatmega32u4.a(eeupd_word.o)
                                                  .build/obj_redox_rev1_base_ad_rev2/quantum/eeconfig.o
exit                                              /usr/lib/gcc/avr/7.3.0/avr5/libgcc.a(_exit.o)
                                                  /usr/lib/gcc/avr/7.3.0/../../../avr/lib/avr5/crtatmega32u4.o
extract_mod_bits                                  .build/obj_redox_rev1_base_ad_rev2/quantum/quantum.o
get_event_keycode                                 .build/obj_redox_rev1_base_ad_rev2/quantum/quantum.o
get_first_key                                     .build/obj_redox_rev1_base_ad_rev2/protocol/report.o
get_hardware_id                                   .build/obj_redox_rev1_base_ad_rev2/platforms/avr/hardware_id.o
get_mods                                          .build/obj_redox_rev1_base_ad_rev2/quantum/action_util.o
                                                  .build/obj_redox_rev1_base_ad_rev2/quantum/process_keycode/process_tap_dance.o
                                                  .build/obj_redox_rev1_base_ad_rev2/quantum/process_keycode/process_grave_esc.o
                                                  .build/obj_redox_rev1_base_ad_rev2/quantum/command.o
                                                  .build/obj_redox_rev1_base_ad_rev2/quantum/unicode/unicode.o
                                                  .build/obj_redox_rev1_base_ad_rev2/quantum/process_keycode/process_unicode_common.o
                                                  .build/obj_redox_rev1_base_ad_rev2/quantum/process_keycode/process_rgb.o
get_numeric_str                                   .build/obj_redox_rev1_base_ad_rev2/quantum/quantum.o
get_oneshot_layer                                 .build/obj_redox_rev1_base_ad_rev2/quantum/action_util.o
                                                  .build/obj_redox_rev1_base_ad_rev2/quantum/action.o
get_oneshot_layer_state                           .build/obj_redox_rev1_base_ad_rev2/quantum/action_util.o
                                                  .build/obj_redox_rev1_base_ad_rev2/quantum/action.o
get_oneshot_locked_mods                           .build/obj_redox_rev1_base_ad_rev2/quantum/action_util.o
get_oneshot_mods                                  .build/obj_redox_rev1_base_ad_rev2/quantum/action_util.o
                                                  .build/obj_redox_rev1_base_ad_rev2/quantum/process_keycode/process_tap_dance.o
get_record_keycode                                .build/obj_redox_rev1_base_ad_rev2/quantum/quantum.o
get_u16_str                                       .build/obj_redox_rev1_base_ad_rev2/quantum/quantum.o
get_u8_str                                        .build/obj_redox_rev1_base_ad_rev2/quantum/quantum.o
get_unicode_input_mode                            .build/obj_redox_rev1_base_ad_rev2/quantum/unicode/unicode.o
get_usb_descriptor                                .build/obj_redox_rev1_base_ad_rev2/usb_descriptor.o
                                                  .build/obj_redox_rev1_base_ad_rev2/lufa.o
get_weak_mods                                     .build/obj_redox_rev1_base_ad_rev2/quantum/action_util.o
                                                  .build/obj_redox_rev1_base_ad_rev2/quantum/process_keycode/process_tap_dance.o
has_anykey                                        .build/obj_redox_rev1_base_ad_rev2/protocol/report.o
                                                  .build/obj_redox_rev1_base_ad_rev2/quantum/action_util.o
has_anymod                                        .build/obj_redox_rev1_base_ad_rev2/quantum/action_util.o
has_mouse_report_changed                          .build/obj_redox_rev1_base_ad_rev2/protocol/report.o
                                                  .build/obj_redox_rev1_base_ad_rev2/quantum/mousekey.o
has_oneshot_mods_timed_out                        .build/obj_redox_rev1_base_ad_rev2/quantum/action_util.o
host_consumer_send                                .build/obj_redox_rev1_base_ad_rev2/protocol/host.o
                                                  .build/obj_redox_rev1_base_ad_rev2/quantum/action.o
host_get_driver                                   .build/obj_redox_rev1_base_ad_rev2/protocol/host.o
host_keyboard_led_state                           .build/obj_redox_rev1_base_ad_rev2/protocol/host.o
                                                  .build/obj_redox_rev1_base_ad_rev2/quantum/unicode/unicode.o
                                                  .build/obj_redox_rev1_base_ad_rev2/quantum/action.o
host_keyboard_leds                                .build/obj_redox_rev1_base_ad_rev2/protocol/host.o
                                                  .build/obj_redox_rev1_base_ad_rev2/quantum/action.o
                                                  .build/obj_redox_rev1_base_ad_rev2/quantum/led.o
host_keyboard_send                                .build/obj_redox_rev1_base_ad_rev2/protocol/host.o
                                                  .build/obj_redox_rev1_base_ad_rev2/quantum/action_util.o
host_last_consumer_usage                          .build/obj_redox_rev1_base_ad_rev2/protocol/host.o
host_last_system_usage                            .build/obj_redox_rev1_base_ad_rev2/protocol/host.o
host_mouse_send                                   .build/obj_redox_rev1_base_ad_rev2/protocol/host.o
                                                  .build/obj_redox_rev1_base_ad_rev2/quantum/mousekey.o
host_nkro_send                                    .build/obj_redox_rev1_base_ad_rev2/protocol/host.o
                                                  .build/obj_redox_rev1_base_ad_rev2/quantum/action_util.o
host_set_driver                                   .build/obj_redox_rev1_base_ad_rev2/protocol/host.o
                                                  .build/obj_redox_rev1_base_ad_rev2/lufa.o
host_system_send                                  .build/obj_redox_rev1_base_ad_rev2/protocol/host.o
                                                  .build/obj_redox_rev1_base_ad_rev2/quantum/action.o
housekeeping_task                                 .build/obj_redox_rev1_base_ad_rev2/quantum/keyboard.o
                                                  .build/obj_redox_rev1_base_ad_rev2/quantum/main.o
housekeeping_task_kb                              .build/obj_redox_rev1_base_ad_rev2/quantum/keyboard.o
housekeeping_task_user                            .build/obj_redox_rev1_base_ad_rev2/quantum/keyboard.o
hsv_to_rgb                                        .build/obj_redox_rev1_base_ad_rev2/quantum/color.o
                                                  .build/obj_redox_rev1_base_ad_rev2/quantum/rgblight/rgblight.o
hsv_to_rgb_impl                                   .build/obj_redox_rev1_base_ad_rev2/quantum/color.o
hsv_to_rgb_nocie                                  .build/obj_redox_rev1_base_ad_rev2/quantum/color.o
isLeftHand                                        .build/obj_redox_rev1_base_ad_rev2/quantum/split_common/split_util.o
                                                  .build/obj_redox_rev1_base_ad_rev2/quantum/matrix.o
                                                  .build/obj_redox_rev1_base_ad_rev2/quantum/matrix_common.o
is_key_pressed                                    .build/obj_redox_rev1_base_ad_rev2/protocol/report.o
                                                  .build/obj_redox_rev1_base_ad_rev2/quantum/action.o
is_keyboard_left                                  .build/obj_redox_rev1_base_ad_rev2/quantum/split_common/split_util.o
is_keyboard_left_impl                             .build/obj_redox_rev1_base_ad_rev2/quantum/split_common/split_util.o
is_keyboard_master                                .build/obj_redox_rev1_base_ad_rev2/quantum/split_common/split_util.o
                                                  .build/obj_redox_rev1_base_ad_rev2/protocol/host.o
                                                  .build/obj_redox_rev1_base_ad_rev2/quantum/matrix_common.o
                                                  .build/obj_redox_rev1_base_ad_rev2/quantum/sync_timer.o
                                                  .build/obj_redox_rev1_base_ad_rev2/quantum/keyboard.o
is_keyboard_master_impl                           .build/obj_redox_rev1_base_ad_rev2/quantum/split_common/split_util.o
is_oneshot_enabled                                .build/obj_redox_rev1_base_ad_rev2/quantum/action_util.o
is_oneshot_layer_active                           .build/obj_redox_rev1_base_ad_rev2/quantum/action_util.o
                                                  .build/obj_redox_rev1_base_ad_rev2/quantum/action.o
is_rgblight_initialized                           .build/obj_redox_rev1_base_ad_rev2/quantum/rgblight/rgblight.o
is_tap_action                                     .build/obj_redox_rev1_base_ad_rev2/quantum/action.o
is_tap_record                                     .build/obj_redox_rev1_base_ad_rev2/quantum/action.o
                                                  .build/obj_redox_rev1_base_ad_rev2/quantum/action_tapping.o
is_transport_connected                            .build/obj_redox_rev1_base_ad_rev2/quantum/split_common/split_util.o
                                                  .build/obj_redox_rev1_base_ad_rev2/quantum/split_common/transactions.o
keyboard_idle                                     .build/obj_redox_rev1_base_ad_rev2/lufa.o
keyboard_init                                     .build/obj_redox_rev1_base_ad_rev2/quantum/keyboard.o
                                                  .build/obj_redox_rev1_base_ad_rev2/quantum/main.o
keyboard_post_init_kb                             .build/obj_redox_rev1_base_ad_rev2/quantum/keyboard.o
keyboard_post_init_user                           .build/obj_redox_rev1_base_ad_rev2/quantum/keyboard.o
keyboard_pre_init_kb                              .build/obj_redox_rev1_base_ad_rev2/quantum/keyboard.o
keyboard_pre_init_user                            .build/obj_redox_rev1_base_ad_rev2/quantum/keyboard.o
keyboard_protocol                                 .build/obj_redox_rev1_base_ad_rev2/lufa.o
                                                  .build/obj_redox_rev1_base_ad_rev2/protocol/report.o
                                                  .build/obj_redox_rev1_base_ad_rev2/quantum/action_util.o
keyboard_report                                   .build/obj_redox_rev1_base_ad_rev2/quantum/action_util.o
                                                  .build/obj_redox_rev1_base_ad_rev2/protocol/report.o
keyboard_setup                                    .build/obj_redox_rev1_base_ad_rev2/quantum/keyboard.o
                                                  .build/obj_redox_rev1_base_ad_rev2/quantum/main.o
keyboard_task                                     .build/obj_redox_rev1_base_ad_rev2/quantum/keyboard.o
                                                  .build/obj_redox_rev1_base_ad_rev2/quantum/main.o
keycode_at_keymap_location                        .build/obj_redox_rev1_base_ad_rev2/quantum/keymap_introspection.o
                                                  .build/obj_redox_rev1_base_ad_rev2/quantum/keymap_common.o
keycode_at_keymap_location_raw                    .build/obj_redox_rev1_base_ad_rev2/quantum/keymap_introspection.o
keycode_config                                    .build/obj_redox_rev1_base_ad_rev2/quantum/keycode_config.o
                                                  .build/obj_redox_rev1_base_ad_rev2/quantum/keymap_common.o
keymap_config                                     .build/obj_redox_rev1_base_ad_rev2/quantum/keycode_config.o
                                                  .build/obj_redox_rev1_base_ad_rev2/protocol/report.o
                                                  .build/obj_redox_rev1_base_ad_rev2/quantum/process_keycode/process_magic.o
                                                  .build/obj_redox_rev1_base_ad_rev2/quantum/command.o
                                                  .build/obj_redox_rev1_base_ad_rev2/quantum/keyboard.o
                                                  .build/obj_redox_rev1_base_ad_rev2/quantum/action_util.o
                                                  .build/obj_redox_rev1_base_ad_rev2/quantum/action.o
keymap_key_to_keycode                             .build/obj_redox_rev1_base_ad_rev2/quantum/keymap_common.o
                                                  .build/obj_redox_rev1_base_ad_rev2/quantum/quantum.o
keymap_layer_count                                .build/obj_redox_rev1_base_ad_rev2/quantum/keymap_introspection.o
keymap_layer_count_raw                            .build/obj_redox_rev1_base_ad_rev2/quantum/keymap_introspection.o
keymaps                                           .build/obj_redox_rev1_base_ad_rev2/quantum/keymap_introspection.o
last_encoder_activity_elapsed                     .build/obj_redox_rev1_base_ad_rev2/quantum/keyboard.o
last_encoder_activity_time                        .build/obj_redox_rev1_base_ad_rev2/quantum/keyboard.o
last_encoder_activity_trigger                     .build/obj_redox_rev1_base_ad_rev2/quantum/keyboard.o
last_input_activity_elapsed                       .build/obj_redox_rev1_base_ad_rev2/quantum/keyboard.o
last_input_activity_time                          .build/obj_redox_rev1_base_ad_rev2/quantum/keyboard.o
last_led_activity_elapsed                         .build/obj_redox_rev1_base_ad_rev2/quantum/led.o
last_led_activity_time                            .build/obj_redox_rev1_base_ad_rev2/quantum/led.o
last_matrix_activity_elapsed                      .build/obj_redox_rev1_base_ad_rev2/quantum/keyboard.o
last_matrix_activity_time                         .build/obj_redox_rev1_base_ad_rev2/quantum/keyboard.o
last_matrix_activity_trigger                      .build/obj_redox_rev1_base_ad_rev2/quantum/keyboard.o
last_pointing_device_activity_elapsed             .build/obj_redox_rev1_base_ad_rev2/quantum/keyboard.o
last_pointing_device_activity_time                .build/obj_redox_rev1_base_ad_rev2/quantum/keyboard.o
last_pointing_device_activity_trigger             .build/obj_redox_rev1_base_ad_rev2/quantum/keyboard.o
layer_and                                         .build/obj_redox_rev1_base_ad_rev2/quantum/action_layer.o
                                                  .build/obj_redox_rev1_base_ad_rev2/quantum/action.o
layer_clear                                       .build/obj_redox_rev1_base_ad_rev2/quantum/action_layer.o
                                                  .build/obj_redox_rev1_base_ad_rev2/quantum/action.o
layer_debug                                       .build/obj_redox_rev1_base_ad_rev2/quantum/action_layer.o
                                                  .build/obj_redox_rev1_base_ad_rev2/quantum/action.o
layer_invert                                      .build/obj_redox_rev1_base_ad_rev2/quantum/action_layer.o
                                                  .build/obj_redox_rev1_base_ad_rev2/quantum/action.o
layer_move                                        .build/obj_redox_rev1_base_ad_rev2/quantum/action_layer.o
                                                  .build/obj_redox_rev1_base_ad_rev2/quantum/process_keycode/process_tap_dance.o
                                                  .build/obj_redox_rev1_base_ad_rev2/quantum/action.o
layer_off                                         .build/obj_redox_rev1_base_ad_rev2/quantum/action_layer.o
                                                  .build/obj_redox_rev1_base_ad_rev2/quantum/action_util.o
                                                  .build/obj_redox_rev1_base_ad_rev2/quantum/action.o
layer_on                                          .build/obj_redox_rev1_base_ad_rev2/quantum/action_layer.o
                                                  .build/obj_redox_rev1_base_ad_rev2/quantum/action_util.o
                                                  .build/obj_redox_rev1_base_ad_rev2/quantum/action.o
layer_or                                          .build/obj_redox_rev1_base_ad_rev2/quantum/action_layer.o
                                                  .build/obj_redox_rev1_base_ad_rev2/quantum/action.o
layer_state                                       .build/obj_redox_rev1_base_ad_rev2/quantum/action_layer.o
                                                  .build/obj_redox_rev1_base_ad_rev2/quantum/keyboard.o
layer_state_cmp                                   .build/obj_redox_rev1_base_ad_rev2/quantum/action_layer.o
layer_state_is                                    .build/obj_redox_rev1_base_ad_rev2/quantum/action_layer.o
layer_state_set                                   .build/obj_redox_rev1_base_ad_rev2/quantum/action_layer.o
                                                  .build/obj_redox_rev1_base_ad_rev2/quantum/action.o
layer_state_set_kb                                .build/obj_redox_rev1_base_ad_rev2/quantum/action_layer.o
                                                  .build/obj_redox_rev1_base_ad_rev2/quantum/keyboard.o
layer_state_set_user                              .build/obj_redox_rev1_base_ad_rev2/quantum/action_layer.o
layer_switch_get_action                           .build/obj_redox_rev1_base_ad_rev2/quantum/action_layer.o
                                                  .build/obj_redox_rev1_base_ad_rev2/quantum/action_tapping.o
                                                  .build/obj_redox_rev1_base_ad_rev2/quantum/action.o
layer_switch_get_layer                            .build/obj_redox_rev1_base_ad_rev2/quantum/action_layer.o
                                                  .build/obj_redox_rev1_base_ad_rev2/quantum/quantum.o
layer_xor                                         .build/obj_redox_rev1_base_ad_rev2/quantum/action_layer.o
                                                  .build/obj_redox_rev1_base_ad_rev2/quantum/action.o
led                                               .build/obj_redox_rev1_base_ad_rev2/quantum/rgblight/rgblight.o
led_init_ports                                    .build/obj_redox_rev1_base_ad_rev2/quantum/led.o
                                                  .build/obj_redox_rev1_base_ad_rev2/quantum/keyboard.o
led_set                                           .build/obj_redox_rev1_base_ad_rev2/quantum/led.o
                                                  .build/obj_redox_rev1_base_ad_rev2/quantum/action.o
led_set_user                                      .build/obj_redox_rev1_base_ad_rev2/quantum/led.o
led_suspend                                       .build/obj_redox_rev1_base_ad_rev2/quantum/led.o
                                                  .build/obj_redox_rev1_base_ad_rev2/quantum/quantum.o
led_task                                          .build/obj_redox_rev1_base_ad_rev2/quantum/led.o
                                                  .build/obj_redox_rev1_base_ad_rev2/quantum/keyboard.o
led_update_kb                                     .build/obj_redox_rev1_base_ad_rev2/quantum/led.o
led_update_ports                                  .build/obj_redox_rev1_base_ad_rev2/quantum/led.o
led_update_user                                   .build/obj_redox_rev1_base_ad_rev2/quantum/led.o
led_wakeup                                        .build/obj_redox_rev1_base_ad_rev2/quantum/led.o
                                                  .build/obj_redox_rev1_base_ad_rev2/quantum/quantum.o
lufa_driver                                       .build/obj_redox_rev1_base_ad_rev2/lufa.o
main                                              .build/obj_redox_rev1_base_ad_rev2/quantum/main.o
                                                  /usr/lib/gcc/avr/7.3.0/../../../avr/lib/avr5/crtatmega32u4.o
matrix                                            .build/obj_redox_rev1_base_ad_rev2/quantum/matrix_common.o
                                                  .build/obj_redox_rev1_base_ad_rev2/quantum/matrix.o
matrix_can_read                                   .build/obj_redox_rev1_base_ad_rev2/quantum/keyboard.o
matrix_cols                                       .build/obj_redox_rev1_base_ad_rev2/quantum/matrix_common.o
matrix_get_row                                    .build/obj_redox_rev1_base_ad_rev2/quantum/matrix_common.o
                                                  .build/obj_redox_rev1_base_ad_rev2/platforms/suspend.o
                                                  .build/obj_redox_rev1_base_ad_rev2/quantum/bootmagic/bootmagic.o
                                                  .build/obj_redox_rev1_base_ad_rev2/quantum/keyboard.o
matrix_init                                       .build/obj_redox_rev1_base_ad_rev2/quantum/matrix.o
                                                  .build/obj_redox_rev1_base_ad_rev2/quantum/matrix_common.o
                                                  .build/obj_redox_rev1_base_ad_rev2/quantum/keyboard.o
matrix_init_custom                                .build/obj_redox_rev1_base_ad_rev2/quantum/matrix_common.o
matrix_init_kb                                    .build/obj_redox_rev1_base_ad_rev2/quantum/matrix_common.o
                                                  .build/obj_redox_rev1_base_ad_rev2/quantum/matrix.o
matrix_init_pins                                  .build/obj_redox_rev1_base_ad_rev2/quantum/matrix.o
matrix_init_user                                  .build/obj_redox_rev1_base_ad_rev2/quantum/matrix_common.o
matrix_io_delay                                   .build/obj_redox_rev1_base_ad_rev2/quantum/matrix_common.o
matrix_is_on                                      .build/obj_redox_rev1_base_ad_rev2/quantum/matrix_common.o
matrix_output_select_delay                        .build/obj_redox_rev1_base_ad_rev2/quantum/matrix_common.o
                                                  .build/obj_redox_rev1_base_ad_rev2/quantum/matrix.o
matrix_output_unselect_delay                      .build/obj_redox_rev1_base_ad_rev2/quantum/matrix_common.o
                                                  .build/obj_redox_rev1_base_ad_rev2/quantum/matrix.o
matrix_post_scan                                  .build/obj_redox_rev1_base_ad_rev2/quantum/matrix_common.o
                                                  .build/obj_redox_rev1_base_ad_rev2/quantum/matrix.o
matrix_power_down                                 .build/obj_redox_rev1_base_ad_rev2/platforms/suspend.o
matrix_power_up                                   .build/obj_redox_rev1_base_ad_rev2/platforms/suspend.o
matrix_print                                      .build/obj_redox_rev1_base_ad_rev2/quantum/matrix_common.o
                                                  .build/obj_redox_rev1_base_ad_rev2/quantum/keyboard.o
matrix_read_cols_on_row                           .build/obj_redox_rev1_base_ad_rev2/quantum/matrix.o
matrix_rows                                       .build/obj_redox_rev1_base_ad_rev2/quantum/matrix_common.o
matrix_scan                                       .build/obj_redox_rev1_base_ad_rev2/quantum/matrix.o
                                                  .build/obj_redox_rev1_base_ad_rev2/quantum/matrix_common.o
                                                  .build/obj_redox_rev1_base_ad_rev2/platforms/suspend.o
                                                  .build/obj_redox_rev1_base_ad_rev2/quantum/bootmagic/bootmagic.o
                                                  .build/obj_redox_rev1_base_ad_rev2/quantum/keyboard.o
matrix_scan_custom                                .build/obj_redox_rev1_base_ad_rev2/quantum/matrix_common.o
matrix_scan_kb                                    .build/obj_redox_rev1_base_ad_rev2/quantum/matrix_common.o
matrix_scan_user                                  .build/obj_redox_rev1_base_ad_rev2/quantum/matrix_common.o
matrix_setup                                      .build/obj_redox_rev1_base_ad_rev2/quantum/keyboard.o
matrix_slave_scan_kb                              .build/obj_redox_rev1_base_ad_rev2/quantum/matrix_common.o
matrix_slave_scan_user                            .build/obj_redox_rev1_base_ad_rev2/quantum/matrix_common.o
mcu_reset                                         .build/obj_redox_rev1_base_ad_rev2/platforms/avr/bootloaders/caterina.o
                                                  .build/obj_redox_rev1_base_ad_rev2/quantum/quantum.o
memchr                                            /usr/lib/gcc/avr/7.3.0/../../../avr/lib/avr5/libc.a(memchr.o)
                                                  .build/obj_redox_rev1_base_ad_rev2/quantum/rgblight/rgblight.o
memcmp                                            /usr/lib/gcc/avr/7.3.0/../../../avr/lib/avr5/libc.a(memcmp.o)
                                                  .build/obj_redox_rev1_base_ad_rev2/quantum/debounce/sym_defer_g.o
                                                  .build/obj_redox_rev1_base_ad_rev2/quantum/matrix.o
                                                  .build/obj_redox_rev1_base_ad_rev2/quantum/matrix_common.o
                                                  .build/obj_redox_rev1_base_ad_rev2/quantum/action_util.o
memcpy                                            /usr/lib/gcc/avr/7.3.0/../../../avr/lib/avr5/libc.a(memcpy.o)
                                                  .build/obj_redox_rev1_base_ad_rev2/quantum/split_common/transport.o
                                                  .build/obj_redox_rev1_base_ad_rev2/quantum/debounce/sym_defer_g.o
mk_delay                                          .build/obj_redox_rev1_base_ad_rev2/quantum/mousekey.o
                                                  .build/obj_redox_rev1_base_ad_rev2/quantum/command.o
mk_interval                                       .build/obj_redox_rev1_base_ad_rev2/quantum/mousekey.o
                                                  .build/obj_redox_rev1_base_ad_rev2/quantum/command.o
mk_max_speed                                      .build/obj_redox_rev1_base_ad_rev2/quantum/mousekey.o
                                                  .build/obj_redox_rev1_base_ad_rev2/quantum/command.o
mk_time_to_max                                    .build/obj_redox_rev1_base_ad_rev2/quantum/mousekey.o
                                                  .build/obj_redox_rev1_base_ad_rev2/quantum/command.o
mk_wheel_delay                                    .build/obj_redox_rev1_base_ad_rev2/quantum/mousekey.o
mk_wheel_interval                                 .build/obj_redox_rev1_base_ad_rev2/quantum/mousekey.o
mk_wheel_max_speed                                .build/obj_redox_rev1_base_ad_rev2/quantum/mousekey.o
                                                  .build/obj_redox_rev1_base_ad_rev2/quantum/command.o
mk_wheel_time_to_max                              .build/obj_redox_rev1_base_ad_rev2/quantum/mousekey.o
                                                  .build/obj_redox_rev1_base_ad_rev2/quantum/command.o
mod_config                                        .build/obj_redox_rev1_base_ad_rev2/quantum/keycode_config.o
                                                  .build/obj_redox_rev1_base_ad_rev2/quantum/keymap_common.o
mousekey_clear                                    .build/obj_redox_rev1_base_ad_rev2/quantum/mousekey.o
                                                  .build/obj_redox_rev1_base_ad_rev2/quantum/action.o
mousekey_get_report                               .build/obj_redox_rev1_base_ad_rev2/quantum/mousekey.o
mousekey_off                                      .build/obj_redox_rev1_base_ad_rev2/quantum/mousekey.o
                                                  .build/obj_redox_rev1_base_ad_rev2/quantum/action.o
mousekey_on                                       .build/obj_redox_rev1_base_ad_rev2/quantum/mousekey.o
                                                  .build/obj_redox_rev1_base_ad_rev2/quantum/action.o
mousekey_send                                     .build/obj_redox_rev1_base_ad_rev2/quantum/mousekey.o
                                                  .build/obj_redox_rev1_base_ad_rev2/quantum/action.o
mousekey_task                                     .build/obj_redox_rev1_base_ad_rev2/quantum/mousekey.o
                                                  .build/obj_redox_rev1_base_ad_rev2/quantum/keyboard.o
nkro_report                                       .build/obj_redox_rev1_base_ad_rev2/quantum/action_util.o
                                                  .build/obj_redox_rev1_base_ad_rev2/protocol/report.o
notify_usb_device_state_change_kb                 .build/obj_redox_rev1_base_ad_rev2/protocol/usb_device_state.o
notify_usb_device_state_change_user               .build/obj_redox_rev1_base_ad_rev2/protocol/usb_device_state.o
oneshot_disable                                   .build/obj_redox_rev1_base_ad_rev2/quantum/action_util.o
                                                  .build/obj_redox_rev1_base_ad_rev2/quantum/quantum.o
oneshot_enable                                    .build/obj_redox_rev1_base_ad_rev2/quantum/action_util.o
                                                  .build/obj_redox_rev1_base_ad_rev2/quantum/quantum.o
oneshot_layer_changed_kb                          .build/obj_redox_rev1_base_ad_rev2/quantum/action_util.o
oneshot_layer_changed_user                        .build/obj_redox_rev1_base_ad_rev2/quantum/action_util.o
oneshot_locked_mods_changed_kb                    .build/obj_redox_rev1_base_ad_rev2/quantum/action_util.o
oneshot_locked_mods_changed_user                  .build/obj_redox_rev1_base_ad_rev2/quantum/action_util.o
oneshot_mods_changed_kb                           .build/obj_redox_rev1_base_ad_rev2/quantum/action_util.o
oneshot_mods_changed_user                         .build/obj_redox_rev1_base_ad_rev2/quantum/action_util.o
oneshot_set                                       .build/obj_redox_rev1_base_ad_rev2/quantum/action_util.o
oneshot_toggle                                    .build/obj_redox_rev1_base_ad_rev2/quantum/action_util.o
                                                  .build/obj_redox_rev1_base_ad_rev2/quantum/quantum.o
peek_matrix                                       .build/obj_redox_rev1_base_ad_rev2/quantum/matrix_common.o
perform_space_cadet                               .build/obj_redox_rev1_base_ad_rev2/quantum/process_keycode/process_space_cadet.o
platform_setup                                    .build/obj_redox_rev1_base_ad_rev2/platforms/avr/platform.o
                                                  .build/obj_redox_rev1_base_ad_rev2/quantum/main.o
post_process_record_kb                            .build/obj_redox_rev1_base_ad_rev2/quantum/quantum.o
post_process_record_quantum                       .build/obj_redox_rev1_base_ad_rev2/quantum/quantum.o
post_process_record_user                          .build/obj_redox_rev1_base_ad_rev2/quantum/quantum.o
pre_process_record_kb                             .build/obj_redox_rev1_base_ad_rev2/quantum/quantum.o
pre_process_record_quantum                        .build/obj_redox_rev1_base_ad_rev2/quantum/quantum.o
                                                  .build/obj_redox_rev1_base_ad_rev2/quantum/action.o
pre_process_record_user                           .build/obj_redox_rev1_base_ad_rev2/quantum/quantum.o
preprocess_rgblight                               .build/obj_redox_rev1_base_ad_rev2/quantum/rgblight/rgblight.o
                                                  .build/obj_redox_rev1_base_ad_rev2/quantum/quantum.o
preprocess_tap_dance                              .build/obj_redox_rev1_base_ad_rev2/quantum/process_keycode/process_tap_dance.o
                                                  .build/obj_redox_rev1_base_ad_rev2/quantum/quantum.o
print_set_sendchar                                .build/obj_redox_rev1_base_ad_rev2/platforms/avr/printf.o
                                                  .build/obj_redox_rev1_base_ad_rev2/quantum/keyboard.o
process_action                                    .build/obj_redox_rev1_base_ad_rev2/quantum/action.o
process_action_kb                                 .build/obj_redox_rev1_base_ad_rev2/quantum/quantum.o
process_grave_esc                                 .build/obj_redox_rev1_base_ad_rev2/quantum/process_keycode/process_grave_esc.o
                                                  .build/obj_redox_rev1_base_ad_rev2/quantum/quantum.o
process_magic                                     .build/obj_redox_rev1_base_ad_rev2/quantum/process_keycode/process_magic.o
                                                  .build/obj_redox_rev1_base_ad_rev2/quantum/quantum.o
process_record                                    .build/obj_redox_rev1_base_ad_rev2/quantum/action.o
                                                  .build/obj_redox_rev1_base_ad_rev2/quantum/action_tapping.o
process_record_handler                            .build/obj_redox_rev1_base_ad_rev2/quantum/action.o
process_record_kb                                 .build/obj_redox_rev1_base_ad_rev2/quantum/quantum.o
process_record_nocache                            .build/obj_redox_rev1_base_ad_rev2/quantum/action.o
process_record_quantum                            .build/obj_redox_rev1_base_ad_rev2/quantum/quantum.o
process_record_tap_hint                           .build/obj_redox_rev1_base_ad_rev2/quantum/action.o
                                                  .build/obj_redox_rev1_base_ad_rev2/quantum/action_tapping.o
process_record_user                               .build/obj_redox_rev1_base_ad_rev2/quantum/keymap_introspection.o
process_rgb                                       .build/obj_redox_rev1_base_ad_rev2/quantum/process_keycode/process_rgb.o
                                                  .build/obj_redox_rev1_base_ad_rev2/quantum/quantum.o
process_space_cadet                               .build/obj_redox_rev1_base_ad_rev2/quantum/process_keycode/process_space_cadet.o
                                                  .build/obj_redox_rev1_base_ad_rev2/quantum/quantum.o
process_tap_dance                                 .build/obj_redox_rev1_base_ad_rev2/quantum/process_keycode/process_tap_dance.o
                                                  .build/obj_redox_rev1_base_ad_rev2/quantum/quantum.o
process_unicode                                   .build/obj_redox_rev1_base_ad_rev2/quantum/process_keycode/process_unicode.o
                                                  .build/obj_redox_rev1_base_ad_rev2/quantum/process_keycode/process_unicode_common.o
process_unicode_common                            .build/obj_redox_rev1_base_ad_rev2/quantum/process_keycode/process_unicode_common.o
                                                  .build/obj_redox_rev1_base_ad_rev2/quantum/quantum.o
protocol_keyboard_task                            .build/obj_redox_rev1_base_ad_rev2/quantum/main.o
protocol_post_init                                .build/obj_redox_rev1_base_ad_rev2/lufa.o
                                                  .build/obj_redox_rev1_base_ad_rev2/quantum/main.o
protocol_post_task                                .build/obj_redox_rev1_base_ad_rev2/lufa.o
                                                  .build/obj_redox_rev1_base_ad_rev2/quantum/main.o
protocol_pre_init                                 .build/obj_redox_rev1_base_ad_rev2/lufa.o
                                                  .build/obj_redox_rev1_base_ad_rev2/quantum/main.o
protocol_pre_task                                 .build/obj_redox_rev1_base_ad_rev2/lufa.o
                                                  .build/obj_redox_rev1_base_ad_rev2/quantum/main.o
protocol_setup                                    .build/obj_redox_rev1_base_ad_rev2/lufa.o
                                                  .build/obj_redox_rev1_base_ad_rev2/quantum/main.o
quantum_init                                      .build/obj_redox_rev1_base_ad_rev2/quantum/keyboard.o
quantum_task                                      .build/obj_redox_rev1_base_ad_rev2/quantum/keyboard.o
rand                                              /usr/lib/gcc/avr/7.3.0/../../../avr/lib/avr5/libc.a(rand.o)
                                                  .build/obj_redox_rev1_base_ad_rev2/quantum/rgblight/rgblight.o
rand_r                                            /usr/lib/gcc/avr/7.3.0/../../../avr/lib/avr5/libc.a(rand.o)
raw_matrix                                        .build/obj_redox_rev1_base_ad_rev2/quantum/matrix_common.o
                                                  .build/obj_redox_rev1_base_ad_rev2/quantum/matrix.o
read_source_layers_cache                          .build/obj_redox_rev1_base_ad_rev2/quantum/action_layer.o
                                                  .build/obj_redox_rev1_base_ad_rev2/quantum/quantum.o
read_source_layers_cache_impl                     .build/obj_redox_rev1_base_ad_rev2/quantum/action_layer.o
register_code                                     .build/obj_redox_rev1_base_ad_rev2/quantum/action.o
                                                  .build/obj_redox_rev1_base_ad_rev2/quantum/send_string/send_string.o
                                                  .build/obj_redox_rev1_base_ad_rev2/quantum/unicode/unicode.o
                                                  .build/obj_redox_rev1_base_ad_rev2/quantum/quantum.o
                                                  .build/obj_redox_rev1_base_ad_rev2/quantum/keymap_introspection.o
register_code16                                   .build/obj_redox_rev1_base_ad_rev2/quantum/quantum.o
                                                  .build/obj_redox_rev1_base_ad_rev2/quantum/process_keycode/process_tap_dance.o
register_hex                                      .build/obj_redox_rev1_base_ad_rev2/quantum/unicode/unicode.o
register_hex32                                    .build/obj_redox_rev1_base_ad_rev2/quantum/unicode/unicode.o
register_mods                                     .build/obj_redox_rev1_base_ad_rev2/quantum/action.o
                                                  .build/obj_redox_rev1_base_ad_rev2/quantum/process_keycode/process_space_cadet.o
                                                  .build/obj_redox_rev1_base_ad_rev2/quantum/quantum.o
register_mouse                                    .build/obj_redox_rev1_base_ad_rev2/quantum/action.o
register_unicode                                  .build/obj_redox_rev1_base_ad_rev2/quantum/unicode/unicode.o
                                                  .build/obj_redox_rev1_base_ad_rev2/quantum/process_keycode/process_unicode.o
register_weak_mods                                .build/obj_redox_rev1_base_ad_rev2/quantum/action.o
                                                  .build/obj_redox_rev1_base_ad_rev2/quantum/quantum.o
reset_keyboard                                    .build/obj_redox_rev1_base_ad_rev2/quantum/quantum.o
                                                  .build/obj_redox_rev1_base_ad_rev2/quantum/command.o
reset_oneshot_layer                               .build/obj_redox_rev1_base_ad_rev2/quantum/action_util.o
reset_space_cadet                                 .build/obj_redox_rev1_base_ad_rev2/quantum/process_keycode/process_space_cadet.o
reset_tap_dance                                   .build/obj_redox_rev1_base_ad_rev2/quantum/process_keycode/process_tap_dance.o
rgblight_check_config                             .build/obj_redox_rev1_base_ad_rev2/quantum/rgblight/rgblight.o
rgblight_clear_change_flags                       .build/obj_redox_rev1_base_ad_rev2/quantum/rgblight/rgblight.o
                                                  .build/obj_redox_rev1_base_ad_rev2/quantum/split_common/transactions.o
rgblight_config                                   .build/obj_redox_rev1_base_ad_rev2/quantum/rgblight/rgblight.o
rgblight_decrease                                 .build/obj_redox_rev1_base_ad_rev2/quantum/rgblight/rgblight.o
rgblight_decrease_hue                             .build/obj_redox_rev1_base_ad_rev2/quantum/rgblight/rgblight.o
                                                  .build/obj_redox_rev1_base_ad_rev2/quantum/process_keycode/process_rgb.o
rgblight_decrease_hue_helper                      .build/obj_redox_rev1_base_ad_rev2/quantum/rgblight/rgblight.o
rgblight_decrease_hue_noeeprom                    .build/obj_redox_rev1_base_ad_rev2/quantum/rgblight/rgblight.o
rgblight_decrease_sat                             .build/obj_redox_rev1_base_ad_rev2/quantum/rgblight/rgblight.o
                                                  .build/obj_redox_rev1_base_ad_rev2/quantum/process_keycode/process_rgb.o
rgblight_decrease_sat_helper                      .build/obj_redox_rev1_base_ad_rev2/quantum/rgblight/rgblight.o
rgblight_decrease_sat_noeeprom                    .build/obj_redox_rev1_base_ad_rev2/quantum/rgblight/rgblight.o
rgblight_decrease_speed                           .build/obj_redox_rev1_base_ad_rev2/quantum/rgblight/rgblight.o
                                                  .build/obj_redox_rev1_base_ad_rev2/quantum/process_keycode/process_rgb.o
rgblight_decrease_speed_helper                    .build/obj_redox_rev1_base_ad_rev2/quantum/rgblight/rgblight.o
rgblight_decrease_speed_noeeprom                  .build/obj_redox_rev1_base_ad_rev2/quantum/rgblight/rgblight.o
rgblight_decrease_val                             .build/obj_redox_rev1_base_ad_rev2/quantum/rgblight/rgblight.o
                                                  .build/obj_redox_rev1_base_ad_rev2/quantum/process_keycode/process_rgb.o
rgblight_decrease_val_helper                      .build/obj_redox_rev1_base_ad_rev2/quantum/rgblight/rgblight.o
rgblight_decrease_val_noeeprom                    .build/obj_redox_rev1_base_ad_rev2/quantum/rgblight/rgblight.o
rgblight_disable                                  .build/obj_redox_rev1_base_ad_rev2/quantum/rgblight/rgblight.o
rgblight_disable_noeeprom                         .build/obj_redox_rev1_base_ad_rev2/quantum/rgblight/rgblight.o
rgblight_driver                                   .build/obj_redox_rev1_base_ad_rev2/quantum/rgblight/rgblight_drivers.o
                                                  .build/obj_redox_rev1_base_ad_rev2/quantum/rgblight/rgblight.o
rgblight_effect_alternating                       .build/obj_redox_rev1_base_ad_rev2/quantum/rgblight/rgblight.o
rgblight_effect_breathe_table                     .build/obj_redox_rev1_base_ad_rev2/quantum/rgblight/rgblight.o
rgblight_effect_breathing                         .build/obj_redox_rev1_base_ad_rev2/quantum/rgblight/rgblight.o
rgblight_effect_christmas                         .build/obj_redox_rev1_base_ad_rev2/quantum/rgblight/rgblight.o
rgblight_effect_knight                            .build/obj_redox_rev1_base_ad_rev2/quantum/rgblight/rgblight.o
rgblight_effect_rainbow_mood                      .build/obj_redox_rev1_base_ad_rev2/quantum/rgblight/rgblight.o
rgblight_effect_rainbow_swirl                     .build/obj_redox_rev1_base_ad_rev2/quantum/rgblight/rgblight.o
rgblight_effect_rgbtest                           .build/obj_redox_rev1_base_ad_rev2/quantum/rgblight/rgblight.o
rgblight_effect_snake                             .build/obj_redox_rev1_base_ad_rev2/quantum/rgblight/rgblight.o
rgblight_effect_twinkle                           .build/obj_redox_rev1_base_ad_rev2/quantum/rgblight/rgblight.o
rgblight_enable                                   .build/obj_redox_rev1_base_ad_rev2/quantum/rgblight/rgblight.o
rgblight_enable_noeeprom                          .build/obj_redox_rev1_base_ad_rev2/quantum/rgblight/rgblight.o
rgblight_enabled_noeeprom                         .build/obj_redox_rev1_base_ad_rev2/quantum/rgblight/rgblight.o
rgblight_get_change_flags                         .build/obj_redox_rev1_base_ad_rev2/quantum/rgblight/rgblight.o
rgblight_get_hsv                                  .build/obj_redox_rev1_base_ad_rev2/quantum/rgblight/rgblight.o
rgblight_get_hue                                  .build/obj_redox_rev1_base_ad_rev2/quantum/rgblight/rgblight.o
rgblight_get_mode                                 .build/obj_redox_rev1_base_ad_rev2/quantum/rgblight/rgblight.o
                                                  .build/obj_redox_rev1_base_ad_rev2/quantum/process_keycode/process_rgb.o
rgblight_get_sat                                  .build/obj_redox_rev1_base_ad_rev2/quantum/rgblight/rgblight.o
rgblight_get_speed                                .build/obj_redox_rev1_base_ad_rev2/quantum/rgblight/rgblight.o
rgblight_get_syncinfo                             .build/obj_redox_rev1_base_ad_rev2/quantum/rgblight/rgblight.o
                                                  .build/obj_redox_rev1_base_ad_rev2/quantum/split_common/transactions.o
rgblight_get_val                                  .build/obj_redox_rev1_base_ad_rev2/quantum/rgblight/rgblight.o
rgblight_hsv_to_rgb                               .build/obj_redox_rev1_base_ad_rev2/quantum/rgblight/rgblight.o
rgblight_increase                                 .build/obj_redox_rev1_base_ad_rev2/quantum/rgblight/rgblight.o
rgblight_increase_hue                             .build/obj_redox_rev1_base_ad_rev2/quantum/rgblight/rgblight.o
                                                  .build/obj_redox_rev1_base_ad_rev2/quantum/process_keycode/process_rgb.o
rgblight_increase_hue_helper                      .build/obj_redox_rev1_base_ad_rev2/quantum/rgblight/rgblight.o
rgblight_increase_hue_noeeprom                    .build/obj_redox_rev1_base_ad_rev2/quantum/rgblight/rgblight.o
rgblight_increase_sat                             .build/obj_redox_rev1_base_ad_rev2/quantum/rgblight/rgblight.o
                                                  .build/obj_redox_rev1_base_ad_rev2/quantum/process_keycode/process_rgb.o
rgblight_increase_sat_helper                      .build/obj_redox_rev1_base_ad_rev2/quantum/rgblight/rgblight.o
rgblight_increase_sat_noeeprom                    .build/obj_redox_rev1_base_ad_rev2/quantum/rgblight/rgblight.o
rgblight_increase_speed                           .build/obj_redox_rev1_base_ad_rev2/quantum/rgblight/rgblight.o
                                                  .build/obj_redox_rev1_base_ad_rev2/quantum/process_keycode/process_rgb.o
rgblight_increase_speed_helper                    .build/obj_redox_rev1_base_ad_rev2/quantum/rgblight/rgblight.o
rgblight_increase_speed_noeeprom                  .build/obj_redox_rev1_base_ad_rev2/quantum/rgblight/rgblight.o
rgblight_increase_val                             .build/obj_redox_rev1_base_ad_rev2/quantum/rgblight/rgblight.o
                                                  .build/obj_redox_rev1_base_ad_rev2/quantum/process_keycode/process_rgb.o
rgblight_increase_val_helper                      .build/obj_redox_rev1_base_ad_rev2/quantum/rgblight/rgblight.o
rgblight_increase_val_noeeprom                    .build/obj_redox_rev1_base_ad_rev2/quantum/rgblight/rgblight.o
rgblight_init                                     .build/obj_redox_rev1_base_ad_rev2/quantum/rgblight/rgblight.o
                                                  .build/obj_redox_rev1_base_ad_rev2/quantum/keyboard.o
rgblight_is_enabled                               .build/obj_redox_rev1_base_ad_rev2/quantum/rgblight/rgblight.o
rgblight_mode                                     .build/obj_redox_rev1_base_ad_rev2/quantum/rgblight/rgblight.o
                                                  .build/obj_redox_rev1_base_ad_rev2/quantum/process_keycode/process_rgb.o
rgblight_mode_eeprom_helper                       .build/obj_redox_rev1_base_ad_rev2/quantum/rgblight/rgblight.o
rgblight_mode_noeeprom                            .build/obj_redox_rev1_base_ad_rev2/quantum/rgblight/rgblight.o
rgblight_ranges                                   .build/obj_redox_rev1_base_ad_rev2/quantum/rgblight/rgblight.o
rgblight_read_qword                               .build/obj_redox_rev1_base_ad_rev2/quantum/rgblight/rgblight.o
rgblight_reload_from_eeprom                       .build/obj_redox_rev1_base_ad_rev2/quantum/rgblight/rgblight.o
rgblight_set                                      .build/obj_redox_rev1_base_ad_rev2/quantum/rgblight/rgblight.o
rgblight_set_clipping_range                       .build/obj_redox_rev1_base_ad_rev2/quantum/rgblight/rgblight.o
rgblight_set_effect_range                         .build/obj_redox_rev1_base_ad_rev2/quantum/rgblight/rgblight.o
rgblight_set_speed                                .build/obj_redox_rev1_base_ad_rev2/quantum/rgblight/rgblight.o
rgblight_set_speed_eeprom_helper                  .build/obj_redox_rev1_base_ad_rev2/quantum/rgblight/rgblight.o
rgblight_set_speed_noeeprom                       .build/obj_redox_rev1_base_ad_rev2/quantum/rgblight/rgblight.o
rgblight_sethsv                                   .build/obj_redox_rev1_base_ad_rev2/quantum/rgblight/rgblight.o
rgblight_sethsv_at                                .build/obj_redox_rev1_base_ad_rev2/quantum/rgblight/rgblight.o
rgblight_sethsv_eeprom_helper                     .build/obj_redox_rev1_base_ad_rev2/quantum/rgblight/rgblight.o
rgblight_sethsv_noeeprom                          .build/obj_redox_rev1_base_ad_rev2/quantum/rgblight/rgblight.o
rgblight_sethsv_noeeprom_old                      .build/obj_redox_rev1_base_ad_rev2/quantum/rgblight/rgblight.o
rgblight_sethsv_range                             .build/obj_redox_rev1_base_ad_rev2/quantum/rgblight/rgblight.o
rgblight_setrgb                                   .build/obj_redox_rev1_base_ad_rev2/quantum/rgblight/rgblight.o
rgblight_setrgb_at                                .build/obj_redox_rev1_base_ad_rev2/quantum/rgblight/rgblight.o
rgblight_setrgb_range                             .build/obj_redox_rev1_base_ad_rev2/quantum/rgblight/rgblight.o
rgblight_show_solid_color                         .build/obj_redox_rev1_base_ad_rev2/quantum/rgblight/rgblight.o
rgblight_status                                   .build/obj_redox_rev1_base_ad_rev2/quantum/rgblight/rgblight.o
rgblight_step                                     .build/obj_redox_rev1_base_ad_rev2/quantum/rgblight/rgblight.o
                                                  .build/obj_redox_rev1_base_ad_rev2/quantum/process_keycode/process_rgb.o
rgblight_step_helper                              .build/obj_redox_rev1_base_ad_rev2/quantum/rgblight/rgblight.o
rgblight_step_noeeprom                            .build/obj_redox_rev1_base_ad_rev2/quantum/rgblight/rgblight.o
rgblight_step_reverse                             .build/obj_redox_rev1_base_ad_rev2/quantum/rgblight/rgblight.o
                                                  .build/obj_redox_rev1_base_ad_rev2/quantum/process_keycode/process_rgb.o
rgblight_step_reverse_helper                      .build/obj_redox_rev1_base_ad_rev2/quantum/rgblight/rgblight.o
rgblight_step_reverse_noeeprom                    .build/obj_redox_rev1_base_ad_rev2/quantum/rgblight/rgblight.o
rgblight_task                                     .build/obj_redox_rev1_base_ad_rev2/quantum/rgblight/rgblight.o
                                                  .build/obj_redox_rev1_base_ad_rev2/quantum/keyboard.o
rgblight_timer_disable                            .build/obj_redox_rev1_base_ad_rev2/quantum/rgblight/rgblight.o
rgblight_timer_enable                             .build/obj_redox_rev1_base_ad_rev2/quantum/rgblight/rgblight.o
rgblight_timer_init                               .build/obj_redox_rev1_base_ad_rev2/quantum/rgblight/rgblight.o
rgblight_timer_task                               .build/obj_redox_rev1_base_ad_rev2/quantum/rgblight/rgblight.o
rgblight_timer_toggle                             .build/obj_redox_rev1_base_ad_rev2/quantum/rgblight/rgblight.o
rgblight_toggle                                   .build/obj_redox_rev1_base_ad_rev2/quantum/rgblight/rgblight.o
                                                  .build/obj_redox_rev1_base_ad_rev2/quantum/process_keycode/process_rgb.o
rgblight_toggle_noeeprom                          .build/obj_redox_rev1_base_ad_rev2/quantum/rgblight/rgblight.o
rgblight_update_qword                             .build/obj_redox_rev1_base_ad_rev2/quantum/rgblight/rgblight.o
rgblight_update_sync                              .build/obj_redox_rev1_base_ad_rev2/quantum/rgblight/rgblight.o
                                                  .build/obj_redox_rev1_base_ad_rev2/quantum/split_common/transactions.o
send_6kro_report                                  .build/obj_redox_rev1_base_ad_rev2/quantum/action_util.o
send_byte                                         .build/obj_redox_rev1_base_ad_rev2/quantum/send_string/send_string.o
send_char                                         .build/obj_redox_rev1_base_ad_rev2/quantum/send_string/send_string.o
send_char_with_delay                              .build/obj_redox_rev1_base_ad_rev2/quantum/send_string/send_string.o
send_digitizer                                    .build/obj_redox_rev1_base_ad_rev2/lufa.o
                                                  .build/obj_redox_rev1_base_ad_rev2/protocol/host.o
send_dword                                        .build/obj_redox_rev1_base_ad_rev2/quantum/send_string/send_string.o
send_joystick                                     .build/obj_redox_rev1_base_ad_rev2/lufa.o
                                                  .build/obj_redox_rev1_base_ad_rev2/protocol/host.o
send_keyboard_report                              .build/obj_redox_rev1_base_ad_rev2/quantum/action_util.o
                                                  .build/obj_redox_rev1_base_ad_rev2/quantum/process_keycode/process_tap_dance.o
                                                  .build/obj_redox_rev1_base_ad_rev2/quantum/process_keycode/process_grave_esc.o
                                                  .build/obj_redox_rev1_base_ad_rev2/quantum/action.o
send_nibble                                       .build/obj_redox_rev1_base_ad_rev2/quantum/send_string/send_string.o
                                                  .build/obj_redox_rev1_base_ad_rev2/quantum/unicode/unicode.o
send_nkro_report                                  .build/obj_redox_rev1_base_ad_rev2/quantum/action_util.o
send_programmable_button                          .build/obj_redox_rev1_base_ad_rev2/lufa.o
                                                  .build/obj_redox_rev1_base_ad_rev2/protocol/host.o
send_report                                       .build/obj_redox_rev1_base_ad_rev2/lufa.o
send_string                                       .build/obj_redox_rev1_base_ad_rev2/quantum/send_string/send_string.o
send_string_P                                     .build/obj_redox_rev1_base_ad_rev2/quantum/send_string/send_string.o
send_string_with_delay                            .build/obj_redox_rev1_base_ad_rev2/quantum/send_string/send_string.o
send_string_with_delay_P                          .build/obj_redox_rev1_base_ad_rev2/quantum/send_string/send_string.o
                                                  .build/obj_redox_rev1_base_ad_rev2/quantum/keymap_introspection.o
send_unicode_string                               .build/obj_redox_rev1_base_ad_rev2/quantum/unicode/unicode.o
send_word                                         .build/obj_redox_rev1_base_ad_rev2/quantum/send_string/send_string.o
sendchar                                          .build/obj_redox_rev1_base_ad_rev2/quantum/logging/sendchar.o
                                                  .build/obj_redox_rev1_base_ad_rev2/quantum/keyboard.o
serial_write_chunk                                .build/obj_redox_rev1_base_ad_rev2/serial.a(serial.o)
set_activity_timestamps                           .build/obj_redox_rev1_base_ad_rev2/quantum/keyboard.o
set_mods                                          .build/obj_redox_rev1_base_ad_rev2/quantum/action_util.o
                                                  .build/obj_redox_rev1_base_ad_rev2/quantum/unicode/unicode.o
set_oneshot_layer                                 .build/obj_redox_rev1_base_ad_rev2/quantum/action_util.o
                                                  .build/obj_redox_rev1_base_ad_rev2/quantum/action.o
set_oneshot_locked_mods                           .build/obj_redox_rev1_base_ad_rev2/quantum/action_util.o
set_oneshot_mods                                  .build/obj_redox_rev1_base_ad_rev2/quantum/action_util.o
set_single_persistent_default_layer               .build/obj_redox_rev1_base_ad_rev2/quantum/quantum.o
set_split_host_keyboard_leds                      .build/obj_redox_rev1_base_ad_rev2/protocol/host.o
set_unicode_input_mode                            .build/obj_redox_rev1_base_ad_rev2/quantum/unicode/unicode.o
                                                  .build/obj_redox_rev1_base_ad_rev2/quantum/process_keycode/process_unicode_common.o
set_weak_mods                                     .build/obj_redox_rev1_base_ad_rev2/quantum/action_util.o
sethsv                                            .build/obj_redox_rev1_base_ad_rev2/quantum/rgblight/rgblight.o
sethsv_raw                                        .build/obj_redox_rev1_base_ad_rev2/quantum/rgblight/rgblight.o
setrgb                                            .build/obj_redox_rev1_base_ad_rev2/quantum/rgblight/rgblight.o
should_mousekey_report_send                       .build/obj_redox_rev1_base_ad_rev2/quantum/mousekey.o
should_process_keypress                           .build/obj_redox_rev1_base_ad_rev2/quantum/keyboard.o
shutdown_kb                                       .build/obj_redox_rev1_base_ad_rev2/quantum/quantum.o
shutdown_quantum                                  .build/obj_redox_rev1_base_ad_rev2/quantum/quantum.o
shutdown_user                                     .build/obj_redox_rev1_base_ad_rev2/quantum/quantum.o
soft_reset_keyboard                               .build/obj_redox_rev1_base_ad_rev2/quantum/quantum.o
soft_serial_initiator_init                        .build/obj_redox_rev1_base_ad_rev2/serial.a(serial.o)
                                                  .build/obj_redox_rev1_base_ad_rev2/quantum/split_common/transport.o
soft_serial_target_init                           .build/obj_redox_rev1_base_ad_rev2/serial.a(serial.o)
                                                  .build/obj_redox_rev1_base_ad_rev2/quantum/split_common/transport.o
soft_serial_transaction                           .build/obj_redox_rev1_base_ad_rev2/serial.a(serial.o)
                                                  .build/obj_redox_rev1_base_ad_rev2/quantum/split_common/transport.o
source_layers_cache                               .build/obj_redox_rev1_base_ad_rev2/quantum/action_layer.o
split_led_state                                   .build/obj_redox_rev1_base_ad_rev2/protocol/host.o
split_post_init                                   .build/obj_redox_rev1_base_ad_rev2/quantum/split_common/split_util.o
                                                  .build/obj_redox_rev1_base_ad_rev2/quantum/keyboard.o
split_pre_init                                    .build/obj_redox_rev1_base_ad_rev2/quantum/split_common/split_util.o
                                                  .build/obj_redox_rev1_base_ad_rev2/quantum/keyboard.o
split_shared_memory_autounlock_lock_helper        .build/obj_redox_rev1_base_ad_rev2/platforms/synchronization_util.o
split_shared_memory_autounlock_unlock_helper      .build/obj_redox_rev1_base_ad_rev2/platforms/synchronization_util.o
split_shared_memory_lock                          .build/obj_redox_rev1_base_ad_rev2/platforms/synchronization_util.o
split_shared_memory_unlock                        .build/obj_redox_rev1_base_ad_rev2/platforms/synchronization_util.o
split_shmem                                       .build/obj_redox_rev1_base_ad_rev2/quantum/split_common/transport.o
                                                  .build/obj_redox_rev1_base_ad_rev2/serial.a(serial.o)
                                                  .build/obj_redox_rev1_base_ad_rev2/quantum/split_common/transactions.o
split_transaction_table                           .build/obj_redox_rev1_base_ad_rev2/quantum/split_common/transactions.o
                                                  .build/obj_redox_rev1_base_ad_rev2/serial.a(serial.o)
                                                  .build/obj_redox_rev1_base_ad_rev2/quantum/split_common/transport.o
srand                                             /usr/lib/gcc/avr/7.3.0/../../../avr/lib/avr5/libc.a(rand.o)
store_or_get_action                               .build/obj_redox_rev1_base_ad_rev2/quantum/action_layer.o
                                                  .build/obj_redox_rev1_base_ad_rev2/quantum/action.o
suspend_power_down                                .build/obj_redox_rev1_base_ad_rev2/platforms/avr/suspend.o
                                                  .build/obj_redox_rev1_base_ad_rev2/lufa.o
suspend_power_down_kb                             .build/obj_redox_rev1_base_ad_rev2/platforms/suspend.o
                                                  .build/obj_redox_rev1_base_ad_rev2/quantum/quantum.o
suspend_power_down_quantum                        .build/obj_redox_rev1_base_ad_rev2/quantum/quantum.o
                                                  .build/obj_redox_rev1_base_ad_rev2/platforms/avr/suspend.o
suspend_power_down_user                           .build/obj_redox_rev1_base_ad_rev2/platforms/suspend.o
suspend_wakeup_condition                          .build/obj_redox_rev1_base_ad_rev2/platforms/suspend.o
                                                  .build/obj_redox_rev1_base_ad_rev2/lufa.o
suspend_wakeup_init                               .build/obj_redox_rev1_base_ad_rev2/platforms/avr/suspend.o
                                                  .build/obj_redox_rev1_base_ad_rev2/lufa.o
suspend_wakeup_init_kb                            .build/obj_redox_rev1_base_ad_rev2/platforms/suspend.o
                                                  .build/obj_redox_rev1_base_ad_rev2/quantum/quantum.o
suspend_wakeup_init_quantum                       .build/obj_redox_rev1_base_ad_rev2/quantum/quantum.o
                                                  .build/obj_redox_rev1_base_ad_rev2/platforms/avr/suspend.o
suspend_wakeup_init_user                          .build/obj_redox_rev1_base_ad_rev2/platforms/suspend.o
switch_events                                     .build/obj_redox_rev1_base_ad_rev2/quantum/keyboard.o
sync_timer_elapsed                                .build/obj_redox_rev1_base_ad_rev2/quantum/sync_timer.o
sync_timer_elapsed32                              .build/obj_redox_rev1_base_ad_rev2/quantum/sync_timer.o
                                                  .build/obj_redox_rev1_base_ad_rev2/quantum/keyboard.o
sync_timer_init                                   .build/obj_redox_rev1_base_ad_rev2/quantum/sync_timer.o
                                                  .build/obj_redox_rev1_base_ad_rev2/quantum/keyboard.o
sync_timer_ms                                     .build/obj_redox_rev1_base_ad_rev2/quantum/sync_timer.o
sync_timer_read                                   .build/obj_redox_rev1_base_ad_rev2/quantum/sync_timer.o
                                                  .build/obj_redox_rev1_base_ad_rev2/quantum/rgblight/rgblight.o
sync_timer_read32                                 .build/obj_redox_rev1_base_ad_rev2/quantum/sync_timer.o
                                                  .build/obj_redox_rev1_base_ad_rev2/quantum/split_common/transactions.o
                                                  .build/obj_redox_rev1_base_ad_rev2/quantum/keyboard.o
sync_timer_update                                 .build/obj_redox_rev1_base_ad_rev2/quantum/sync_timer.o
                                                  .build/obj_redox_rev1_base_ad_rev2/quantum/split_common/transactions.o
tap_code                                          .build/obj_redox_rev1_base_ad_rev2/quantum/action.o
                                                  .build/obj_redox_rev1_base_ad_rev2/quantum/process_keycode/process_space_cadet.o
                                                  .build/obj_redox_rev1_base_ad_rev2/quantum/send_string/send_string.o
                                                  .build/obj_redox_rev1_base_ad_rev2/quantum/unicode/unicode.o
tap_code16                                        .build/obj_redox_rev1_base_ad_rev2/quantum/quantum.o
                                                  .build/obj_redox_rev1_base_ad_rev2/quantum/unicode/unicode.o
tap_code16_delay                                  .build/obj_redox_rev1_base_ad_rev2/quantum/quantum.o
tap_code_delay                                    .build/obj_redox_rev1_base_ad_rev2/quantum/action.o
                                                  .build/obj_redox_rev1_base_ad_rev2/quantum/send_string/send_string.o
tap_dance_actions                                 .build/obj_redox_rev1_base_ad_rev2/quantum/keymap_introspection.o
                                                  .build/obj_redox_rev1_base_ad_rev2/quantum/process_keycode/process_tap_dance.o
tap_dance_dual_role_finished                      .build/obj_redox_rev1_base_ad_rev2/quantum/process_keycode/process_tap_dance.o
tap_dance_dual_role_on_each_tap                   .build/obj_redox_rev1_base_ad_rev2/quantum/process_keycode/process_tap_dance.o
tap_dance_dual_role_reset                         .build/obj_redox_rev1_base_ad_rev2/quantum/process_keycode/process_tap_dance.o
tap_dance_pair_finished                           .build/obj_redox_rev1_base_ad_rev2/quantum/process_keycode/process_tap_dance.o
                                                  .build/obj_redox_rev1_base_ad_rev2/quantum/keymap_introspection.o
tap_dance_pair_on_each_tap                        .build/obj_redox_rev1_base_ad_rev2/quantum/process_keycode/process_tap_dance.o
                                                  .build/obj_redox_rev1_base_ad_rev2/quantum/keymap_introspection.o
tap_dance_pair_reset                              .build/obj_redox_rev1_base_ad_rev2/quantum/process_keycode/process_tap_dance.o
                                                  .build/obj_redox_rev1_base_ad_rev2/quantum/keymap_introspection.o
tap_dance_task                                    .build/obj_redox_rev1_base_ad_rev2/quantum/process_keycode/process_tap_dance.o
                                                  .build/obj_redox_rev1_base_ad_rev2/quantum/keyboard.o
tap_random_base64                                 .build/obj_redox_rev1_base_ad_rev2/quantum/send_string/send_string.o
thatHand                                          .build/obj_redox_rev1_base_ad_rev2/quantum/matrix_common.o
                                                  .build/obj_redox_rev1_base_ad_rev2/quantum/matrix.o
thisHand                                          .build/obj_redox_rev1_base_ad_rev2/quantum/matrix_common.o
                                                  .build/obj_redox_rev1_base_ad_rev2/quantum/matrix.o
timer_clear                                       .build/obj_redox_rev1_base_ad_rev2/platforms/avr/timer.o
timer_count                                       .build/obj_redox_rev1_base_ad_rev2/platforms/avr/timer.o
                                                  .build/obj_redox_rev1_base_ad_rev2/platforms/avr/suspend.o
timer_elapsed                                     .build/obj_redox_rev1_base_ad_rev2/platforms/avr/timer.o
                                                  .build/obj_redox_rev1_base_ad_rev2/platforms/timer.o
                                                  .build/obj_redox_rev1_base_ad_rev2/quantum/process_keycode/process_tap_dance.o
                                                  .build/obj_redox_rev1_base_ad_rev2/quantum/process_keycode/process_space_cadet.o
                                                  .build/obj_redox_rev1_base_ad_rev2/quantum/mousekey.o
                                                  .build/obj_redox_rev1_base_ad_rev2/quantum/split_common/split_util.o
                                                  .build/obj_redox_rev1_base_ad_rev2/quantum/debounce/sym_defer_g.o
                                                  .build/obj_redox_rev1_base_ad_rev2/quantum/sync_timer.o
timer_elapsed32                                   .build/obj_redox_rev1_base_ad_rev2/platforms/avr/timer.o
                                                  .build/obj_redox_rev1_base_ad_rev2/quantum/split_common/transactions.o
                                                  .build/obj_redox_rev1_base_ad_rev2/quantum/sync_timer.o
                                                  .build/obj_redox_rev1_base_ad_rev2/quantum/led.o
timer_elapsed_fast                                .build/obj_redox_rev1_base_ad_rev2/platforms/timer.o
timer_init                                        .build/obj_redox_rev1_base_ad_rev2/platforms/avr/timer.o
                                                  .build/obj_redox_rev1_base_ad_rev2/quantum/keyboard.o
timer_read                                        .build/obj_redox_rev1_base_ad_rev2/platforms/avr/timer.o
                                                  .build/obj_redox_rev1_base_ad_rev2/platforms/timer.o
                                                  .build/obj_redox_rev1_base_ad_rev2/quantum/process_keycode/process_tap_dance.o
                                                  .build/obj_redox_rev1_base_ad_rev2/quantum/process_keycode/process_space_cadet.o
                                                  .build/obj_redox_rev1_base_ad_rev2/quantum/mousekey.o
                                                  .build/obj_redox_rev1_base_ad_rev2/quantum/split_common/split_util.o
                                                  .build/obj_redox_rev1_base_ad_rev2/quantum/debounce/sym_defer_g.o
                                                  .build/obj_redox_rev1_base_ad_rev2/quantum/sync_timer.o
                                                  .build/obj_redox_rev1_base_ad_rev2/quantum/keyboard.o
timer_read32                                      .build/obj_redox_rev1_base_ad_rev2/platforms/avr/timer.o
                                                  .build/obj_redox_rev1_base_ad_rev2/quantum/split_common/transactions.o
                                                  .build/obj_redox_rev1_base_ad_rev2/quantum/sync_timer.o
                                                  .build/obj_redox_rev1_base_ad_rev2/quantum/led.o
timer_read_fast                                   .build/obj_redox_rev1_base_ad_rev2/platforms/timer.o
tp_buttons                                        .build/obj_redox_rev1_base_ad_rev2/quantum/action.o
transactions_master                               .build/obj_redox_rev1_base_ad_rev2/quantum/split_common/transactions.o
                                                  .build/obj_redox_rev1_base_ad_rev2/quantum/split_common/transport.o
transactions_slave                                .build/obj_redox_rev1_base_ad_rev2/quantum/split_common/transactions.o
                                                  .build/obj_redox_rev1_base_ad_rev2/quantum/split_common/transport.o
transport_execute_transaction                     .build/obj_redox_rev1_base_ad_rev2/quantum/split_common/transport.o
                                                  .build/obj_redox_rev1_base_ad_rev2/quantum/split_common/transactions.o
transport_master                                  .build/obj_redox_rev1_base_ad_rev2/quantum/split_common/transport.o
                                                  .build/obj_redox_rev1_base_ad_rev2/quantum/split_common/split_util.o
                                                  .build/obj_redox_rev1_base_ad_rev2/quantum/matrix.o
transport_master_if_connected                     .build/obj_redox_rev1_base_ad_rev2/quantum/split_common/split_util.o
                                                  .build/obj_redox_rev1_base_ad_rev2/quantum/matrix.o
                                                  .build/obj_redox_rev1_base_ad_rev2/quantum/matrix_common.o
transport_master_init                             .build/obj_redox_rev1_base_ad_rev2/quantum/split_common/transport.o
                                                  .build/obj_redox_rev1_base_ad_rev2/quantum/split_common/split_util.o
transport_slave                                   .build/obj_redox_rev1_base_ad_rev2/quantum/split_common/transport.o
                                                  .build/obj_redox_rev1_base_ad_rev2/quantum/matrix_common.o
transport_slave_init                              .build/obj_redox_rev1_base_ad_rev2/quantum/split_common/transport.o
                                                  .build/obj_redox_rev1_base_ad_rev2/quantum/split_common/split_util.o
unicode_config                                    .build/obj_redox_rev1_base_ad_rev2/quantum/unicode/unicode.o
unicode_input_cancel                              .build/obj_redox_rev1_base_ad_rev2/quantum/unicode/unicode.o
unicode_input_finish                              .build/obj_redox_rev1_base_ad_rev2/quantum/unicode/unicode.o
unicode_input_mode_init                           .build/obj_redox_rev1_base_ad_rev2/quantum/unicode/unicode.o
                                                  .build/obj_redox_rev1_base_ad_rev2/quantum/keyboard.o
unicode_input_mode_set_kb                         .build/obj_redox_rev1_base_ad_rev2/quantum/unicode/unicode.o
unicode_input_mode_set_user                       .build/obj_redox_rev1_base_ad_rev2/quantum/unicode/unicode.o
unicode_input_mode_step                           .build/obj_redox_rev1_base_ad_rev2/quantum/unicode/unicode.o
                                                  .build/obj_redox_rev1_base_ad_rev2/quantum/process_keycode/process_unicode_common.o
unicode_input_mode_step_reverse                   .build/obj_redox_rev1_base_ad_rev2/quantum/unicode/unicode.o
                                                  .build/obj_redox_rev1_base_ad_rev2/quantum/process_keycode/process_unicode_common.o
unicode_input_start                               .build/obj_redox_rev1_base_ad_rev2/quantum/unicode/unicode.o
unicode_saved_led_state                           .build/obj_redox_rev1_base_ad_rev2/quantum/unicode/unicode.o
unicode_saved_mods                                .build/obj_redox_rev1_base_ad_rev2/quantum/unicode/unicode.o
unregister_code                                   .build/obj_redox_rev1_base_ad_rev2/quantum/action.o
                                                  .build/obj_redox_rev1_base_ad_rev2/quantum/send_string/send_string.o
                                                  .build/obj_redox_rev1_base_ad_rev2/quantum/unicode/unicode.o
                                                  .build/obj_redox_rev1_base_ad_rev2/quantum/quantum.o
                                                  .build/obj_redox_rev1_base_ad_rev2/quantum/keymap_introspection.o
unregister_code16                                 .build/obj_redox_rev1_base_ad_rev2/quantum/quantum.o
                                                  .build/obj_redox_rev1_base_ad_rev2/quantum/process_keycode/process_tap_dance.o
unregister_mods                                   .build/obj_redox_rev1_base_ad_rev2/quantum/action.o
                                                  .build/obj_redox_rev1_base_ad_rev2/quantum/process_keycode/process_space_cadet.o
                                                  .build/obj_redox_rev1_base_ad_rev2/quantum/quantum.o
unregister_weak_mods                              .build/obj_redox_rev1_base_ad_rev2/quantum/action.o
                                                  .build/obj_redox_rev1_base_ad_rev2/quantum/quantum.o
update_source_layers_cache                        .build/obj_redox_rev1_base_ad_rev2/quantum/action_layer.o
                                                  .build/obj_redox_rev1_base_ad_rev2/quantum/quantum.o
update_source_layers_cache_impl                   .build/obj_redox_rev1_base_ad_rev2/quantum/action_layer.o
update_tri_layer                                  .build/obj_redox_rev1_base_ad_rev2/quantum/action_layer.o
update_tri_layer_state                            .build/obj_redox_rev1_base_ad_rev2/quantum/action_layer.o
usb_connected_state                               .build/obj_redox_rev1_base_ad_rev2/protocol/lufa/usb_util.o
                                                  .build/obj_redox_rev1_base_ad_rev2/protocol/usb_util.o
usb_device_state                                  .build/obj_redox_rev1_base_ad_rev2/protocol/usb_device_state.o
usb_device_state_init                             .build/obj_redox_rev1_base_ad_rev2/protocol/usb_device_state.o
                                                  .build/obj_redox_rev1_base_ad_rev2/lufa.o
usb_device_state_set_configuration                .build/obj_redox_rev1_base_ad_rev2/protocol/usb_device_state.o
                                                  .build/obj_redox_rev1_base_ad_rev2/lufa.o
usb_device_state_set_reset                        .build/obj_redox_rev1_base_ad_rev2/protocol/usb_device_state.o
                                                  .build/obj_redox_rev1_base_ad_rev2/lufa.o
usb_device_state_set_resume                       .build/obj_redox_rev1_base_ad_rev2/protocol/usb_device_state.o
                                                  .build/obj_redox_rev1_base_ad_rev2/lufa.o
usb_device_state_set_suspend                      .build/obj_redox_rev1_base_ad_rev2/protocol/usb_device_state.o
                                                  .build/obj_redox_rev1_base_ad_rev2/lufa.o
usb_disconnect                                    .build/obj_redox_rev1_base_ad_rev2/protocol/lufa/usb_util.o
                                                  .build/obj_redox_rev1_base_ad_rev2/protocol/usb_util.o
                                                  .build/obj_redox_rev1_base_ad_rev2/quantum/split_common/split_util.o
usb_vbus_state                                    .build/obj_redox_rev1_base_ad_rev2/protocol/lufa/usb_util.o
                                                  .build/obj_redox_rev1_base_ad_rev2/protocol/usb_util.o
                                                  .build/obj_redox_rev1_base_ad_rev2/quantum/split_common/split_util.o
ws2812_init                                       .build/obj_redox_rev1_base_ad_rev2/ws2812_bitbang.o
                                                  .build/obj_redox_rev1_base_ad_rev2/quantum/rgblight/rgblight_drivers.o
ws2812_setleds                                    .build/obj_redox_rev1_base_ad_rev2/ws2812_bitbang.o
                                                  .build/obj_redox_rev1_base_ad_rev2/quantum/rgblight/rgblight_drivers.o
xfunc_out                                         .build/obj_redox_rev1_base_ad_rev2/platforms/avr/xprintf.o
                                                  .build/obj_redox_rev1_base_ad_rev2/platforms/avr/printf.o
xitoa                                             .build/obj_redox_rev1_base_ad_rev2/platforms/avr/xprintf.o
xputc                                             .build/obj_redox_rev1_base_ad_rev2/platforms/avr/xprintf.o
xputs                                             .build/obj_redox_rev1_base_ad_rev2/platforms/avr/xprintf.o
