Archive member included to satisfy reference by file (symbol)

.build/obj_redox_rev1_base_ad_rev3/serial.a(serial.o)
                              .build/obj_redox_rev1_base_ad_rev3/quantum/split_common/transport.o (soft_serial_initiator_init)
/usr/lib/gcc/avr/5.4.0/avr5/libgcc.a(_udivmodhi4.o)
                              .build/obj_redox_rev1_base_ad_rev3/quantum/color.o (__udivmodhi4)
/usr/lib/gcc/avr/5.4.0/avr5/libgcc.a(_divmodhi4.o)
                              .build/obj_redox_rev1_base_ad_rev3/quantum/unicode/unicode.o (__divmodhi4)
/usr/lib/gcc/avr/5.4.0/avr5/libgcc.a(_udivmodsi4.o)
                              .build/obj_redox_rev1_base_ad_rev3/quantum/quantum.o (__udivmodsi4)
/usr/lib/gcc/avr/5.4.0/avr5/libgcc.a(_exit.o)
                              /usr/lib/gcc/avr/5.4.0/../../../avr/lib/avr5/crtatmega32u4.o (exit)
/usr/lib/gcc/avr/5.4.0/avr5/libgcc.a(_tablejump2.o)
                              .build/obj_redox_rev1_base_ad_rev3/quantum/action.o (__tablejump2__)
/usr/lib/gcc/avr/5.4.0/avr5/libgcc.a(_copy_data.o)
                              .build/obj_redox_rev1_base_ad_rev3/quantum/quantum.o (__do_copy_data)
/usr/lib/gcc/avr/5.4.0/avr5/libgcc.a(_clear_bss.o)
                              .build/obj_redox_rev1_base_ad_rev3/quantum/keymap_introspection.o (__do_clear_bss)
/usr/lib/gcc/avr/5.4.0/avr5/libgcc.a(_prologue.o)
                              .build/obj_redox_rev1_base_ad_rev3/quantum/quantum.o (__prologue_saves__)
/usr/lib/gcc/avr/5.4.0/avr5/libgcc.a(_epilogue.o)
                              .build/obj_redox_rev1_base_ad_rev3/quantum/quantum.o (__epilogue_restores__)
/usr/lib/gcc/avr/5.4.0/avr5/libgcc.a(_ashldi3.o)
                              .build/obj_redox_rev1_base_ad_rev3/quantum/rgblight/rgblight.o (__ashldi3)
/usr/lib/gcc/avr/5.4.0/avr5/libgcc.a(_ashrdi3.o)
                              .build/obj_redox_rev1_base_ad_rev3/quantum/rgblight/rgblight.o (__lshrdi3)
/usr/lib/gcc/avr/5.4.0/../../../avr/lib/avr5/libc.a(memcmp.o)
                              .build/obj_redox_rev1_base_ad_rev3/quantum/action_util.o (memcmp)
/usr/lib/gcc/avr/5.4.0/../../../avr/lib/avr5/libc.a(memcpy.o)
                              .build/obj_redox_rev1_base_ad_rev3/quantum/debounce/sym_defer_g.o (memcpy)
/usr/lib/gcc/avr/5.4.0/../../../avr/lib/avr5/libatmega32u4.a(eerd_byte.o)
                              .build/obj_redox_rev1_base_ad_rev3/quantum/eeconfig.o (eeprom_read_byte)
/usr/lib/gcc/avr/5.4.0/../../../avr/lib/avr5/libatmega32u4.a(eerd_dword.o)
                              .build/obj_redox_rev1_base_ad_rev3/quantum/eeconfig.o (eeprom_read_dword)
/usr/lib/gcc/avr/5.4.0/../../../avr/lib/avr5/libatmega32u4.a(eerd_word.o)
                              .build/obj_redox_rev1_base_ad_rev3/quantum/eeconfig.o (eeprom_read_word)
/usr/lib/gcc/avr/5.4.0/../../../avr/lib/avr5/libatmega32u4.a(eeupd_block.o)
                              .build/obj_redox_rev1_base_ad_rev3/quantum/eeconfig.o (eeprom_update_block)
/usr/lib/gcc/avr/5.4.0/../../../avr/lib/avr5/libatmega32u4.a(eeupd_byte.o)
                              .build/obj_redox_rev1_base_ad_rev3/quantum/eeconfig.o (eeprom_update_byte)
/usr/lib/gcc/avr/5.4.0/../../../avr/lib/avr5/libatmega32u4.a(eeupd_dword.o)
                              .build/obj_redox_rev1_base_ad_rev3/quantum/eeconfig.o (eeprom_update_dword)
/usr/lib/gcc/avr/5.4.0/../../../avr/lib/avr5/libatmega32u4.a(eeupd_word.o)
                              .build/obj_redox_rev1_base_ad_rev3/quantum/eeconfig.o (eeprom_update_word)
/usr/lib/gcc/avr/5.4.0/../../../avr/lib/avr5/libatmega32u4.a(eerd_block.o)
                              /usr/lib/gcc/avr/5.4.0/../../../avr/lib/avr5/libatmega32u4.a(eerd_dword.o) (eeprom_read_blraw)

Allocating common symbols
Common symbol       size              file

rgblight_config     0x8               .build/obj_redox_rev1_base_ad_rev3/quantum/rgblight/rgblight.o
unicode_saved_led_state
                    0x1               .build/obj_redox_rev1_base_ad_rev3/quantum/unicode/unicode.o
USB_IsInitialized   0x1               .build/obj_redox_rev1_base_ad_rev3/lib/lufa/LUFA/Drivers/USB/Core/USBTask.o
keymap_config       0x2               .build/obj_redox_rev1_base_ad_rev3/quantum/bootmagic/magic.o
thatHand            0x1               .build/obj_redox_rev1_base_ad_rev3/quantum/matrix_common.o
unicode_config      0x1               .build/obj_redox_rev1_base_ad_rev3/quantum/unicode/unicode.o
sync_timer_ms       0x4               .build/obj_redox_rev1_base_ad_rev3/quantum/sync_timer.o
USB_DeviceState     0x1               .build/obj_redox_rev1_base_ad_rev3/lib/lufa/LUFA/Drivers/USB/Core/USBTask.o
unicode_saved_mods  0x1               .build/obj_redox_rev1_base_ad_rev3/quantum/unicode/unicode.o
USB_Device_ConfigurationNumber
                    0x1               .build/obj_redox_rev1_base_ad_rev3/lib/lufa/LUFA/Drivers/USB/Core/DeviceStandardReq.o
led                 0x2a              .build/obj_redox_rev1_base_ad_rev3/quantum/rgblight/rgblight.o
raw_matrix          0xa               .build/obj_redox_rev1_base_ad_rev3/quantum/matrix_common.o
USB_Device_CurrentlySelfPowered
                    0x1               .build/obj_redox_rev1_base_ad_rev3/lib/lufa/LUFA/Drivers/USB/Core/DeviceStandardReq.o
matrix              0xa               .build/obj_redox_rev1_base_ad_rev3/quantum/matrix_common.o
USB_ControlRequest  0x8               .build/obj_redox_rev1_base_ad_rev3/lib/lufa/LUFA/Drivers/USB/Core/USBTask.o
tp_buttons          0x2               .build/obj_redox_rev1_base_ad_rev3/quantum/action.o
USB_Device_RemoteWakeupEnabled
                    0x1               .build/obj_redox_rev1_base_ad_rev3/lib/lufa/LUFA/Drivers/USB/Core/DeviceStandardReq.o
thisHand            0x1               .build/obj_redox_rev1_base_ad_rev3/quantum/matrix_common.o
timer_count         0x4               .build/obj_redox_rev1_base_ad_rev3/platforms/avr/timer.o

Discarded input sections

 .data          0x0000000000000000        0x0 /usr/lib/gcc/avr/5.4.0/../../../avr/lib/avr5/crtatmega32u4.o
 .bss           0x0000000000000000        0x0 /usr/lib/gcc/avr/5.4.0/../../../avr/lib/avr5/crtatmega32u4.o
 .text          0x0000000000000000        0x0 .build/obj_redox_rev1_base_ad_rev3/.build/obj_redox_rev1_base_ad_rev3/src/default_keyboard.o
 .data          0x0000000000000000        0x0 .build/obj_redox_rev1_base_ad_rev3/.build/obj_redox_rev1_base_ad_rev3/src/default_keyboard.o
 .bss           0x0000000000000000        0x0 .build/obj_redox_rev1_base_ad_rev3/.build/obj_redox_rev1_base_ad_rev3/src/default_keyboard.o
 .debug_info    0x0000000000000000       0x72 .build/obj_redox_rev1_base_ad_rev3/.build/obj_redox_rev1_base_ad_rev3/src/default_keyboard.o
 .debug_abbrev  0x0000000000000000       0x26 .build/obj_redox_rev1_base_ad_rev3/.build/obj_redox_rev1_base_ad_rev3/src/default_keyboard.o
 .debug_aranges
                0x0000000000000000       0x18 .build/obj_redox_rev1_base_ad_rev3/.build/obj_redox_rev1_base_ad_rev3/src/default_keyboard.o
 .debug_line    0x0000000000000000       0x1a .build/obj_redox_rev1_base_ad_rev3/.build/obj_redox_rev1_base_ad_rev3/src/default_keyboard.o
 .debug_str     0x0000000000000000      0x200 .build/obj_redox_rev1_base_ad_rev3/.build/obj_redox_rev1_base_ad_rev3/src/default_keyboard.o
 .comment       0x0000000000000000       0x12 .build/obj_redox_rev1_base_ad_rev3/.build/obj_redox_rev1_base_ad_rev3/src/default_keyboard.o
 .text          0x0000000000000000        0x0 .build/obj_redox_rev1_base_ad_rev3/quantum/keymap_introspection.o
 .data          0x0000000000000000        0x0 .build/obj_redox_rev1_base_ad_rev3/quantum/keymap_introspection.o
 .bss           0x0000000000000000        0x0 .build/obj_redox_rev1_base_ad_rev3/quantum/keymap_introspection.o
 .text.keymap_layer_count_raw
                0x0000000000000000        0x4 .build/obj_redox_rev1_base_ad_rev3/quantum/keymap_introspection.o
 .text.keymap_layer_count
                0x0000000000000000        0x4 .build/obj_redox_rev1_base_ad_rev3/quantum/keymap_introspection.o
 .text          0x0000000000000000        0x0 .build/obj_redox_rev1_base_ad_rev3/quantum/quantum.o
 .data          0x0000000000000000        0x0 .build/obj_redox_rev1_base_ad_rev3/quantum/quantum.o
 .bss           0x0000000000000000        0x0 .build/obj_redox_rev1_base_ad_rev3/quantum/quantum.o
 .text.set_single_persistent_default_layer
                0x0000000000000000       0x24 .build/obj_redox_rev1_base_ad_rev3/quantum/quantum.o
 .text.get_numeric_str
                0x0000000000000000       0xb4 .build/obj_redox_rev1_base_ad_rev3/quantum/quantum.o
 .text.get_u8_str
                0x0000000000000000       0x3a .build/obj_redox_rev1_base_ad_rev3/quantum/quantum.o
 .text.get_u16_str
                0x0000000000000000       0x42 .build/obj_redox_rev1_base_ad_rev3/quantum/quantum.o
 .bss.buf.5389  0x0000000000000000        0x6 .build/obj_redox_rev1_base_ad_rev3/quantum/quantum.o
 .bss.last_pad.5391
                0x0000000000000000        0x1 .build/obj_redox_rev1_base_ad_rev3/quantum/quantum.o
 .data.last_num.5390
                0x0000000000000000        0x2 .build/obj_redox_rev1_base_ad_rev3/quantum/quantum.o
 .bss.buf.5382  0x0000000000000000        0x4 .build/obj_redox_rev1_base_ad_rev3/quantum/quantum.o
 .bss.last_pad.5384
                0x0000000000000000        0x1 .build/obj_redox_rev1_base_ad_rev3/quantum/quantum.o
 .data.last_num.5383
                0x0000000000000000        0x1 .build/obj_redox_rev1_base_ad_rev3/quantum/quantum.o
 .text          0x0000000000000000        0x0 .build/obj_redox_rev1_base_ad_rev3/quantum/bitwise.o
 .data          0x0000000000000000        0x0 .build/obj_redox_rev1_base_ad_rev3/quantum/bitwise.o
 .bss           0x0000000000000000        0x0 .build/obj_redox_rev1_base_ad_rev3/quantum/bitwise.o
 .text.bitpop   0x0000000000000000       0x14 .build/obj_redox_rev1_base_ad_rev3/quantum/bitwise.o
 .text.bitpop16
                0x0000000000000000       0x18 .build/obj_redox_rev1_base_ad_rev3/quantum/bitwise.o
 .text.bitpop32
                0x0000000000000000       0x3a .build/obj_redox_rev1_base_ad_rev3/quantum/bitwise.o
 .text.biton    0x0000000000000000       0x28 .build/obj_redox_rev1_base_ad_rev3/quantum/bitwise.o
 .text.biton16  0x0000000000000000       0x4c .build/obj_redox_rev1_base_ad_rev3/quantum/bitwise.o
 .text.biton32  0x0000000000000000       0xa0 .build/obj_redox_rev1_base_ad_rev3/quantum/bitwise.o
 .text.bitrev   0x0000000000000000       0x24 .build/obj_redox_rev1_base_ad_rev3/quantum/bitwise.o
 .text.bitrev16
                0x0000000000000000       0x26 .build/obj_redox_rev1_base_ad_rev3/quantum/bitwise.o
 .text.bitrev32
                0x0000000000000000       0x4a .build/obj_redox_rev1_base_ad_rev3/quantum/bitwise.o
 .debug_info    0x0000000000000000      0x2a2 .build/obj_redox_rev1_base_ad_rev3/quantum/bitwise.o
 .debug_abbrev  0x0000000000000000       0xcb .build/obj_redox_rev1_base_ad_rev3/quantum/bitwise.o
 .debug_loc     0x0000000000000000      0x4a3 .build/obj_redox_rev1_base_ad_rev3/quantum/bitwise.o
 .debug_aranges
                0x0000000000000000       0x60 .build/obj_redox_rev1_base_ad_rev3/quantum/bitwise.o
 .debug_ranges  0x0000000000000000       0x50 .build/obj_redox_rev1_base_ad_rev3/quantum/bitwise.o
 .debug_line    0x0000000000000000      0x259 .build/obj_redox_rev1_base_ad_rev3/quantum/bitwise.o
 .debug_str     0x0000000000000000      0x21f .build/obj_redox_rev1_base_ad_rev3/quantum/bitwise.o
 .comment       0x0000000000000000       0x12 .build/obj_redox_rev1_base_ad_rev3/quantum/bitwise.o
 .debug_frame   0x0000000000000000       0xec .build/obj_redox_rev1_base_ad_rev3/quantum/bitwise.o
 .text          0x0000000000000000        0x0 .build/obj_redox_rev1_base_ad_rev3/quantum/led.o
 .data          0x0000000000000000        0x0 .build/obj_redox_rev1_base_ad_rev3/quantum/led.o
 .bss           0x0000000000000000        0x0 .build/obj_redox_rev1_base_ad_rev3/quantum/led.o
 .text.last_led_activity_time
                0x0000000000000000       0x12 .build/obj_redox_rev1_base_ad_rev3/quantum/led.o
 .text.last_led_activity_elapsed
                0x0000000000000000       0x16 .build/obj_redox_rev1_base_ad_rev3/quantum/led.o
 .text          0x0000000000000000        0x0 .build/obj_redox_rev1_base_ad_rev3/quantum/action.o
 .data          0x0000000000000000        0x0 .build/obj_redox_rev1_base_ad_rev3/quantum/action.o
 .bss           0x0000000000000000        0x0 .build/obj_redox_rev1_base_ad_rev3/quantum/action.o
 .text.process_record_quantum
                0x0000000000000000        0x4 .build/obj_redox_rev1_base_ad_rev3/quantum/action.o
 .text.post_process_record_quantum
                0x0000000000000000        0x2 .build/obj_redox_rev1_base_ad_rev3/quantum/action.o
 .text.process_record_nocache
                0x0000000000000000       0x10 .build/obj_redox_rev1_base_ad_rev3/quantum/action.o
 .text.debug_action
                0x0000000000000000        0x2 .build/obj_redox_rev1_base_ad_rev3/quantum/action.o
 COMMON         0x0000000000000000        0x2 .build/obj_redox_rev1_base_ad_rev3/quantum/action.o
 .text          0x0000000000000000        0x0 .build/obj_redox_rev1_base_ad_rev3/quantum/action_layer.o
 .data          0x0000000000000000        0x0 .build/obj_redox_rev1_base_ad_rev3/quantum/action_layer.o
 .bss           0x0000000000000000        0x0 .build/obj_redox_rev1_base_ad_rev3/quantum/action_layer.o
 .text.layer_state_cmp
                0x0000000000000000       0x28 .build/obj_redox_rev1_base_ad_rev3/quantum/action_layer.o
 .text.layer_state_is
                0x0000000000000000       0x10 .build/obj_redox_rev1_base_ad_rev3/quantum/action_layer.o
 .text.update_tri_layer_state
                0x0000000000000000       0x4a .build/obj_redox_rev1_base_ad_rev3/quantum/action_layer.o
 .text.update_tri_layer
                0x0000000000000000       0x18 .build/obj_redox_rev1_base_ad_rev3/quantum/action_layer.o
 .text          0x0000000000000000        0x0 .build/obj_redox_rev1_base_ad_rev3/quantum/action_tapping.o
 .data          0x0000000000000000        0x0 .build/obj_redox_rev1_base_ad_rev3/quantum/action_tapping.o
 .bss           0x0000000000000000        0x0 .build/obj_redox_rev1_base_ad_rev3/quantum/action_tapping.o
 .text          0x0000000000000000        0x0 .build/obj_redox_rev1_base_ad_rev3/quantum/action_util.o
 .data          0x0000000000000000        0x0 .build/obj_redox_rev1_base_ad_rev3/quantum/action_util.o
 .bss           0x0000000000000000        0x0 .build/obj_redox_rev1_base_ad_rev3/quantum/action_util.o
 .text.add_key  0x0000000000000000        0x6 .build/obj_redox_rev1_base_ad_rev3/quantum/action_util.o
 .text.del_key  0x0000000000000000        0x6 .build/obj_redox_rev1_base_ad_rev3/quantum/action_util.o
 .text.clear_keys
                0x0000000000000000        0x6 .build/obj_redox_rev1_base_ad_rev3/quantum/action_util.o
 .text.get_oneshot_locked_mods
                0x0000000000000000        0x6 .build/obj_redox_rev1_base_ad_rev3/quantum/action_util.o
 .text.has_oneshot_mods_timed_out
                0x0000000000000000        0x4 .build/obj_redox_rev1_base_ad_rev3/quantum/action_util.o
 .text.is_oneshot_enabled
                0x0000000000000000        0xc .build/obj_redox_rev1_base_ad_rev3/quantum/action_util.o
 .text.set_weak_mods
                0x0000000000000000        0x6 .build/obj_redox_rev1_base_ad_rev3/quantum/action_util.o
 .text.set_oneshot_mods
                0x0000000000000000       0x1a .build/obj_redox_rev1_base_ad_rev3/quantum/action_util.o
 .text.add_oneshot_locked_mods
                0x0000000000000000       0x18 .build/obj_redox_rev1_base_ad_rev3/quantum/action_util.o
 .text.set_oneshot_locked_mods
                0x0000000000000000       0x12 .build/obj_redox_rev1_base_ad_rev3/quantum/action_util.o
 .text.clear_oneshot_locked_mods
                0x0000000000000000       0x14 .build/obj_redox_rev1_base_ad_rev3/quantum/action_util.o
 .text.has_anymod
                0x0000000000000000        0xa .build/obj_redox_rev1_base_ad_rev3/quantum/action_util.o
 .text          0x0000000000000000        0x0 .build/obj_redox_rev1_base_ad_rev3/quantum/eeconfig.o
 .data          0x0000000000000000        0x0 .build/obj_redox_rev1_base_ad_rev3/quantum/eeconfig.o
 .bss           0x0000000000000000        0x0 .build/obj_redox_rev1_base_ad_rev3/quantum/eeconfig.o
 .text.eeconfig_enable
                0x0000000000000000        0xe .build/obj_redox_rev1_base_ad_rev3/quantum/eeconfig.o
 .text.eeconfig_is_disabled
                0x0000000000000000       0x14 .build/obj_redox_rev1_base_ad_rev3/quantum/eeconfig.o
 .text.eeconfig_update_debug
                0x0000000000000000        0xc .build/obj_redox_rev1_base_ad_rev3/quantum/eeconfig.o
 .text.eeconfig_update_default_layer
                0x0000000000000000        0xc .build/obj_redox_rev1_base_ad_rev3/quantum/eeconfig.o
 .text.eeconfig_read_audio
                0x0000000000000000        0xa .build/obj_redox_rev1_base_ad_rev3/quantum/eeconfig.o
 .text.eeconfig_update_audio
                0x0000000000000000        0xc .build/obj_redox_rev1_base_ad_rev3/quantum/eeconfig.o
 .text.eeconfig_read_kb
                0x0000000000000000        0xa .build/obj_redox_rev1_base_ad_rev3/quantum/eeconfig.o
 .text.eeconfig_read_user
                0x0000000000000000        0xa .build/obj_redox_rev1_base_ad_rev3/quantum/eeconfig.o
 .text.eeconfig_read_haptic
                0x0000000000000000        0xa .build/obj_redox_rev1_base_ad_rev3/quantum/eeconfig.o
 .text.eeconfig_update_haptic
                0x0000000000000000        0xe .build/obj_redox_rev1_base_ad_rev3/quantum/eeconfig.o
 .text.eeconfig_read_handedness
                0x0000000000000000       0x14 .build/obj_redox_rev1_base_ad_rev3/quantum/eeconfig.o
 .text          0x0000000000000000        0x0 .build/obj_redox_rev1_base_ad_rev3/quantum/keyboard.o
 .data          0x0000000000000000        0x0 .build/obj_redox_rev1_base_ad_rev3/quantum/keyboard.o
 .bss           0x0000000000000000        0x0 .build/obj_redox_rev1_base_ad_rev3/quantum/keyboard.o
 .text.last_input_activity_time
                0x0000000000000000       0x12 .build/obj_redox_rev1_base_ad_rev3/quantum/keyboard.o
 .text.last_input_activity_elapsed
                0x0000000000000000       0x16 .build/obj_redox_rev1_base_ad_rev3/quantum/keyboard.o
 .text.last_matrix_activity_time
                0x0000000000000000       0x12 .build/obj_redox_rev1_base_ad_rev3/quantum/keyboard.o
 .text.last_matrix_activity_elapsed
                0x0000000000000000       0x16 .build/obj_redox_rev1_base_ad_rev3/quantum/keyboard.o
 .text.last_encoder_activity_time
                0x0000000000000000       0x12 .build/obj_redox_rev1_base_ad_rev3/quantum/keyboard.o
 .text.last_encoder_activity_elapsed
                0x0000000000000000       0x16 .build/obj_redox_rev1_base_ad_rev3/quantum/keyboard.o
 .text.last_encoder_activity_trigger
                0x0000000000000000       0x26 .build/obj_redox_rev1_base_ad_rev3/quantum/keyboard.o
 .text.last_pointing_device_activity_time
                0x0000000000000000       0x12 .build/obj_redox_rev1_base_ad_rev3/quantum/keyboard.o
 .text.last_pointing_device_activity_elapsed
                0x0000000000000000       0x16 .build/obj_redox_rev1_base_ad_rev3/quantum/keyboard.o
 .text.last_pointing_device_activity_trigger
                0x0000000000000000       0x26 .build/obj_redox_rev1_base_ad_rev3/quantum/keyboard.o
 .text.set_activity_timestamps
                0x0000000000000000       0x86 .build/obj_redox_rev1_base_ad_rev3/quantum/keyboard.o
 .text.switch_events
                0x0000000000000000        0x2 .build/obj_redox_rev1_base_ad_rev3/quantum/keyboard.o
 .bss.last_pointing_device_modification_time
                0x0000000000000000        0x4 .build/obj_redox_rev1_base_ad_rev3/quantum/keyboard.o
 .bss.last_encoder_modification_time
                0x0000000000000000        0x4 .build/obj_redox_rev1_base_ad_rev3/quantum/keyboard.o
 .text          0x0000000000000000        0x0 .build/obj_redox_rev1_base_ad_rev3/quantum/keymap_common.o
 .data          0x0000000000000000        0x0 .build/obj_redox_rev1_base_ad_rev3/quantum/keymap_common.o
 .bss           0x0000000000000000        0x0 .build/obj_redox_rev1_base_ad_rev3/quantum/keymap_common.o
 .text          0x0000000000000000        0x0 .build/obj_redox_rev1_base_ad_rev3/quantum/keycode_config.o
 .data          0x0000000000000000        0x0 .build/obj_redox_rev1_base_ad_rev3/quantum/keycode_config.o
 .bss           0x0000000000000000        0x0 .build/obj_redox_rev1_base_ad_rev3/quantum/keycode_config.o
 .text          0x0000000000000000        0x0 .build/obj_redox_rev1_base_ad_rev3/quantum/sync_timer.o
 .data          0x0000000000000000        0x0 .build/obj_redox_rev1_base_ad_rev3/quantum/sync_timer.o
 .bss           0x0000000000000000        0x0 .build/obj_redox_rev1_base_ad_rev3/quantum/sync_timer.o
 .text.sync_timer_read
                0x0000000000000000       0x16 .build/obj_redox_rev1_base_ad_rev3/quantum/sync_timer.o
 .text.sync_timer_elapsed
                0x0000000000000000       0x24 .build/obj_redox_rev1_base_ad_rev3/quantum/sync_timer.o
 .text.sync_timer_elapsed32
                0x0000000000000000       0x34 .build/obj_redox_rev1_base_ad_rev3/quantum/sync_timer.o
 .text          0x0000000000000000        0x0 .build/obj_redox_rev1_base_ad_rev3/quantum/logging/debug.o
 .data          0x0000000000000000        0x0 .build/obj_redox_rev1_base_ad_rev3/quantum/logging/debug.o
 .bss           0x0000000000000000        0x0 .build/obj_redox_rev1_base_ad_rev3/quantum/logging/debug.o
 .text          0x0000000000000000        0x0 .build/obj_redox_rev1_base_ad_rev3/quantum/logging/sendchar.o
 .data          0x0000000000000000        0x0 .build/obj_redox_rev1_base_ad_rev3/quantum/logging/sendchar.o
 .bss           0x0000000000000000        0x0 .build/obj_redox_rev1_base_ad_rev3/quantum/logging/sendchar.o
 .text          0x0000000000000000        0x0 .build/obj_redox_rev1_base_ad_rev3/quantum/bootmagic/magic.o
 .data          0x0000000000000000        0x0 .build/obj_redox_rev1_base_ad_rev3/quantum/bootmagic/magic.o
 .bss           0x0000000000000000        0x0 .build/obj_redox_rev1_base_ad_rev3/quantum/bootmagic/magic.o
 .text          0x0000000000000000        0x0 .build/obj_redox_rev1_base_ad_rev3/quantum/matrix_common.o
 .data          0x0000000000000000        0x0 .build/obj_redox_rev1_base_ad_rev3/quantum/matrix_common.o
 .bss           0x0000000000000000        0x0 .build/obj_redox_rev1_base_ad_rev3/quantum/matrix_common.o
 .text.matrix_rows
                0x0000000000000000        0x4 .build/obj_redox_rev1_base_ad_rev3/quantum/matrix_common.o
 .text.matrix_cols
                0x0000000000000000        0x4 .build/obj_redox_rev1_base_ad_rev3/quantum/matrix_common.o
 .text.matrix_is_on
                0x0000000000000000       0x2a .build/obj_redox_rev1_base_ad_rev3/quantum/matrix_common.o
 .text.matrix_scan_custom
                0x0000000000000000        0x4 .build/obj_redox_rev1_base_ad_rev3/quantum/matrix_common.o
 .text.matrix_init_custom
                0x0000000000000000        0x6 .build/obj_redox_rev1_base_ad_rev3/quantum/matrix_common.o
 .text.matrix_init
                0x0000000000000000       0x3e .build/obj_redox_rev1_base_ad_rev3/quantum/matrix_common.o
 .text.matrix_scan
                0x0000000000000000       0x2c .build/obj_redox_rev1_base_ad_rev3/quantum/matrix_common.o
 .text.peek_matrix
                0x0000000000000000       0x24 .build/obj_redox_rev1_base_ad_rev3/quantum/matrix_common.o
 .text          0x0000000000000000        0x0 .build/obj_redox_rev1_base_ad_rev3/quantum/matrix.o
 .data          0x0000000000000000        0x0 .build/obj_redox_rev1_base_ad_rev3/quantum/matrix.o
 .bss           0x0000000000000000        0x0 .build/obj_redox_rev1_base_ad_rev3/quantum/matrix.o
 .text.transport_master_if_connected
                0x0000000000000000        0x8 .build/obj_redox_rev1_base_ad_rev3/quantum/matrix.o
 .text          0x0000000000000000        0x0 .build/obj_redox_rev1_base_ad_rev3/quantum/debounce/sym_defer_g.o
 .data          0x0000000000000000        0x0 .build/obj_redox_rev1_base_ad_rev3/quantum/debounce/sym_defer_g.o
 .bss           0x0000000000000000        0x0 .build/obj_redox_rev1_base_ad_rev3/quantum/debounce/sym_defer_g.o
 .text.debounce_free
                0x0000000000000000        0x2 .build/obj_redox_rev1_base_ad_rev3/quantum/debounce/sym_defer_g.o
 .text          0x0000000000000000        0x0 .build/obj_redox_rev1_base_ad_rev3/quantum/split_common/split_util.o
 .data          0x0000000000000000        0x0 .build/obj_redox_rev1_base_ad_rev3/quantum/split_common/split_util.o
 .bss           0x0000000000000000        0x0 .build/obj_redox_rev1_base_ad_rev3/quantum/split_common/split_util.o
 .text          0x0000000000000000        0x0 .build/obj_redox_rev1_base_ad_rev3/quantum/split_common/transport.o
 .data          0x0000000000000000        0x0 .build/obj_redox_rev1_base_ad_rev3/quantum/split_common/transport.o
 .bss           0x0000000000000000        0x0 .build/obj_redox_rev1_base_ad_rev3/quantum/split_common/transport.o
 .text          0x0000000000000000        0x0 .build/obj_redox_rev1_base_ad_rev3/quantum/split_common/transactions.o
 .data          0x0000000000000000        0x0 .build/obj_redox_rev1_base_ad_rev3/quantum/split_common/transactions.o
 .bss           0x0000000000000000        0x0 .build/obj_redox_rev1_base_ad_rev3/quantum/split_common/transactions.o
 .text          0x0000000000000000        0x0 .build/obj_redox_rev1_base_ad_rev3/quantum/main.o
 .data          0x0000000000000000        0x0 .build/obj_redox_rev1_base_ad_rev3/quantum/main.o
 .bss           0x0000000000000000        0x0 .build/obj_redox_rev1_base_ad_rev3/quantum/main.o
 .text          0x0000000000000000      0x15c .build/obj_redox_rev1_base_ad_rev3/platforms/avr/xprintf.o
 .data          0x0000000000000000        0x0 .build/obj_redox_rev1_base_ad_rev3/platforms/avr/xprintf.o
 .text          0x0000000000000000        0x0 .build/obj_redox_rev1_base_ad_rev3/platforms/avr/printf.o
 .data          0x0000000000000000        0x0 .build/obj_redox_rev1_base_ad_rev3/platforms/avr/printf.o
 .bss           0x0000000000000000        0x0 .build/obj_redox_rev1_base_ad_rev3/platforms/avr/printf.o
 .text          0x0000000000000000        0x0 .build/obj_redox_rev1_base_ad_rev3/quantum/color.o
 .data          0x0000000000000000        0x0 .build/obj_redox_rev1_base_ad_rev3/quantum/color.o
 .bss           0x0000000000000000        0x0 .build/obj_redox_rev1_base_ad_rev3/quantum/color.o
 .text.hsv_to_rgb_nocie
                0x0000000000000000        0x8 .build/obj_redox_rev1_base_ad_rev3/quantum/color.o
 .text          0x0000000000000000        0x0 .build/obj_redox_rev1_base_ad_rev3/quantum/rgblight/rgblight.o
 .data          0x0000000000000000        0x0 .build/obj_redox_rev1_base_ad_rev3/quantum/rgblight/rgblight.o
 .bss           0x0000000000000000        0x0 .build/obj_redox_rev1_base_ad_rev3/quantum/rgblight/rgblight.o
 .text.rgblight_set_clipping_range
                0x0000000000000000        0xa .build/obj_redox_rev1_base_ad_rev3/quantum/rgblight/rgblight.o
 .text.rgblight_set_effect_range
                0x0000000000000000       0x22 .build/obj_redox_rev1_base_ad_rev3/quantum/rgblight/rgblight.o
 .text.sethsv   0x0000000000000000        0x6 .build/obj_redox_rev1_base_ad_rev3/quantum/rgblight/rgblight.o
 .text.setrgb   0x0000000000000000        0xa .build/obj_redox_rev1_base_ad_rev3/quantum/rgblight/rgblight.o
 .text.eeconfig_update_rgblight_current
                0x0000000000000000       0x1a .build/obj_redox_rev1_base_ad_rev3/quantum/rgblight/rgblight.o
 .text.eeconfig_debug_rgblight
                0x0000000000000000        0x2 .build/obj_redox_rev1_base_ad_rev3/quantum/rgblight/rgblight.o
 .text.rgblight_read_qword
                0x0000000000000000       0x16 .build/obj_redox_rev1_base_ad_rev3/quantum/rgblight/rgblight.o
 .text.rgblight_get_mode
                0x0000000000000000       0x12 .build/obj_redox_rev1_base_ad_rev3/quantum/rgblight/rgblight.o
 .text.rgblight_is_enabled
                0x0000000000000000        0x8 .build/obj_redox_rev1_base_ad_rev3/quantum/rgblight/rgblight.o
 .text.rgblight_increase_speed_noeeprom
                0x0000000000000000        0x8 .build/obj_redox_rev1_base_ad_rev3/quantum/rgblight/rgblight.o
 .text.rgblight_decrease_speed_noeeprom
                0x0000000000000000        0x8 .build/obj_redox_rev1_base_ad_rev3/quantum/rgblight/rgblight.o
 .text.rgblight_get_speed
                0x0000000000000000        0x6 .build/obj_redox_rev1_base_ad_rev3/quantum/rgblight/rgblight.o
 .text.rgblight_set_speed_eeprom_helper
                0x0000000000000000       0x2c .build/obj_redox_rev1_base_ad_rev3/quantum/rgblight/rgblight.o
 .text.rgblight_set_speed
                0x0000000000000000        0x8 .build/obj_redox_rev1_base_ad_rev3/quantum/rgblight/rgblight.o
 .text.rgblight_set_speed_noeeprom
                0x0000000000000000        0x8 .build/obj_redox_rev1_base_ad_rev3/quantum/rgblight/rgblight.o
 .text.rgblight_get_hue
                0x0000000000000000        0x6 .build/obj_redox_rev1_base_ad_rev3/quantum/rgblight/rgblight.o
 .text.rgblight_get_sat
                0x0000000000000000        0x6 .build/obj_redox_rev1_base_ad_rev3/quantum/rgblight/rgblight.o
 .text.rgblight_get_val
                0x0000000000000000        0x6 .build/obj_redox_rev1_base_ad_rev3/quantum/rgblight/rgblight.o
 .text.rgblight_get_hsv
                0x0000000000000000        0xc .build/obj_redox_rev1_base_ad_rev3/quantum/rgblight/rgblight.o
 .text.rgblight_sethsv_noeeprom_old
                0x0000000000000000       0x30 .build/obj_redox_rev1_base_ad_rev3/quantum/rgblight/rgblight.o
 .text.rgblight_increase_hue_noeeprom
                0x0000000000000000        0x8 .build/obj_redox_rev1_base_ad_rev3/quantum/rgblight/rgblight.o
 .text.rgblight_decrease_hue_noeeprom
                0x0000000000000000        0x8 .build/obj_redox_rev1_base_ad_rev3/quantum/rgblight/rgblight.o
 .text.rgblight_increase_sat_noeeprom
                0x0000000000000000        0x8 .build/obj_redox_rev1_base_ad_rev3/quantum/rgblight/rgblight.o
 .text.rgblight_decrease_sat_noeeprom
                0x0000000000000000        0x8 .build/obj_redox_rev1_base_ad_rev3/quantum/rgblight/rgblight.o
 .text.rgblight_increase_val_noeeprom
                0x0000000000000000        0x8 .build/obj_redox_rev1_base_ad_rev3/quantum/rgblight/rgblight.o
 .text.rgblight_decrease_val_noeeprom
                0x0000000000000000        0x8 .build/obj_redox_rev1_base_ad_rev3/quantum/rgblight/rgblight.o
 .text.rgblight_sethsv
                0x0000000000000000        0x8 .build/obj_redox_rev1_base_ad_rev3/quantum/rgblight/rgblight.o
 .text.rgblight_step_noeeprom
                0x0000000000000000        0x8 .build/obj_redox_rev1_base_ad_rev3/quantum/rgblight/rgblight.o
 .text.rgblight_step_reverse_noeeprom
                0x0000000000000000        0x8 .build/obj_redox_rev1_base_ad_rev3/quantum/rgblight/rgblight.o
 .text.rgblight_increase
                0x0000000000000000       0x14 .build/obj_redox_rev1_base_ad_rev3/quantum/rgblight/rgblight.o
 .text.rgblight_decrease
                0x0000000000000000       0x1e .build/obj_redox_rev1_base_ad_rev3/quantum/rgblight/rgblight.o
 .text.rgblight_reload_from_eeprom
                0x0000000000000000       0x44 .build/obj_redox_rev1_base_ad_rev3/quantum/rgblight/rgblight.o
 .text.rgblight_enable_noeeprom
                0x0000000000000000       0x14 .build/obj_redox_rev1_base_ad_rev3/quantum/rgblight/rgblight.o
 .text.rgblight_toggle_noeeprom
                0x0000000000000000       0x14 .build/obj_redox_rev1_base_ad_rev3/quantum/rgblight/rgblight.o
 .text.rgblight_enabled_noeeprom
                0x0000000000000000       0x10 .build/obj_redox_rev1_base_ad_rev3/quantum/rgblight/rgblight.o
 .text.rgblight_update_qword
                0x0000000000000000       0x40 .build/obj_redox_rev1_base_ad_rev3/quantum/rgblight/rgblight.o
 .text.rgblight_setrgb_at
                0x0000000000000000       0x28 .build/obj_redox_rev1_base_ad_rev3/quantum/rgblight/rgblight.o
 .text.rgblight_sethsv_at
                0x0000000000000000       0x34 .build/obj_redox_rev1_base_ad_rev3/quantum/rgblight/rgblight.o
 .text.rgblight_setrgb_range
                0x0000000000000000       0x38 .build/obj_redox_rev1_base_ad_rev3/quantum/rgblight/rgblight.o
 .text.rgblight_sethsv_range
                0x0000000000000000       0x34 .build/obj_redox_rev1_base_ad_rev3/quantum/rgblight/rgblight.o
 .text.rgblight_get_change_flags
                0x0000000000000000        0x6 .build/obj_redox_rev1_base_ad_rev3/quantum/rgblight/rgblight.o
 .text          0x0000000000000000        0x0 .build/obj_redox_rev1_base_ad_rev3/quantum/process_keycode/process_rgb.o
 .data          0x0000000000000000        0x0 .build/obj_redox_rev1_base_ad_rev3/quantum/process_keycode/process_rgb.o
 .bss           0x0000000000000000        0x0 .build/obj_redox_rev1_base_ad_rev3/quantum/process_keycode/process_rgb.o
 .text          0x0000000000000000        0x0 .build/obj_redox_rev1_base_ad_rev3/quantum/led_tables.o
 .data          0x0000000000000000        0x0 .build/obj_redox_rev1_base_ad_rev3/quantum/led_tables.o
 .bss           0x0000000000000000        0x0 .build/obj_redox_rev1_base_ad_rev3/quantum/led_tables.o
 .text          0x0000000000000000        0x0 .build/obj_redox_rev1_base_ad_rev3/quantum/process_keycode/process_unicode.o
 .data          0x0000000000000000        0x0 .build/obj_redox_rev1_base_ad_rev3/quantum/process_keycode/process_unicode.o
 .bss           0x0000000000000000        0x0 .build/obj_redox_rev1_base_ad_rev3/quantum/process_keycode/process_unicode.o
 .text          0x0000000000000000        0x0 .build/obj_redox_rev1_base_ad_rev3/quantum/process_keycode/process_unicode_common.o
 .data          0x0000000000000000        0x0 .build/obj_redox_rev1_base_ad_rev3/quantum/process_keycode/process_unicode_common.o
 .bss           0x0000000000000000        0x0 .build/obj_redox_rev1_base_ad_rev3/quantum/process_keycode/process_unicode_common.o
 .text          0x0000000000000000        0x0 .build/obj_redox_rev1_base_ad_rev3/quantum/unicode/unicode.o
 .data          0x0000000000000000        0x0 .build/obj_redox_rev1_base_ad_rev3/quantum/unicode/unicode.o
 .bss           0x0000000000000000        0x0 .build/obj_redox_rev1_base_ad_rev3/quantum/unicode/unicode.o
 .text.get_unicode_input_mode
                0x0000000000000000        0x6 .build/obj_redox_rev1_base_ad_rev3/quantum/unicode/unicode.o
 .text.unicode_input_cancel
                0x0000000000000000       0x64 .build/obj_redox_rev1_base_ad_rev3/quantum/unicode/unicode.o
 .text.register_hex
                0x0000000000000000       0x36 .build/obj_redox_rev1_base_ad_rev3/quantum/unicode/unicode.o
 .text.send_unicode_string
                0x0000000000000000       0x4a .build/obj_redox_rev1_base_ad_rev3/quantum/unicode/unicode.o
 .text          0x0000000000000000        0x0 .build/obj_redox_rev1_base_ad_rev3/quantum/unicode/utf8.o
 .data          0x0000000000000000        0x0 .build/obj_redox_rev1_base_ad_rev3/quantum/unicode/utf8.o
 .bss           0x0000000000000000        0x0 .build/obj_redox_rev1_base_ad_rev3/quantum/unicode/utf8.o
 .text.decode_utf8
                0x0000000000000000      0x16c .build/obj_redox_rev1_base_ad_rev3/quantum/unicode/utf8.o
 .debug_info    0x0000000000000000       0xd1 .build/obj_redox_rev1_base_ad_rev3/quantum/unicode/utf8.o
 .debug_abbrev  0x0000000000000000       0x92 .build/obj_redox_rev1_base_ad_rev3/quantum/unicode/utf8.o
 .debug_loc     0x0000000000000000      0x147 .build/obj_redox_rev1_base_ad_rev3/quantum/unicode/utf8.o
 .debug_aranges
                0x0000000000000000       0x20 .build/obj_redox_rev1_base_ad_rev3/quantum/unicode/utf8.o
 .debug_ranges  0x0000000000000000       0x10 .build/obj_redox_rev1_base_ad_rev3/quantum/unicode/utf8.o
 .debug_line    0x0000000000000000       0xd1 .build/obj_redox_rev1_base_ad_rev3/quantum/unicode/utf8.o
 .debug_str     0x0000000000000000      0x1e6 .build/obj_redox_rev1_base_ad_rev3/quantum/unicode/utf8.o
 .comment       0x0000000000000000       0x12 .build/obj_redox_rev1_base_ad_rev3/quantum/unicode/utf8.o
 .debug_frame   0x0000000000000000       0x30 .build/obj_redox_rev1_base_ad_rev3/quantum/unicode/utf8.o
 .text          0x0000000000000000        0x0 .build/obj_redox_rev1_base_ad_rev3/ws2812_bitbang.o
 .data          0x0000000000000000        0x0 .build/obj_redox_rev1_base_ad_rev3/ws2812_bitbang.o
 .bss           0x0000000000000000        0x0 .build/obj_redox_rev1_base_ad_rev3/ws2812_bitbang.o
 .text          0x0000000000000000        0x0 .build/obj_redox_rev1_base_ad_rev3/quantum/command.o
 .data          0x0000000000000000        0x0 .build/obj_redox_rev1_base_ad_rev3/quantum/command.o
 .bss           0x0000000000000000        0x0 .build/obj_redox_rev1_base_ad_rev3/quantum/command.o
 .text          0x0000000000000000        0x0 .build/obj_redox_rev1_base_ad_rev3/quantum/crc.o
 .data          0x0000000000000000        0x0 .build/obj_redox_rev1_base_ad_rev3/quantum/crc.o
 .bss           0x0000000000000000        0x0 .build/obj_redox_rev1_base_ad_rev3/quantum/crc.o
 .text          0x0000000000000000        0x0 .build/obj_redox_rev1_base_ad_rev3/quantum/process_keycode/process_grave_esc.o
 .data          0x0000000000000000        0x0 .build/obj_redox_rev1_base_ad_rev3/quantum/process_keycode/process_grave_esc.o
 .bss           0x0000000000000000        0x0 .build/obj_redox_rev1_base_ad_rev3/quantum/process_keycode/process_grave_esc.o
 .text          0x0000000000000000        0x0 .build/obj_redox_rev1_base_ad_rev3/quantum/process_keycode/process_magic.o
 .data          0x0000000000000000        0x0 .build/obj_redox_rev1_base_ad_rev3/quantum/process_keycode/process_magic.o
 .bss           0x0000000000000000        0x0 .build/obj_redox_rev1_base_ad_rev3/quantum/process_keycode/process_magic.o
 .text          0x0000000000000000        0x0 .build/obj_redox_rev1_base_ad_rev3/quantum/mousekey.o
 .data          0x0000000000000000        0x0 .build/obj_redox_rev1_base_ad_rev3/quantum/mousekey.o
 .bss           0x0000000000000000        0x0 .build/obj_redox_rev1_base_ad_rev3/quantum/mousekey.o
 .text.mousekey_get_report
                0x0000000000000000       0x36 .build/obj_redox_rev1_base_ad_rev3/quantum/mousekey.o
 .text          0x0000000000000000        0x0 .build/obj_redox_rev1_base_ad_rev3/quantum/send_string/send_string.o
 .data          0x0000000000000000        0x0 .build/obj_redox_rev1_base_ad_rev3/quantum/send_string/send_string.o
 .bss           0x0000000000000000        0x0 .build/obj_redox_rev1_base_ad_rev3/quantum/send_string/send_string.o
 .text.send_string_with_delay
                0x0000000000000000       0xce .build/obj_redox_rev1_base_ad_rev3/quantum/send_string/send_string.o
 .text.send_string
                0x0000000000000000        0x8 .build/obj_redox_rev1_base_ad_rev3/quantum/send_string/send_string.o
 .text.send_byte
                0x0000000000000000       0x18 .build/obj_redox_rev1_base_ad_rev3/quantum/send_string/send_string.o
 .text.send_word
                0x0000000000000000       0x14 .build/obj_redox_rev1_base_ad_rev3/quantum/send_string/send_string.o
 .text.send_dword
                0x0000000000000000       0x22 .build/obj_redox_rev1_base_ad_rev3/quantum/send_string/send_string.o
 .text.tap_random_base64
                0x0000000000000000       0x58 .build/obj_redox_rev1_base_ad_rev3/quantum/send_string/send_string.o
 .text.send_string_P
                0x0000000000000000        0x8 .build/obj_redox_rev1_base_ad_rev3/quantum/send_string/send_string.o
 .text          0x0000000000000000        0x0 .build/obj_redox_rev1_base_ad_rev3/quantum/process_keycode/process_space_cadet.o
 .data          0x0000000000000000        0x0 .build/obj_redox_rev1_base_ad_rev3/quantum/process_keycode/process_space_cadet.o
 .bss           0x0000000000000000        0x0 .build/obj_redox_rev1_base_ad_rev3/quantum/process_keycode/process_space_cadet.o
 .text          0x0000000000000000        0x0 .build/obj_redox_rev1_base_ad_rev3/quantum/process_keycode/process_tap_dance.o
 .data          0x0000000000000000        0x0 .build/obj_redox_rev1_base_ad_rev3/quantum/process_keycode/process_tap_dance.o
 .bss           0x0000000000000000        0x0 .build/obj_redox_rev1_base_ad_rev3/quantum/process_keycode/process_tap_dance.o
 .text.tap_dance_pair_on_each_tap
                0x0000000000000000       0x24 .build/obj_redox_rev1_base_ad_rev3/quantum/process_keycode/process_tap_dance.o
 .text.tap_dance_pair_finished
                0x0000000000000000        0xc .build/obj_redox_rev1_base_ad_rev3/quantum/process_keycode/process_tap_dance.o
 .text.tap_dance_pair_reset
                0x0000000000000000       0x20 .build/obj_redox_rev1_base_ad_rev3/quantum/process_keycode/process_tap_dance.o
 .text.tap_dance_dual_role_on_each_tap
                0x0000000000000000       0x22 .build/obj_redox_rev1_base_ad_rev3/quantum/process_keycode/process_tap_dance.o
 .text.tap_dance_dual_role_finished
                0x0000000000000000       0x28 .build/obj_redox_rev1_base_ad_rev3/quantum/process_keycode/process_tap_dance.o
 .text.tap_dance_dual_role_reset
                0x0000000000000000       0x14 .build/obj_redox_rev1_base_ad_rev3/quantum/process_keycode/process_tap_dance.o
 .text.reset_tap_dance
                0x0000000000000000        0xe .build/obj_redox_rev1_base_ad_rev3/quantum/process_keycode/process_tap_dance.o
 .text          0x0000000000000000        0x0 .build/obj_redox_rev1_base_ad_rev3/protocol/host.o
 .data          0x0000000000000000        0x0 .build/obj_redox_rev1_base_ad_rev3/protocol/host.o
 .bss           0x0000000000000000        0x0 .build/obj_redox_rev1_base_ad_rev3/protocol/host.o
 .text.host_get_driver
                0x0000000000000000        0xa .build/obj_redox_rev1_base_ad_rev3/protocol/host.o
 .text.set_split_host_keyboard_leds
                0x0000000000000000        0x6 .build/obj_redox_rev1_base_ad_rev3/protocol/host.o
 .text.host_nkro_send
                0x0000000000000000       0x1c .build/obj_redox_rev1_base_ad_rev3/protocol/host.o
 .text.send_joystick
                0x0000000000000000        0x2 .build/obj_redox_rev1_base_ad_rev3/protocol/host.o
 .text.send_digitizer
                0x0000000000000000        0x2 .build/obj_redox_rev1_base_ad_rev3/protocol/host.o
 .text.send_programmable_button
                0x0000000000000000        0x2 .build/obj_redox_rev1_base_ad_rev3/protocol/host.o
 .text.host_last_system_usage
                0x0000000000000000        0xa .build/obj_redox_rev1_base_ad_rev3/protocol/host.o
 .text.host_last_consumer_usage
                0x0000000000000000        0xa .build/obj_redox_rev1_base_ad_rev3/protocol/host.o
 .text          0x0000000000000000        0x0 .build/obj_redox_rev1_base_ad_rev3/protocol/report.o
 .data          0x0000000000000000        0x0 .build/obj_redox_rev1_base_ad_rev3/protocol/report.o
 .bss           0x0000000000000000        0x0 .build/obj_redox_rev1_base_ad_rev3/protocol/report.o
 .text.get_first_key
                0x0000000000000000        0xc .build/obj_redox_rev1_base_ad_rev3/protocol/report.o
 .text          0x0000000000000000        0x0 .build/obj_redox_rev1_base_ad_rev3/protocol/usb_device_state.o
 .data          0x0000000000000000        0x0 .build/obj_redox_rev1_base_ad_rev3/protocol/usb_device_state.o
 .bss           0x0000000000000000        0x0 .build/obj_redox_rev1_base_ad_rev3/protocol/usb_device_state.o
 .text          0x0000000000000000        0x0 .build/obj_redox_rev1_base_ad_rev3/protocol/usb_util.o
 .data          0x0000000000000000        0x0 .build/obj_redox_rev1_base_ad_rev3/protocol/usb_util.o
 .bss           0x0000000000000000        0x0 .build/obj_redox_rev1_base_ad_rev3/protocol/usb_util.o
 .text.usb_disconnect
                0x0000000000000000        0x2 .build/obj_redox_rev1_base_ad_rev3/protocol/usb_util.o
 .text.usb_connected_state
                0x0000000000000000        0x4 .build/obj_redox_rev1_base_ad_rev3/protocol/usb_util.o
 .text.usb_vbus_state
                0x0000000000000000        0x4 .build/obj_redox_rev1_base_ad_rev3/protocol/usb_util.o
 .debug_info    0x0000000000000000       0x9f .build/obj_redox_rev1_base_ad_rev3/protocol/usb_util.o
 .debug_abbrev  0x0000000000000000       0x67 .build/obj_redox_rev1_base_ad_rev3/protocol/usb_util.o
 .debug_aranges
                0x0000000000000000       0x28 .build/obj_redox_rev1_base_ad_rev3/protocol/usb_util.o
 .debug_ranges  0x0000000000000000       0x18 .build/obj_redox_rev1_base_ad_rev3/protocol/usb_util.o
 .debug_line    0x0000000000000000       0x60 .build/obj_redox_rev1_base_ad_rev3/protocol/usb_util.o
 .debug_str     0x0000000000000000      0x1e7 .build/obj_redox_rev1_base_ad_rev3/protocol/usb_util.o
 .comment       0x0000000000000000       0x12 .build/obj_redox_rev1_base_ad_rev3/protocol/usb_util.o
 .debug_frame   0x0000000000000000       0x44 .build/obj_redox_rev1_base_ad_rev3/protocol/usb_util.o
 .text          0x0000000000000000        0x0 .build/obj_redox_rev1_base_ad_rev3/platforms/suspend.o
 .data          0x0000000000000000        0x0 .build/obj_redox_rev1_base_ad_rev3/platforms/suspend.o
 .bss           0x0000000000000000        0x0 .build/obj_redox_rev1_base_ad_rev3/platforms/suspend.o
 .text          0x0000000000000000        0x0 .build/obj_redox_rev1_base_ad_rev3/platforms/synchronization_util.o
 .data          0x0000000000000000        0x0 .build/obj_redox_rev1_base_ad_rev3/platforms/synchronization_util.o
 .bss           0x0000000000000000        0x0 .build/obj_redox_rev1_base_ad_rev3/platforms/synchronization_util.o
 .text.split_shared_memory_lock
                0x0000000000000000        0x2 .build/obj_redox_rev1_base_ad_rev3/platforms/synchronization_util.o
 .text.split_shared_memory_unlock
                0x0000000000000000        0x2 .build/obj_redox_rev1_base_ad_rev3/platforms/synchronization_util.o
 .text.split_shared_memory_autounlock_lock_helper
                0x0000000000000000        0x6 .build/obj_redox_rev1_base_ad_rev3/platforms/synchronization_util.o
 .text.split_shared_memory_autounlock_unlock_helper
                0x0000000000000000        0x2 .build/obj_redox_rev1_base_ad_rev3/platforms/synchronization_util.o
 .debug_info    0x0000000000000000       0xa4 .build/obj_redox_rev1_base_ad_rev3/platforms/synchronization_util.o
 .debug_abbrev  0x0000000000000000       0x8e .build/obj_redox_rev1_base_ad_rev3/platforms/synchronization_util.o
 .debug_aranges
                0x0000000000000000       0x30 .build/obj_redox_rev1_base_ad_rev3/platforms/synchronization_util.o
 .debug_ranges  0x0000000000000000       0x20 .build/obj_redox_rev1_base_ad_rev3/platforms/synchronization_util.o
 .debug_line    0x0000000000000000       0x74 .build/obj_redox_rev1_base_ad_rev3/platforms/synchronization_util.o
 .debug_str     0x0000000000000000      0x206 .build/obj_redox_rev1_base_ad_rev3/platforms/synchronization_util.o
 .comment       0x0000000000000000       0x12 .build/obj_redox_rev1_base_ad_rev3/platforms/synchronization_util.o
 .debug_frame   0x0000000000000000       0x54 .build/obj_redox_rev1_base_ad_rev3/platforms/synchronization_util.o
 .text          0x0000000000000000        0x0 .build/obj_redox_rev1_base_ad_rev3/platforms/timer.o
 .data          0x0000000000000000        0x0 .build/obj_redox_rev1_base_ad_rev3/platforms/timer.o
 .bss           0x0000000000000000        0x0 .build/obj_redox_rev1_base_ad_rev3/platforms/timer.o
 .text.timer_read_fast
                0x0000000000000000        0x6 .build/obj_redox_rev1_base_ad_rev3/platforms/timer.o
 .text.timer_elapsed_fast
                0x0000000000000000        0x6 .build/obj_redox_rev1_base_ad_rev3/platforms/timer.o
 .debug_info    0x0000000000000000       0xfe .build/obj_redox_rev1_base_ad_rev3/platforms/timer.o
 .debug_abbrev  0x0000000000000000       0x98 .build/obj_redox_rev1_base_ad_rev3/platforms/timer.o
 .debug_loc     0x0000000000000000       0x26 .build/obj_redox_rev1_base_ad_rev3/platforms/timer.o
 .debug_aranges
                0x0000000000000000       0x28 .build/obj_redox_rev1_base_ad_rev3/platforms/timer.o
 .debug_ranges  0x0000000000000000       0x18 .build/obj_redox_rev1_base_ad_rev3/platforms/timer.o
 .debug_line    0x0000000000000000       0x88 .build/obj_redox_rev1_base_ad_rev3/platforms/timer.o
 .debug_str     0x0000000000000000      0x20f .build/obj_redox_rev1_base_ad_rev3/platforms/timer.o
 .comment       0x0000000000000000       0x12 .build/obj_redox_rev1_base_ad_rev3/platforms/timer.o
 .debug_frame   0x0000000000000000       0x34 .build/obj_redox_rev1_base_ad_rev3/platforms/timer.o
 .text          0x0000000000000000        0x0 .build/obj_redox_rev1_base_ad_rev3/platforms/avr/hardware_id.o
 .data          0x0000000000000000        0x0 .build/obj_redox_rev1_base_ad_rev3/platforms/avr/hardware_id.o
 .bss           0x0000000000000000        0x0 .build/obj_redox_rev1_base_ad_rev3/platforms/avr/hardware_id.o
 .text.get_hardware_id
                0x0000000000000000       0x4e .build/obj_redox_rev1_base_ad_rev3/platforms/avr/hardware_id.o
 .debug_info    0x0000000000000000      0x11d .build/obj_redox_rev1_base_ad_rev3/platforms/avr/hardware_id.o
 .debug_abbrev  0x0000000000000000       0xb9 .build/obj_redox_rev1_base_ad_rev3/platforms/avr/hardware_id.o
 .debug_loc     0x0000000000000000       0x5c .build/obj_redox_rev1_base_ad_rev3/platforms/avr/hardware_id.o
 .debug_aranges
                0x0000000000000000       0x20 .build/obj_redox_rev1_base_ad_rev3/platforms/avr/hardware_id.o
 .debug_ranges  0x0000000000000000       0x10 .build/obj_redox_rev1_base_ad_rev3/platforms/avr/hardware_id.o
 .debug_line    0x0000000000000000       0xb3 .build/obj_redox_rev1_base_ad_rev3/platforms/avr/hardware_id.o
 .debug_str     0x0000000000000000      0x21d .build/obj_redox_rev1_base_ad_rev3/platforms/avr/hardware_id.o
 .comment       0x0000000000000000       0x12 .build/obj_redox_rev1_base_ad_rev3/platforms/avr/hardware_id.o
 .debug_frame   0x0000000000000000       0x2c .build/obj_redox_rev1_base_ad_rev3/platforms/avr/hardware_id.o
 .text          0x0000000000000000        0x0 .build/obj_redox_rev1_base_ad_rev3/platforms/avr/platform.o
 .data          0x0000000000000000        0x0 .build/obj_redox_rev1_base_ad_rev3/platforms/avr/platform.o
 .bss           0x0000000000000000        0x0 .build/obj_redox_rev1_base_ad_rev3/platforms/avr/platform.o
 .text          0x0000000000000000        0x0 .build/obj_redox_rev1_base_ad_rev3/platforms/avr/suspend.o
 .data          0x0000000000000000        0x0 .build/obj_redox_rev1_base_ad_rev3/platforms/avr/suspend.o
 .bss           0x0000000000000000        0x0 .build/obj_redox_rev1_base_ad_rev3/platforms/avr/suspend.o
 .text          0x0000000000000000        0x0 .build/obj_redox_rev1_base_ad_rev3/platforms/avr/timer.o
 .data          0x0000000000000000        0x0 .build/obj_redox_rev1_base_ad_rev3/platforms/avr/timer.o
 .bss           0x0000000000000000        0x0 .build/obj_redox_rev1_base_ad_rev3/platforms/avr/timer.o
 .text.timer_clear
                0x0000000000000000       0x18 .build/obj_redox_rev1_base_ad_rev3/platforms/avr/timer.o
 .text          0x0000000000000000        0x0 .build/obj_redox_rev1_base_ad_rev3/platforms/avr/bootloaders/caterina.o
 .data          0x0000000000000000        0x0 .build/obj_redox_rev1_base_ad_rev3/platforms/avr/bootloaders/caterina.o
 .bss           0x0000000000000000        0x0 .build/obj_redox_rev1_base_ad_rev3/platforms/avr/bootloaders/caterina.o
 .text          0x0000000000000000        0x0 .build/obj_redox_rev1_base_ad_rev3/serial.a(serial.o)
 .data          0x0000000000000000        0x0 .build/obj_redox_rev1_base_ad_rev3/serial.a(serial.o)
 .bss           0x0000000000000000        0x0 .build/obj_redox_rev1_base_ad_rev3/serial.a(serial.o)
 .text          0x0000000000000000        0x0 .build/obj_redox_rev1_base_ad_rev3/lufa.o
 .data          0x0000000000000000        0x0 .build/obj_redox_rev1_base_ad_rev3/lufa.o
 .bss           0x0000000000000000        0x0 .build/obj_redox_rev1_base_ad_rev3/lufa.o
 .text.send_joystick
                0x0000000000000000        0x2 .build/obj_redox_rev1_base_ad_rev3/lufa.o
 .text.send_programmable_button
                0x0000000000000000        0x2 .build/obj_redox_rev1_base_ad_rev3/lufa.o
 .text.send_digitizer
                0x0000000000000000        0x2 .build/obj_redox_rev1_base_ad_rev3/lufa.o
 .text          0x0000000000000000        0x0 .build/obj_redox_rev1_base_ad_rev3/usb_descriptor.o
 .data          0x0000000000000000        0x0 .build/obj_redox_rev1_base_ad_rev3/usb_descriptor.o
 .bss           0x0000000000000000        0x0 .build/obj_redox_rev1_base_ad_rev3/usb_descriptor.o
 .text          0x0000000000000000        0x0 .build/obj_redox_rev1_base_ad_rev3/lib/lufa/LUFA/Drivers/USB/Class/Common/HIDParser.o
 .data          0x0000000000000000        0x0 .build/obj_redox_rev1_base_ad_rev3/lib/lufa/LUFA/Drivers/USB/Class/Common/HIDParser.o
 .bss           0x0000000000000000        0x0 .build/obj_redox_rev1_base_ad_rev3/lib/lufa/LUFA/Drivers/USB/Class/Common/HIDParser.o
 .text.USB_ProcessHIDReport
                0x0000000000000000      0x678 .build/obj_redox_rev1_base_ad_rev3/lib/lufa/LUFA/Drivers/USB/Class/Common/HIDParser.o
 .text.USB_GetHIDReportItemInfo
                0x0000000000000000       0xbc .build/obj_redox_rev1_base_ad_rev3/lib/lufa/LUFA/Drivers/USB/Class/Common/HIDParser.o
 .text.USB_SetHIDReportItemInfo
                0x0000000000000000       0xa6 .build/obj_redox_rev1_base_ad_rev3/lib/lufa/LUFA/Drivers/USB/Class/Common/HIDParser.o
 .text.USB_GetHIDReportSize
                0x0000000000000000       0x56 .build/obj_redox_rev1_base_ad_rev3/lib/lufa/LUFA/Drivers/USB/Class/Common/HIDParser.o
 .debug_info    0x0000000000000000      0x73f .build/obj_redox_rev1_base_ad_rev3/lib/lufa/LUFA/Drivers/USB/Class/Common/HIDParser.o
 .debug_abbrev  0x0000000000000000      0x21a .build/obj_redox_rev1_base_ad_rev3/lib/lufa/LUFA/Drivers/USB/Class/Common/HIDParser.o
 .debug_loc     0x0000000000000000      0x990 .build/obj_redox_rev1_base_ad_rev3/lib/lufa/LUFA/Drivers/USB/Class/Common/HIDParser.o
 .debug_aranges
                0x0000000000000000       0x38 .build/obj_redox_rev1_base_ad_rev3/lib/lufa/LUFA/Drivers/USB/Class/Common/HIDParser.o
 .debug_ranges  0x0000000000000000       0xd0 .build/obj_redox_rev1_base_ad_rev3/lib/lufa/LUFA/Drivers/USB/Class/Common/HIDParser.o
 .debug_line    0x0000000000000000      0x56f .build/obj_redox_rev1_base_ad_rev3/lib/lufa/LUFA/Drivers/USB/Class/Common/HIDParser.o
 .debug_str     0x0000000000000000      0x707 .build/obj_redox_rev1_base_ad_rev3/lib/lufa/LUFA/Drivers/USB/Class/Common/HIDParser.o
 .comment       0x0000000000000000       0x12 .build/obj_redox_rev1_base_ad_rev3/lib/lufa/LUFA/Drivers/USB/Class/Common/HIDParser.o
 .debug_frame   0x0000000000000000       0xc4 .build/obj_redox_rev1_base_ad_rev3/lib/lufa/LUFA/Drivers/USB/Class/Common/HIDParser.o
 .text          0x0000000000000000        0x0 .build/obj_redox_rev1_base_ad_rev3/lib/lufa/LUFA/Drivers/USB/Core/AVR8/Device_AVR8.o
 .data          0x0000000000000000        0x0 .build/obj_redox_rev1_base_ad_rev3/lib/lufa/LUFA/Drivers/USB/Core/AVR8/Device_AVR8.o
 .bss           0x0000000000000000        0x0 .build/obj_redox_rev1_base_ad_rev3/lib/lufa/LUFA/Drivers/USB/Core/AVR8/Device_AVR8.o
 .text          0x0000000000000000        0x0 .build/obj_redox_rev1_base_ad_rev3/lib/lufa/LUFA/Drivers/USB/Core/AVR8/EndpointStream_AVR8.o
 .data          0x0000000000000000        0x0 .build/obj_redox_rev1_base_ad_rev3/lib/lufa/LUFA/Drivers/USB/Core/AVR8/EndpointStream_AVR8.o
 .bss           0x0000000000000000        0x0 .build/obj_redox_rev1_base_ad_rev3/lib/lufa/LUFA/Drivers/USB/Core/AVR8/EndpointStream_AVR8.o
 .text.Endpoint_Discard_Stream
                0x0000000000000000       0x66 .build/obj_redox_rev1_base_ad_rev3/lib/lufa/LUFA/Drivers/USB/Core/AVR8/EndpointStream_AVR8.o
 .text.Endpoint_Null_Stream
                0x0000000000000000       0x66 .build/obj_redox_rev1_base_ad_rev3/lib/lufa/LUFA/Drivers/USB/Core/AVR8/EndpointStream_AVR8.o
 .text.Endpoint_Write_Stream_BE
                0x0000000000000000       0x94 .build/obj_redox_rev1_base_ad_rev3/lib/lufa/LUFA/Drivers/USB/Core/AVR8/EndpointStream_AVR8.o
 .text.Endpoint_Read_Stream_LE
                0x0000000000000000       0x8a .build/obj_redox_rev1_base_ad_rev3/lib/lufa/LUFA/Drivers/USB/Core/AVR8/EndpointStream_AVR8.o
 .text.Endpoint_Read_Stream_BE
                0x0000000000000000       0x94 .build/obj_redox_rev1_base_ad_rev3/lib/lufa/LUFA/Drivers/USB/Core/AVR8/EndpointStream_AVR8.o
 .text.Endpoint_Write_PStream_LE
                0x0000000000000000       0x8e .build/obj_redox_rev1_base_ad_rev3/lib/lufa/LUFA/Drivers/USB/Core/AVR8/EndpointStream_AVR8.o
 .text.Endpoint_Write_PStream_BE
                0x0000000000000000       0x96 .build/obj_redox_rev1_base_ad_rev3/lib/lufa/LUFA/Drivers/USB/Core/AVR8/EndpointStream_AVR8.o
 .text.Endpoint_Write_EStream_LE
                0x0000000000000000       0x90 .build/obj_redox_rev1_base_ad_rev3/lib/lufa/LUFA/Drivers/USB/Core/AVR8/EndpointStream_AVR8.o
 .text.Endpoint_Write_EStream_BE
                0x0000000000000000       0x98 .build/obj_redox_rev1_base_ad_rev3/lib/lufa/LUFA/Drivers/USB/Core/AVR8/EndpointStream_AVR8.o
 .text.Endpoint_Read_EStream_LE
                0x0000000000000000       0x90 .build/obj_redox_rev1_base_ad_rev3/lib/lufa/LUFA/Drivers/USB/Core/AVR8/EndpointStream_AVR8.o
 .text.Endpoint_Read_EStream_BE
                0x0000000000000000       0x98 .build/obj_redox_rev1_base_ad_rev3/lib/lufa/LUFA/Drivers/USB/Core/AVR8/EndpointStream_AVR8.o
 .text.Endpoint_Write_Control_Stream_BE
                0x0000000000000000       0xd0 .build/obj_redox_rev1_base_ad_rev3/lib/lufa/LUFA/Drivers/USB/Core/AVR8/EndpointStream_AVR8.o
 .text.Endpoint_Read_Control_Stream_LE
                0x0000000000000000       0x80 .build/obj_redox_rev1_base_ad_rev3/lib/lufa/LUFA/Drivers/USB/Core/AVR8/EndpointStream_AVR8.o
 .text.Endpoint_Read_Control_Stream_BE
                0x0000000000000000       0x82 .build/obj_redox_rev1_base_ad_rev3/lib/lufa/LUFA/Drivers/USB/Core/AVR8/EndpointStream_AVR8.o
 .text.Endpoint_Write_Control_PStream_BE
                0x0000000000000000       0xce .build/obj_redox_rev1_base_ad_rev3/lib/lufa/LUFA/Drivers/USB/Core/AVR8/EndpointStream_AVR8.o
 .text.Endpoint_Write_Control_EStream_LE
                0x0000000000000000       0xe8 .build/obj_redox_rev1_base_ad_rev3/lib/lufa/LUFA/Drivers/USB/Core/AVR8/EndpointStream_AVR8.o
 .text.Endpoint_Write_Control_EStream_BE
                0x0000000000000000       0xf4 .build/obj_redox_rev1_base_ad_rev3/lib/lufa/LUFA/Drivers/USB/Core/AVR8/EndpointStream_AVR8.o
 .text.Endpoint_Read_Control_EStream_LE
                0x0000000000000000       0x94 .build/obj_redox_rev1_base_ad_rev3/lib/lufa/LUFA/Drivers/USB/Core/AVR8/EndpointStream_AVR8.o
 .text.Endpoint_Read_Control_EStream_BE
                0x0000000000000000       0x92 .build/obj_redox_rev1_base_ad_rev3/lib/lufa/LUFA/Drivers/USB/Core/AVR8/EndpointStream_AVR8.o
 .text          0x0000000000000000        0x0 .build/obj_redox_rev1_base_ad_rev3/lib/lufa/LUFA/Drivers/USB/Core/AVR8/Endpoint_AVR8.o
 .data          0x0000000000000000        0x0 .build/obj_redox_rev1_base_ad_rev3/lib/lufa/LUFA/Drivers/USB/Core/AVR8/Endpoint_AVR8.o
 .bss           0x0000000000000000        0x0 .build/obj_redox_rev1_base_ad_rev3/lib/lufa/LUFA/Drivers/USB/Core/AVR8/Endpoint_AVR8.o
 .text.Endpoint_ConfigureEndpointTable
                0x0000000000000000       0x7c .build/obj_redox_rev1_base_ad_rev3/lib/lufa/LUFA/Drivers/USB/Core/AVR8/Endpoint_AVR8.o
 .text.Endpoint_ClearEndpoints
                0x0000000000000000       0x28 .build/obj_redox_rev1_base_ad_rev3/lib/lufa/LUFA/Drivers/USB/Core/AVR8/Endpoint_AVR8.o
 .text          0x0000000000000000        0x0 .build/obj_redox_rev1_base_ad_rev3/lib/lufa/LUFA/Drivers/USB/Core/AVR8/Host_AVR8.o
 .data          0x0000000000000000        0x0 .build/obj_redox_rev1_base_ad_rev3/lib/lufa/LUFA/Drivers/USB/Core/AVR8/Host_AVR8.o
 .bss           0x0000000000000000        0x0 .build/obj_redox_rev1_base_ad_rev3/lib/lufa/LUFA/Drivers/USB/Core/AVR8/Host_AVR8.o
 .debug_info    0x0000000000000000       0x5d .build/obj_redox_rev1_base_ad_rev3/lib/lufa/LUFA/Drivers/USB/Core/AVR8/Host_AVR8.o
 .debug_abbrev  0x0000000000000000       0x26 .build/obj_redox_rev1_base_ad_rev3/lib/lufa/LUFA/Drivers/USB/Core/AVR8/Host_AVR8.o
 .debug_aranges
                0x0000000000000000       0x18 .build/obj_redox_rev1_base_ad_rev3/lib/lufa/LUFA/Drivers/USB/Core/AVR8/Host_AVR8.o
 .debug_line    0x0000000000000000       0x1a .build/obj_redox_rev1_base_ad_rev3/lib/lufa/LUFA/Drivers/USB/Core/AVR8/Host_AVR8.o
 .debug_str     0x0000000000000000      0x1e2 .build/obj_redox_rev1_base_ad_rev3/lib/lufa/LUFA/Drivers/USB/Core/AVR8/Host_AVR8.o
 .comment       0x0000000000000000       0x12 .build/obj_redox_rev1_base_ad_rev3/lib/lufa/LUFA/Drivers/USB/Core/AVR8/Host_AVR8.o
 .text          0x0000000000000000        0x0 .build/obj_redox_rev1_base_ad_rev3/lib/lufa/LUFA/Drivers/USB/Core/AVR8/PipeStream_AVR8.o
 .data          0x0000000000000000        0x0 .build/obj_redox_rev1_base_ad_rev3/lib/lufa/LUFA/Drivers/USB/Core/AVR8/PipeStream_AVR8.o
 .bss           0x0000000000000000        0x0 .build/obj_redox_rev1_base_ad_rev3/lib/lufa/LUFA/Drivers/USB/Core/AVR8/PipeStream_AVR8.o
 .debug_info    0x0000000000000000       0x5d .build/obj_redox_rev1_base_ad_rev3/lib/lufa/LUFA/Drivers/USB/Core/AVR8/PipeStream_AVR8.o
 .debug_abbrev  0x0000000000000000       0x26 .build/obj_redox_rev1_base_ad_rev3/lib/lufa/LUFA/Drivers/USB/Core/AVR8/PipeStream_AVR8.o
 .debug_aranges
                0x0000000000000000       0x18 .build/obj_redox_rev1_base_ad_rev3/lib/lufa/LUFA/Drivers/USB/Core/AVR8/PipeStream_AVR8.o
 .debug_line    0x0000000000000000       0x1a .build/obj_redox_rev1_base_ad_rev3/lib/lufa/LUFA/Drivers/USB/Core/AVR8/PipeStream_AVR8.o
 .debug_str     0x0000000000000000      0x1e8 .build/obj_redox_rev1_base_ad_rev3/lib/lufa/LUFA/Drivers/USB/Core/AVR8/PipeStream_AVR8.o
 .comment       0x0000000000000000       0x12 .build/obj_redox_rev1_base_ad_rev3/lib/lufa/LUFA/Drivers/USB/Core/AVR8/PipeStream_AVR8.o
 .text          0x0000000000000000        0x0 .build/obj_redox_rev1_base_ad_rev3/lib/lufa/LUFA/Drivers/USB/Core/AVR8/Pipe_AVR8.o
 .data          0x0000000000000000        0x0 .build/obj_redox_rev1_base_ad_rev3/lib/lufa/LUFA/Drivers/USB/Core/AVR8/Pipe_AVR8.o
 .bss           0x0000000000000000        0x0 .build/obj_redox_rev1_base_ad_rev3/lib/lufa/LUFA/Drivers/USB/Core/AVR8/Pipe_AVR8.o
 .debug_info    0x0000000000000000       0x5d .build/obj_redox_rev1_base_ad_rev3/lib/lufa/LUFA/Drivers/USB/Core/AVR8/Pipe_AVR8.o
 .debug_abbrev  0x0000000000000000       0x26 .build/obj_redox_rev1_base_ad_rev3/lib/lufa/LUFA/Drivers/USB/Core/AVR8/Pipe_AVR8.o
 .debug_aranges
                0x0000000000000000       0x18 .build/obj_redox_rev1_base_ad_rev3/lib/lufa/LUFA/Drivers/USB/Core/AVR8/Pipe_AVR8.o
 .debug_line    0x0000000000000000       0x1a .build/obj_redox_rev1_base_ad_rev3/lib/lufa/LUFA/Drivers/USB/Core/AVR8/Pipe_AVR8.o
 .debug_str     0x0000000000000000      0x1e2 .build/obj_redox_rev1_base_ad_rev3/lib/lufa/LUFA/Drivers/USB/Core/AVR8/Pipe_AVR8.o
 .comment       0x0000000000000000       0x12 .build/obj_redox_rev1_base_ad_rev3/lib/lufa/LUFA/Drivers/USB/Core/AVR8/Pipe_AVR8.o
 .text          0x0000000000000000        0x0 .build/obj_redox_rev1_base_ad_rev3/lib/lufa/LUFA/Drivers/USB/Core/AVR8/USBController_AVR8.o
 .data          0x0000000000000000        0x0 .build/obj_redox_rev1_base_ad_rev3/lib/lufa/LUFA/Drivers/USB/Core/AVR8/USBController_AVR8.o
 .bss           0x0000000000000000        0x0 .build/obj_redox_rev1_base_ad_rev3/lib/lufa/LUFA/Drivers/USB/Core/AVR8/USBController_AVR8.o
 .text          0x0000000000000000        0x0 .build/obj_redox_rev1_base_ad_rev3/lib/lufa/LUFA/Drivers/USB/Core/AVR8/USBInterrupt_AVR8.o
 .data          0x0000000000000000        0x0 .build/obj_redox_rev1_base_ad_rev3/lib/lufa/LUFA/Drivers/USB/Core/AVR8/USBInterrupt_AVR8.o
 .bss           0x0000000000000000        0x0 .build/obj_redox_rev1_base_ad_rev3/lib/lufa/LUFA/Drivers/USB/Core/AVR8/USBInterrupt_AVR8.o
 .text          0x0000000000000000        0x0 .build/obj_redox_rev1_base_ad_rev3/lib/lufa/LUFA/Drivers/USB/Core/ConfigDescriptors.o
 .data          0x0000000000000000        0x0 .build/obj_redox_rev1_base_ad_rev3/lib/lufa/LUFA/Drivers/USB/Core/ConfigDescriptors.o
 .bss           0x0000000000000000        0x0 .build/obj_redox_rev1_base_ad_rev3/lib/lufa/LUFA/Drivers/USB/Core/ConfigDescriptors.o
 .text.USB_GetNextDescriptor
                0x0000000000000000       0x3c .build/obj_redox_rev1_base_ad_rev3/lib/lufa/LUFA/Drivers/USB/Core/ConfigDescriptors.o
 .text.USB_GetNextDescriptorOfType
                0x0000000000000000       0x36 .build/obj_redox_rev1_base_ad_rev3/lib/lufa/LUFA/Drivers/USB/Core/ConfigDescriptors.o
 .text.USB_GetNextDescriptorOfTypeBefore
                0x0000000000000000       0x42 .build/obj_redox_rev1_base_ad_rev3/lib/lufa/LUFA/Drivers/USB/Core/ConfigDescriptors.o
 .text.USB_GetNextDescriptorOfTypeAfter
                0x0000000000000000       0x32 .build/obj_redox_rev1_base_ad_rev3/lib/lufa/LUFA/Drivers/USB/Core/ConfigDescriptors.o
 .text.USB_GetNextDescriptorComp
                0x0000000000000000       0x52 .build/obj_redox_rev1_base_ad_rev3/lib/lufa/LUFA/Drivers/USB/Core/ConfigDescriptors.o
 .debug_info    0x0000000000000000      0x3d8 .build/obj_redox_rev1_base_ad_rev3/lib/lufa/LUFA/Drivers/USB/Core/ConfigDescriptors.o
 .debug_abbrev  0x0000000000000000      0x177 .build/obj_redox_rev1_base_ad_rev3/lib/lufa/LUFA/Drivers/USB/Core/ConfigDescriptors.o
 .debug_loc     0x0000000000000000      0x42c .build/obj_redox_rev1_base_ad_rev3/lib/lufa/LUFA/Drivers/USB/Core/ConfigDescriptors.o
 .debug_aranges
                0x0000000000000000       0x40 .build/obj_redox_rev1_base_ad_rev3/lib/lufa/LUFA/Drivers/USB/Core/ConfigDescriptors.o
 .debug_ranges  0x0000000000000000       0x30 .build/obj_redox_rev1_base_ad_rev3/lib/lufa/LUFA/Drivers/USB/Core/ConfigDescriptors.o
 .debug_line    0x0000000000000000      0x1c8 .build/obj_redox_rev1_base_ad_rev3/lib/lufa/LUFA/Drivers/USB/Core/ConfigDescriptors.o
 .debug_str     0x0000000000000000      0x42b .build/obj_redox_rev1_base_ad_rev3/lib/lufa/LUFA/Drivers/USB/Core/ConfigDescriptors.o
 .comment       0x0000000000000000       0x12 .build/obj_redox_rev1_base_ad_rev3/lib/lufa/LUFA/Drivers/USB/Core/ConfigDescriptors.o
 .debug_frame   0x0000000000000000       0xe0 .build/obj_redox_rev1_base_ad_rev3/lib/lufa/LUFA/Drivers/USB/Core/ConfigDescriptors.o
 .text          0x0000000000000000        0x0 .build/obj_redox_rev1_base_ad_rev3/lib/lufa/LUFA/Drivers/USB/Core/DeviceStandardReq.o
 .data          0x0000000000000000        0x0 .build/obj_redox_rev1_base_ad_rev3/lib/lufa/LUFA/Drivers/USB/Core/DeviceStandardReq.o
 .bss           0x0000000000000000        0x0 .build/obj_redox_rev1_base_ad_rev3/lib/lufa/LUFA/Drivers/USB/Core/DeviceStandardReq.o
 .text          0x0000000000000000        0x0 .build/obj_redox_rev1_base_ad_rev3/lib/lufa/LUFA/Drivers/USB/Core/Events.o
 .data          0x0000000000000000        0x0 .build/obj_redox_rev1_base_ad_rev3/lib/lufa/LUFA/Drivers/USB/Core/Events.o
 .bss           0x0000000000000000        0x0 .build/obj_redox_rev1_base_ad_rev3/lib/lufa/LUFA/Drivers/USB/Core/Events.o
 .text.USB_Event_Stub_2
                0x0000000000000000        0x2 .build/obj_redox_rev1_base_ad_rev3/lib/lufa/LUFA/Drivers/USB/Core/Events.o
 .text.USB_Event_Stub_3
                0x0000000000000000        0x2 .build/obj_redox_rev1_base_ad_rev3/lib/lufa/LUFA/Drivers/USB/Core/Events.o
 .text          0x0000000000000000        0x0 .build/obj_redox_rev1_base_ad_rev3/lib/lufa/LUFA/Drivers/USB/Core/HostStandardReq.o
 .data          0x0000000000000000        0x0 .build/obj_redox_rev1_base_ad_rev3/lib/lufa/LUFA/Drivers/USB/Core/HostStandardReq.o
 .bss           0x0000000000000000        0x0 .build/obj_redox_rev1_base_ad_rev3/lib/lufa/LUFA/Drivers/USB/Core/HostStandardReq.o
 .debug_info    0x0000000000000000       0x5d .build/obj_redox_rev1_base_ad_rev3/lib/lufa/LUFA/Drivers/USB/Core/HostStandardReq.o
 .debug_abbrev  0x0000000000000000       0x26 .build/obj_redox_rev1_base_ad_rev3/lib/lufa/LUFA/Drivers/USB/Core/HostStandardReq.o
 .debug_aranges
                0x0000000000000000       0x18 .build/obj_redox_rev1_base_ad_rev3/lib/lufa/LUFA/Drivers/USB/Core/HostStandardReq.o
 .debug_line    0x0000000000000000       0x1a .build/obj_redox_rev1_base_ad_rev3/lib/lufa/LUFA/Drivers/USB/Core/HostStandardReq.o
 .debug_str     0x0000000000000000      0x1e3 .build/obj_redox_rev1_base_ad_rev3/lib/lufa/LUFA/Drivers/USB/Core/HostStandardReq.o
 .comment       0x0000000000000000       0x12 .build/obj_redox_rev1_base_ad_rev3/lib/lufa/LUFA/Drivers/USB/Core/HostStandardReq.o
 .text          0x0000000000000000        0x0 .build/obj_redox_rev1_base_ad_rev3/lib/lufa/LUFA/Drivers/USB/Core/USBTask.o
 .data          0x0000000000000000        0x0 .build/obj_redox_rev1_base_ad_rev3/lib/lufa/LUFA/Drivers/USB/Core/USBTask.o
 .bss           0x0000000000000000        0x0 .build/obj_redox_rev1_base_ad_rev3/lib/lufa/LUFA/Drivers/USB/Core/USBTask.o
 .text          0x0000000000000000        0x0 .build/obj_redox_rev1_base_ad_rev3/protocol/lufa/usb_util.o
 .data          0x0000000000000000        0x0 .build/obj_redox_rev1_base_ad_rev3/protocol/lufa/usb_util.o
 .bss           0x0000000000000000        0x0 .build/obj_redox_rev1_base_ad_rev3/protocol/lufa/usb_util.o
 .text.usb_connected_state
                0x0000000000000000        0xc .build/obj_redox_rev1_base_ad_rev3/protocol/lufa/usb_util.o
 .text          0x0000000000000000        0x0 /usr/lib/gcc/avr/5.4.0/avr5/libgcc.a(_udivmodhi4.o)
 .data          0x0000000000000000        0x0 /usr/lib/gcc/avr/5.4.0/avr5/libgcc.a(_udivmodhi4.o)
 .bss           0x0000000000000000        0x0 /usr/lib/gcc/avr/5.4.0/avr5/libgcc.a(_udivmodhi4.o)
 .text.libgcc.mul
                0x0000000000000000        0x0 /usr/lib/gcc/avr/5.4.0/avr5/libgcc.a(_udivmodhi4.o)
 .text.libgcc   0x0000000000000000        0x0 /usr/lib/gcc/avr/5.4.0/avr5/libgcc.a(_udivmodhi4.o)
 .text.libgcc.prologue
                0x0000000000000000        0x0 /usr/lib/gcc/avr/5.4.0/avr5/libgcc.a(_udivmodhi4.o)
 .text.libgcc.builtins
                0x0000000000000000        0x0 /usr/lib/gcc/avr/5.4.0/avr5/libgcc.a(_udivmodhi4.o)
 .text.libgcc.fmul
                0x0000000000000000        0x0 /usr/lib/gcc/avr/5.4.0/avr5/libgcc.a(_udivmodhi4.o)
 .text.libgcc.fixed
                0x0000000000000000        0x0 /usr/lib/gcc/avr/5.4.0/avr5/libgcc.a(_udivmodhi4.o)
 .text          0x0000000000000000        0x0 /usr/lib/gcc/avr/5.4.0/avr5/libgcc.a(_divmodhi4.o)
 .data          0x0000000000000000        0x0 /usr/lib/gcc/avr/5.4.0/avr5/libgcc.a(_divmodhi4.o)
 .bss           0x0000000000000000        0x0 /usr/lib/gcc/avr/5.4.0/avr5/libgcc.a(_divmodhi4.o)
 .text.libgcc.mul
                0x0000000000000000        0x0 /usr/lib/gcc/avr/5.4.0/avr5/libgcc.a(_divmodhi4.o)
 .text.libgcc   0x0000000000000000        0x0 /usr/lib/gcc/avr/5.4.0/avr5/libgcc.a(_divmodhi4.o)
 .text.libgcc.prologue
                0x0000000000000000        0x0 /usr/lib/gcc/avr/5.4.0/avr5/libgcc.a(_divmodhi4.o)
 .text.libgcc.builtins
                0x0000000000000000        0x0 /usr/lib/gcc/avr/5.4.0/avr5/libgcc.a(_divmodhi4.o)
 .text.libgcc.fmul
                0x0000000000000000        0x0 /usr/lib/gcc/avr/5.4.0/avr5/libgcc.a(_divmodhi4.o)
 .text.libgcc.fixed
                0x0000000000000000        0x0 /usr/lib/gcc/avr/5.4.0/avr5/libgcc.a(_divmodhi4.o)
 .text          0x0000000000000000        0x0 /usr/lib/gcc/avr/5.4.0/avr5/libgcc.a(_udivmodsi4.o)
 .data          0x0000000000000000        0x0 /usr/lib/gcc/avr/5.4.0/avr5/libgcc.a(_udivmodsi4.o)
 .bss           0x0000000000000000        0x0 /usr/lib/gcc/avr/5.4.0/avr5/libgcc.a(_udivmodsi4.o)
 .text.libgcc.mul
                0x0000000000000000        0x0 /usr/lib/gcc/avr/5.4.0/avr5/libgcc.a(_udivmodsi4.o)
 .text.libgcc.div
                0x0000000000000000       0x44 /usr/lib/gcc/avr/5.4.0/avr5/libgcc.a(_udivmodsi4.o)
 .text.libgcc   0x0000000000000000        0x0 /usr/lib/gcc/avr/5.4.0/avr5/libgcc.a(_udivmodsi4.o)
 .text.libgcc.prologue
                0x0000000000000000        0x0 /usr/lib/gcc/avr/5.4.0/avr5/libgcc.a(_udivmodsi4.o)
 .text.libgcc.builtins
                0x0000000000000000        0x0 /usr/lib/gcc/avr/5.4.0/avr5/libgcc.a(_udivmodsi4.o)
 .text.libgcc.fmul
                0x0000000000000000        0x0 /usr/lib/gcc/avr/5.4.0/avr5/libgcc.a(_udivmodsi4.o)
 .text.libgcc.fixed
                0x0000000000000000        0x0 /usr/lib/gcc/avr/5.4.0/avr5/libgcc.a(_udivmodsi4.o)
 .text          0x0000000000000000        0x0 /usr/lib/gcc/avr/5.4.0/avr5/libgcc.a(_exit.o)
 .data          0x0000000000000000        0x0 /usr/lib/gcc/avr/5.4.0/avr5/libgcc.a(_exit.o)
 .bss           0x0000000000000000        0x0 /usr/lib/gcc/avr/5.4.0/avr5/libgcc.a(_exit.o)
 .text.libgcc.mul
                0x0000000000000000        0x0 /usr/lib/gcc/avr/5.4.0/avr5/libgcc.a(_exit.o)
 .text.libgcc.div
                0x0000000000000000        0x0 /usr/lib/gcc/avr/5.4.0/avr5/libgcc.a(_exit.o)
 .text.libgcc   0x0000000000000000        0x0 /usr/lib/gcc/avr/5.4.0/avr5/libgcc.a(_exit.o)
 .text.libgcc.prologue
                0x0000000000000000        0x0 /usr/lib/gcc/avr/5.4.0/avr5/libgcc.a(_exit.o)
 .text.libgcc.builtins
                0x0000000000000000        0x0 /usr/lib/gcc/avr/5.4.0/avr5/libgcc.a(_exit.o)
 .text.libgcc.fmul
                0x0000000000000000        0x0 /usr/lib/gcc/avr/5.4.0/avr5/libgcc.a(_exit.o)
 .text.libgcc.fixed
                0x0000000000000000        0x0 /usr/lib/gcc/avr/5.4.0/avr5/libgcc.a(_exit.o)
 .text          0x0000000000000000        0x0 /usr/lib/gcc/avr/5.4.0/avr5/libgcc.a(_tablejump2.o)
 .data          0x0000000000000000        0x0 /usr/lib/gcc/avr/5.4.0/avr5/libgcc.a(_tablejump2.o)
 .bss           0x0000000000000000        0x0 /usr/lib/gcc/avr/5.4.0/avr5/libgcc.a(_tablejump2.o)
 .text.libgcc.mul
                0x0000000000000000        0x0 /usr/lib/gcc/avr/5.4.0/avr5/libgcc.a(_tablejump2.o)
 .text.libgcc.div
                0x0000000000000000        0x0 /usr/lib/gcc/avr/5.4.0/avr5/libgcc.a(_tablejump2.o)
 .text.libgcc.prologue
                0x0000000000000000        0x0 /usr/lib/gcc/avr/5.4.0/avr5/libgcc.a(_tablejump2.o)
 .text.libgcc.builtins
                0x0000000000000000        0x0 /usr/lib/gcc/avr/5.4.0/avr5/libgcc.a(_tablejump2.o)
 .text.libgcc.fmul
                0x0000000000000000        0x0 /usr/lib/gcc/avr/5.4.0/avr5/libgcc.a(_tablejump2.o)
 .text.libgcc.fixed
                0x0000000000000000        0x0 /usr/lib/gcc/avr/5.4.0/avr5/libgcc.a(_tablejump2.o)
 .text          0x0000000000000000        0x0 /usr/lib/gcc/avr/5.4.0/avr5/libgcc.a(_copy_data.o)
 .data          0x0000000000000000        0x0 /usr/lib/gcc/avr/5.4.0/avr5/libgcc.a(_copy_data.o)
 .bss           0x0000000000000000        0x0 /usr/lib/gcc/avr/5.4.0/avr5/libgcc.a(_copy_data.o)
 .text.libgcc.mul
                0x0000000000000000        0x0 /usr/lib/gcc/avr/5.4.0/avr5/libgcc.a(_copy_data.o)
 .text.libgcc.div
                0x0000000000000000        0x0 /usr/lib/gcc/avr/5.4.0/avr5/libgcc.a(_copy_data.o)
 .text.libgcc   0x0000000000000000        0x0 /usr/lib/gcc/avr/5.4.0/avr5/libgcc.a(_copy_data.o)
 .text.libgcc.prologue
                0x0000000000000000        0x0 /usr/lib/gcc/avr/5.4.0/avr5/libgcc.a(_copy_data.o)
 .text.libgcc.builtins
                0x0000000000000000        0x0 /usr/lib/gcc/avr/5.4.0/avr5/libgcc.a(_copy_data.o)
 .text.libgcc.fmul
                0x0000000000000000        0x0 /usr/lib/gcc/avr/5.4.0/avr5/libgcc.a(_copy_data.o)
 .text.libgcc.fixed
                0x0000000000000000        0x0 /usr/lib/gcc/avr/5.4.0/avr5/libgcc.a(_copy_data.o)
 .text          0x0000000000000000        0x0 /usr/lib/gcc/avr/5.4.0/avr5/libgcc.a(_clear_bss.o)
 .data          0x0000000000000000        0x0 /usr/lib/gcc/avr/5.4.0/avr5/libgcc.a(_clear_bss.o)
 .bss           0x0000000000000000        0x0 /usr/lib/gcc/avr/5.4.0/avr5/libgcc.a(_clear_bss.o)
 .text.libgcc.mul
                0x0000000000000000        0x0 /usr/lib/gcc/avr/5.4.0/avr5/libgcc.a(_clear_bss.o)
 .text.libgcc.div
                0x0000000000000000        0x0 /usr/lib/gcc/avr/5.4.0/avr5/libgcc.a(_clear_bss.o)
 .text.libgcc   0x0000000000000000        0x0 /usr/lib/gcc/avr/5.4.0/avr5/libgcc.a(_clear_bss.o)
 .text.libgcc.prologue
                0x0000000000000000        0x0 /usr/lib/gcc/avr/5.4.0/avr5/libgcc.a(_clear_bss.o)
 .text.libgcc.builtins
                0x0000000000000000        0x0 /usr/lib/gcc/avr/5.4.0/avr5/libgcc.a(_clear_bss.o)
 .text.libgcc.fmul
                0x0000000000000000        0x0 /usr/lib/gcc/avr/5.4.0/avr5/libgcc.a(_clear_bss.o)
 .text.libgcc.fixed
                0x0000000000000000        0x0 /usr/lib/gcc/avr/5.4.0/avr5/libgcc.a(_clear_bss.o)
 .text          0x0000000000000000        0x0 /usr/lib/gcc/avr/5.4.0/avr5/libgcc.a(_prologue.o)
 .data          0x0000000000000000        0x0 /usr/lib/gcc/avr/5.4.0/avr5/libgcc.a(_prologue.o)
 .bss           0x0000000000000000        0x0 /usr/lib/gcc/avr/5.4.0/avr5/libgcc.a(_prologue.o)
 .text.libgcc.mul
                0x0000000000000000        0x0 /usr/lib/gcc/avr/5.4.0/avr5/libgcc.a(_prologue.o)
 .text.libgcc.div
                0x0000000000000000        0x0 /usr/lib/gcc/avr/5.4.0/avr5/libgcc.a(_prologue.o)
 .text.libgcc   0x0000000000000000        0x0 /usr/lib/gcc/avr/5.4.0/avr5/libgcc.a(_prologue.o)
 .text.libgcc.builtins
                0x0000000000000000        0x0 /usr/lib/gcc/avr/5.4.0/avr5/libgcc.a(_prologue.o)
 .text.libgcc.fmul
                0x0000000000000000        0x0 /usr/lib/gcc/avr/5.4.0/avr5/libgcc.a(_prologue.o)
 .text.libgcc.fixed
                0x0000000000000000        0x0 /usr/lib/gcc/avr/5.4.0/avr5/libgcc.a(_prologue.o)
 .text          0x0000000000000000        0x0 /usr/lib/gcc/avr/5.4.0/avr5/libgcc.a(_epilogue.o)
 .data          0x0000000000000000        0x0 /usr/lib/gcc/avr/5.4.0/avr5/libgcc.a(_epilogue.o)
 .bss           0x0000000000000000        0x0 /usr/lib/gcc/avr/5.4.0/avr5/libgcc.a(_epilogue.o)
 .text.libgcc.mul
                0x0000000000000000        0x0 /usr/lib/gcc/avr/5.4.0/avr5/libgcc.a(_epilogue.o)
 .text.libgcc.div
                0x0000000000000000        0x0 /usr/lib/gcc/avr/5.4.0/avr5/libgcc.a(_epilogue.o)
 .text.libgcc   0x0000000000000000        0x0 /usr/lib/gcc/avr/5.4.0/avr5/libgcc.a(_epilogue.o)
 .text.libgcc.builtins
                0x0000000000000000        0x0 /usr/lib/gcc/avr/5.4.0/avr5/libgcc.a(_epilogue.o)
 .text.libgcc.fmul
                0x0000000000000000        0x0 /usr/lib/gcc/avr/5.4.0/avr5/libgcc.a(_epilogue.o)
 .text.libgcc.fixed
                0x0000000000000000        0x0 /usr/lib/gcc/avr/5.4.0/avr5/libgcc.a(_epilogue.o)
 .text          0x0000000000000000        0x0 /usr/lib/gcc/avr/5.4.0/avr5/libgcc.a(_ashldi3.o)
 .data          0x0000000000000000        0x0 /usr/lib/gcc/avr/5.4.0/avr5/libgcc.a(_ashldi3.o)
 .bss           0x0000000000000000        0x0 /usr/lib/gcc/avr/5.4.0/avr5/libgcc.a(_ashldi3.o)
 .text.libgcc.mul
                0x0000000000000000        0x0 /usr/lib/gcc/avr/5.4.0/avr5/libgcc.a(_ashldi3.o)
 .text.libgcc.div
                0x0000000000000000        0x0 /usr/lib/gcc/avr/5.4.0/avr5/libgcc.a(_ashldi3.o)
 .text.libgcc   0x0000000000000000        0x0 /usr/lib/gcc/avr/5.4.0/avr5/libgcc.a(_ashldi3.o)
 .text.libgcc.prologue
                0x0000000000000000        0x0 /usr/lib/gcc/avr/5.4.0/avr5/libgcc.a(_ashldi3.o)
 .text.libgcc.fmul
                0x0000000000000000        0x0 /usr/lib/gcc/avr/5.4.0/avr5/libgcc.a(_ashldi3.o)
 .text.libgcc.fixed
                0x0000000000000000        0x0 /usr/lib/gcc/avr/5.4.0/avr5/libgcc.a(_ashldi3.o)
 .text          0x0000000000000000        0x0 /usr/lib/gcc/avr/5.4.0/avr5/libgcc.a(_ashrdi3.o)
 .data          0x0000000000000000        0x0 /usr/lib/gcc/avr/5.4.0/avr5/libgcc.a(_ashrdi3.o)
 .bss           0x0000000000000000        0x0 /usr/lib/gcc/avr/5.4.0/avr5/libgcc.a(_ashrdi3.o)
 .text.libgcc.mul
                0x0000000000000000        0x0 /usr/lib/gcc/avr/5.4.0/avr5/libgcc.a(_ashrdi3.o)
 .text.libgcc.div
                0x0000000000000000        0x0 /usr/lib/gcc/avr/5.4.0/avr5/libgcc.a(_ashrdi3.o)
 .text.libgcc   0x0000000000000000        0x0 /usr/lib/gcc/avr/5.4.0/avr5/libgcc.a(_ashrdi3.o)
 .text.libgcc.prologue
                0x0000000000000000        0x0 /usr/lib/gcc/avr/5.4.0/avr5/libgcc.a(_ashrdi3.o)
 .text.libgcc.fmul
                0x0000000000000000        0x0 /usr/lib/gcc/avr/5.4.0/avr5/libgcc.a(_ashrdi3.o)
 .text.libgcc.fixed
                0x0000000000000000        0x0 /usr/lib/gcc/avr/5.4.0/avr5/libgcc.a(_ashrdi3.o)
 .text          0x0000000000000000        0x0 /usr/lib/gcc/avr/5.4.0/../../../avr/lib/avr5/libc.a(memcmp.o)
 .data          0x0000000000000000        0x0 /usr/lib/gcc/avr/5.4.0/../../../avr/lib/avr5/libc.a(memcmp.o)
 .bss           0x0000000000000000        0x0 /usr/lib/gcc/avr/5.4.0/../../../avr/lib/avr5/libc.a(memcmp.o)
 .text          0x0000000000000000        0x0 /usr/lib/gcc/avr/5.4.0/../../../avr/lib/avr5/libc.a(memcpy.o)
 .data          0x0000000000000000        0x0 /usr/lib/gcc/avr/5.4.0/../../../avr/lib/avr5/libc.a(memcpy.o)
 .bss           0x0000000000000000        0x0 /usr/lib/gcc/avr/5.4.0/../../../avr/lib/avr5/libc.a(memcpy.o)
 .text          0x0000000000000000        0x0 /usr/lib/gcc/avr/5.4.0/../../../avr/lib/avr5/libatmega32u4.a(eerd_byte.o)
 .data          0x0000000000000000        0x0 /usr/lib/gcc/avr/5.4.0/../../../avr/lib/avr5/libatmega32u4.a(eerd_byte.o)
 .bss           0x0000000000000000        0x0 /usr/lib/gcc/avr/5.4.0/../../../avr/lib/avr5/libatmega32u4.a(eerd_byte.o)
 .text          0x0000000000000000        0x0 /usr/lib/gcc/avr/5.4.0/../../../avr/lib/avr5/libatmega32u4.a(eerd_dword.o)
 .data          0x0000000000000000        0x0 /usr/lib/gcc/avr/5.4.0/../../../avr/lib/avr5/libatmega32u4.a(eerd_dword.o)
 .bss           0x0000000000000000        0x0 /usr/lib/gcc/avr/5.4.0/../../../avr/lib/avr5/libatmega32u4.a(eerd_dword.o)
 .text          0x0000000000000000        0x0 /usr/lib/gcc/avr/5.4.0/../../../avr/lib/avr5/libatmega32u4.a(eerd_word.o)
 .data          0x0000000000000000        0x0 /usr/lib/gcc/avr/5.4.0/../../../avr/lib/avr5/libatmega32u4.a(eerd_word.o)
 .bss           0x0000000000000000        0x0 /usr/lib/gcc/avr/5.4.0/../../../avr/lib/avr5/libatmega32u4.a(eerd_word.o)
 .text          0x0000000000000000        0x0 /usr/lib/gcc/avr/5.4.0/../../../avr/lib/avr5/libatmega32u4.a(eeupd_block.o)
 .data          0x0000000000000000        0x0 /usr/lib/gcc/avr/5.4.0/../../../avr/lib/avr5/libatmega32u4.a(eeupd_block.o)
 .bss           0x0000000000000000        0x0 /usr/lib/gcc/avr/5.4.0/../../../avr/lib/avr5/libatmega32u4.a(eeupd_block.o)
 .text          0x0000000000000000        0x0 /usr/lib/gcc/avr/5.4.0/../../../avr/lib/avr5/libatmega32u4.a(eeupd_byte.o)
 .data          0x0000000000000000        0x0 /usr/lib/gcc/avr/5.4.0/../../../avr/lib/avr5/libatmega32u4.a(eeupd_byte.o)
 .bss           0x0000000000000000        0x0 /usr/lib/gcc/avr/5.4.0/../../../avr/lib/avr5/libatmega32u4.a(eeupd_byte.o)
 .text          0x0000000000000000        0x0 /usr/lib/gcc/avr/5.4.0/../../../avr/lib/avr5/libatmega32u4.a(eeupd_dword.o)
 .data          0x0000000000000000        0x0 /usr/lib/gcc/avr/5.4.0/../../../avr/lib/avr5/libatmega32u4.a(eeupd_dword.o)
 .bss           0x0000000000000000        0x0 /usr/lib/gcc/avr/5.4.0/../../../avr/lib/avr5/libatmega32u4.a(eeupd_dword.o)
 .text          0x0000000000000000        0x0 /usr/lib/gcc/avr/5.4.0/../../../avr/lib/avr5/libatmega32u4.a(eeupd_word.o)
 .data          0x0000000000000000        0x0 /usr/lib/gcc/avr/5.4.0/../../../avr/lib/avr5/libatmega32u4.a(eeupd_word.o)
 .bss           0x0000000000000000        0x0 /usr/lib/gcc/avr/5.4.0/../../../avr/lib/avr5/libatmega32u4.a(eeupd_word.o)
 .text          0x0000000000000000        0x0 /usr/lib/gcc/avr/5.4.0/../../../avr/lib/avr5/libatmega32u4.a(eerd_block.o)
 .data          0x0000000000000000        0x0 /usr/lib/gcc/avr/5.4.0/../../../avr/lib/avr5/libatmega32u4.a(eerd_block.o)
 .bss           0x0000000000000000        0x0 /usr/lib/gcc/avr/5.4.0/../../../avr/lib/avr5/libatmega32u4.a(eerd_block.o)

Memory Configuration

Name             Origin             Length             Attributes
text             0x0000000000000000 0x0000000000008000 xr
data             0x0000000000800100 0x0000000000000a00 rw !x
eeprom           0x0000000000810000 0x0000000000000400 rw !x
fuse             0x0000000000820000 0x0000000000000003 rw !x
lock             0x0000000000830000 0x0000000000000400 rw !x
signature        0x0000000000840000 0x0000000000000400 rw !x
user_signatures  0x0000000000850000 0x0000000000000400 rw !x
*default*        0x0000000000000000 0xffffffffffffffff

Linker script and memory map

Address of section .data set to 0x800100
LOAD /usr/lib/gcc/avr/5.4.0/../../../avr/lib/avr5/crtatmega32u4.o
LOAD .build/obj_redox_rev1_base_ad_rev3/.build/obj_redox_rev1_base_ad_rev3/src/default_keyboard.o
LOAD .build/obj_redox_rev1_base_ad_rev3/quantum/keymap_introspection.o
LOAD .build/obj_redox_rev1_base_ad_rev3/quantum/quantum.o
LOAD .build/obj_redox_rev1_base_ad_rev3/quantum/bitwise.o
LOAD .build/obj_redox_rev1_base_ad_rev3/quantum/led.o
LOAD .build/obj_redox_rev1_base_ad_rev3/quantum/action.o
LOAD .build/obj_redox_rev1_base_ad_rev3/quantum/action_layer.o
LOAD .build/obj_redox_rev1_base_ad_rev3/quantum/action_tapping.o
LOAD .build/obj_redox_rev1_base_ad_rev3/quantum/action_util.o
LOAD .build/obj_redox_rev1_base_ad_rev3/quantum/eeconfig.o
LOAD .build/obj_redox_rev1_base_ad_rev3/quantum/keyboard.o
LOAD .build/obj_redox_rev1_base_ad_rev3/quantum/keymap_common.o
LOAD .build/obj_redox_rev1_base_ad_rev3/quantum/keycode_config.o
LOAD .build/obj_redox_rev1_base_ad_rev3/quantum/sync_timer.o
LOAD .build/obj_redox_rev1_base_ad_rev3/quantum/logging/debug.o
LOAD .build/obj_redox_rev1_base_ad_rev3/quantum/logging/sendchar.o
LOAD .build/obj_redox_rev1_base_ad_rev3/quantum/bootmagic/magic.o
LOAD .build/obj_redox_rev1_base_ad_rev3/quantum/matrix_common.o
LOAD .build/obj_redox_rev1_base_ad_rev3/quantum/matrix.o
LOAD .build/obj_redox_rev1_base_ad_rev3/quantum/debounce/sym_defer_g.o
LOAD .build/obj_redox_rev1_base_ad_rev3/quantum/split_common/split_util.o
LOAD .build/obj_redox_rev1_base_ad_rev3/quantum/split_common/transport.o
LOAD .build/obj_redox_rev1_base_ad_rev3/quantum/split_common/transactions.o
LOAD .build/obj_redox_rev1_base_ad_rev3/quantum/main.o
LOAD .build/obj_redox_rev1_base_ad_rev3/platforms/avr/xprintf.o
LOAD .build/obj_redox_rev1_base_ad_rev3/platforms/avr/printf.o
LOAD .build/obj_redox_rev1_base_ad_rev3/quantum/color.o
LOAD .build/obj_redox_rev1_base_ad_rev3/quantum/rgblight/rgblight.o
LOAD .build/obj_redox_rev1_base_ad_rev3/quantum/process_keycode/process_rgb.o
LOAD .build/obj_redox_rev1_base_ad_rev3/quantum/led_tables.o
LOAD .build/obj_redox_rev1_base_ad_rev3/quantum/process_keycode/process_unicode.o
LOAD .build/obj_redox_rev1_base_ad_rev3/quantum/process_keycode/process_unicode_common.o
LOAD .build/obj_redox_rev1_base_ad_rev3/quantum/unicode/unicode.o
LOAD .build/obj_redox_rev1_base_ad_rev3/quantum/unicode/utf8.o
LOAD .build/obj_redox_rev1_base_ad_rev3/ws2812_bitbang.o
LOAD .build/obj_redox_rev1_base_ad_rev3/quantum/command.o
LOAD .build/obj_redox_rev1_base_ad_rev3/quantum/crc.o
LOAD .build/obj_redox_rev1_base_ad_rev3/quantum/process_keycode/process_grave_esc.o
LOAD .build/obj_redox_rev1_base_ad_rev3/quantum/process_keycode/process_magic.o
LOAD .build/obj_redox_rev1_base_ad_rev3/quantum/mousekey.o
LOAD .build/obj_redox_rev1_base_ad_rev3/quantum/send_string/send_string.o
LOAD .build/obj_redox_rev1_base_ad_rev3/quantum/process_keycode/process_space_cadet.o
LOAD .build/obj_redox_rev1_base_ad_rev3/quantum/process_keycode/process_tap_dance.o
LOAD .build/obj_redox_rev1_base_ad_rev3/protocol/host.o
LOAD .build/obj_redox_rev1_base_ad_rev3/protocol/report.o
LOAD .build/obj_redox_rev1_base_ad_rev3/protocol/usb_device_state.o
LOAD .build/obj_redox_rev1_base_ad_rev3/protocol/usb_util.o
LOAD .build/obj_redox_rev1_base_ad_rev3/platforms/suspend.o
LOAD .build/obj_redox_rev1_base_ad_rev3/platforms/synchronization_util.o
LOAD .build/obj_redox_rev1_base_ad_rev3/platforms/timer.o
LOAD .build/obj_redox_rev1_base_ad_rev3/platforms/avr/hardware_id.o
LOAD .build/obj_redox_rev1_base_ad_rev3/platforms/avr/platform.o
LOAD .build/obj_redox_rev1_base_ad_rev3/platforms/avr/suspend.o
LOAD .build/obj_redox_rev1_base_ad_rev3/platforms/avr/timer.o
LOAD .build/obj_redox_rev1_base_ad_rev3/platforms/avr/bootloaders/caterina.o
LOAD .build/obj_redox_rev1_base_ad_rev3/i2c_master.a
LOAD .build/obj_redox_rev1_base_ad_rev3/i2c_slave.a
LOAD .build/obj_redox_rev1_base_ad_rev3/serial.a
LOAD .build/obj_redox_rev1_base_ad_rev3/lufa.o
LOAD .build/obj_redox_rev1_base_ad_rev3/usb_descriptor.o
LOAD .build/obj_redox_rev1_base_ad_rev3/lib/lufa/LUFA/Drivers/USB/Class/Common/HIDParser.o
LOAD .build/obj_redox_rev1_base_ad_rev3/lib/lufa/LUFA/Drivers/USB/Core/AVR8/Device_AVR8.o
LOAD .build/obj_redox_rev1_base_ad_rev3/lib/lufa/LUFA/Drivers/USB/Core/AVR8/EndpointStream_AVR8.o
LOAD .build/obj_redox_rev1_base_ad_rev3/lib/lufa/LUFA/Drivers/USB/Core/AVR8/Endpoint_AVR8.o
LOAD .build/obj_redox_rev1_base_ad_rev3/lib/lufa/LUFA/Drivers/USB/Core/AVR8/Host_AVR8.o
LOAD .build/obj_redox_rev1_base_ad_rev3/lib/lufa/LUFA/Drivers/USB/Core/AVR8/PipeStream_AVR8.o
LOAD .build/obj_redox_rev1_base_ad_rev3/lib/lufa/LUFA/Drivers/USB/Core/AVR8/Pipe_AVR8.o
LOAD .build/obj_redox_rev1_base_ad_rev3/lib/lufa/LUFA/Drivers/USB/Core/AVR8/USBController_AVR8.o
LOAD .build/obj_redox_rev1_base_ad_rev3/lib/lufa/LUFA/Drivers/USB/Core/AVR8/USBInterrupt_AVR8.o
LOAD .build/obj_redox_rev1_base_ad_rev3/lib/lufa/LUFA/Drivers/USB/Core/ConfigDescriptors.o
LOAD .build/obj_redox_rev1_base_ad_rev3/lib/lufa/LUFA/Drivers/USB/Core/DeviceStandardReq.o
LOAD .build/obj_redox_rev1_base_ad_rev3/lib/lufa/LUFA/Drivers/USB/Core/Events.o
LOAD .build/obj_redox_rev1_base_ad_rev3/lib/lufa/LUFA/Drivers/USB/Core/HostStandardReq.o
LOAD .build/obj_redox_rev1_base_ad_rev3/lib/lufa/LUFA/Drivers/USB/Core/USBTask.o
LOAD .build/obj_redox_rev1_base_ad_rev3/protocol/lufa/usb_util.o
LOAD /usr/lib/gcc/avr/5.4.0/../../../avr/lib/avr5/libm.a
START GROUP
LOAD /usr/lib/gcc/avr/5.4.0/avr5/libgcc.a
LOAD /usr/lib/gcc/avr/5.4.0/../../../avr/lib/avr5/libm.a
LOAD /usr/lib/gcc/avr/5.4.0/../../../avr/lib/avr5/libc.a
LOAD /usr/lib/gcc/avr/5.4.0/../../../avr/lib/avr5/libatmega32u4.a
END GROUP
                0x0000000000000000                __TEXT_REGION_ORIGIN__ = DEFINED (__TEXT_REGION_ORIGIN__)?__TEXT_REGION_ORIGIN__:0x0
                [0x0000000000800100]                __DATA_REGION_ORIGIN__ = DEFINED (__DATA_REGION_ORIGIN__)?__DATA_REGION_ORIGIN__:0x800060
                [0x0000000000008000]                __TEXT_REGION_LENGTH__ = DEFINED (__TEXT_REGION_LENGTH__)?__TEXT_REGION_LENGTH__:0x20000
                [0x0000000000000a00]                __DATA_REGION_LENGTH__ = DEFINED (__DATA_REGION_LENGTH__)?__DATA_REGION_LENGTH__:0xffa0
                [0x0000000000000400]                __EEPROM_REGION_LENGTH__ = DEFINED (__EEPROM_REGION_LENGTH__)?__EEPROM_REGION_LENGTH__:0x10000
                [0x0000000000000003]                __FUSE_REGION_LENGTH__ = DEFINED (__FUSE_REGION_LENGTH__)?__FUSE_REGION_LENGTH__:0x400
                0x0000000000000400                __LOCK_REGION_LENGTH__ = DEFINED (__LOCK_REGION_LENGTH__)?__LOCK_REGION_LENGTH__:0x400
                0x0000000000000400                __SIGNATURE_REGION_LENGTH__ = DEFINED (__SIGNATURE_REGION_LENGTH__)?__SIGNATURE_REGION_LENGTH__:0x400
                0x0000000000000400                __USER_SIGNATURE_REGION_LENGTH__ = DEFINED (__USER_SIGNATURE_REGION_LENGTH__)?__USER_SIGNATURE_REGION_LENGTH__:0x400

.hash
 *(.hash)

.dynsym
 *(.dynsym)

.dynstr
 *(.dynstr)

.gnu.version
 *(.gnu.version)

.gnu.version_d
 *(.gnu.version_d)

.gnu.version_r
 *(.gnu.version_r)

.rel.init
 *(.rel.init)

.rela.init
 *(.rela.init)

.rel.text
 *(.rel.text)
 *(.rel.text.*)
 *(.rel.gnu.linkonce.t*)

.rela.text
 *(.rela.text)
 *(.rela.text.*)
 *(.rela.gnu.linkonce.t*)

.rel.fini
 *(.rel.fini)

.rela.fini
 *(.rela.fini)

.rel.rodata
 *(.rel.rodata)
 *(.rel.rodata.*)
 *(.rel.gnu.linkonce.r*)

.rela.rodata
 *(.rela.rodata)
 *(.rela.rodata.*)
 *(.rela.gnu.linkonce.r*)

.rel.data
 *(.rel.data)
 *(.rel.data.*)
 *(.rel.gnu.linkonce.d*)

.rela.data
 *(.rela.data)
 *(.rela.data.*)
 *(.rela.gnu.linkonce.d*)

.rel.ctors
 *(.rel.ctors)

.rela.ctors
 *(.rela.ctors)

.rel.dtors
 *(.rel.dtors)

.rela.dtors
 *(.rela.dtors)

.rel.got
 *(.rel.got)

.rela.got
 *(.rela.got)

.rel.bss
 *(.rel.bss)

.rela.bss
 *(.rela.bss)

.rel.plt
 *(.rel.plt)

.rela.plt
 *(.rela.plt)

.text           0x0000000000000000     0x631e
 *(.vectors)
 .vectors       0x0000000000000000       0xac /usr/lib/gcc/avr/5.4.0/../../../avr/lib/avr5/crtatmega32u4.o
                0x0000000000000000                __vectors
                0x0000000000000000                __vector_default
 *(.vectors)
 *(.progmem.gcc*)
 .progmem.gcc_sw_table.process_action
                0x00000000000000ac       0x18 .build/obj_redox_rev1_base_ad_rev3/quantum/action.o
 .progmem.gcc_sw_table.process_rgb
                0x00000000000000c4       0x2a .build/obj_redox_rev1_base_ad_rev3/quantum/process_keycode/process_rgb.o
 .progmem.gcc_sw_table.process_unicode_common
                0x00000000000000ee       0x10 .build/obj_redox_rev1_base_ad_rev3/quantum/process_keycode/process_unicode_common.o
 .progmem.gcc_sw_table.process_magic
                0x00000000000000fe       0x44 .build/obj_redox_rev1_base_ad_rev3/quantum/process_keycode/process_magic.o
 .progmem.gcc_sw_table.process_space_cadet
                0x0000000000000142        0xe .build/obj_redox_rev1_base_ad_rev3/quantum/process_keycode/process_space_cadet.o
 .progmem.gcc_sw_table.USB_Device_ProcessControlRequest
                0x0000000000000150       0x14 .build/obj_redox_rev1_base_ad_rev3/lib/lufa/LUFA/Drivers/USB/Core/DeviceStandardReq.o
                0x0000000000000164                . = ALIGN (0x2)
                0x0000000000000164                __trampolines_start = .
 *(.trampolines)
 .trampolines   0x0000000000000164        0x0 linker stubs
 *(.trampolines*)
                0x0000000000000164                __trampolines_end = .
 *libprintf_flt.a:*(.progmem.data)
 *libc.a:*(.progmem.data)
 *(.progmem*)
 .progmem.data.__c.5267
                0x0000000000000164        0x7 .build/obj_redox_rev1_base_ad_rev3/quantum/keymap_introspection.o
 .progmem.data.__c.5264
                0x000000000000016b        0xb .build/obj_redox_rev1_base_ad_rev3/quantum/keymap_introspection.o
 .progmem.data.__c.5261
                0x0000000000000176        0xe .build/obj_redox_rev1_base_ad_rev3/quantum/keymap_introspection.o
 .progmem.data.__c.5258
                0x0000000000000184        0xe .build/obj_redox_rev1_base_ad_rev3/quantum/keymap_introspection.o
 .progmem.data.keymaps
                0x0000000000000192      0x2bc .build/obj_redox_rev1_base_ad_rev3/quantum/keymap_introspection.o
                0x0000000000000192                keymaps
 .progmem.data.CIE1931_CURVE
                0x000000000000044e      0x100 .build/obj_redox_rev1_base_ad_rev3/quantum/led_tables.o
                0x000000000000044e                CIE1931_CURVE
 .progmem.data.ascii_to_keycode_lut
                0x000000000000054e       0x80 .build/obj_redox_rev1_base_ad_rev3/quantum/send_string/send_string.o
                0x000000000000054e                ascii_to_keycode_lut
 .progmem.data.ascii_to_dead_lut
                0x00000000000005ce       0x10 .build/obj_redox_rev1_base_ad_rev3/quantum/send_string/send_string.o
                0x00000000000005ce                ascii_to_dead_lut
 .progmem.data.ascii_to_altgr_lut
                0x00000000000005de       0x10 .build/obj_redox_rev1_base_ad_rev3/quantum/send_string/send_string.o
                0x00000000000005de                ascii_to_altgr_lut
 .progmem.data.ascii_to_shift_lut
                0x00000000000005ee       0x10 .build/obj_redox_rev1_base_ad_rev3/quantum/send_string/send_string.o
                0x00000000000005ee                ascii_to_shift_lut
 .progmem.data.ProductString
                0x00000000000005fe       0x22 .build/obj_redox_rev1_base_ad_rev3/usb_descriptor.o
                0x00000000000005fe                ProductString
 .progmem.data.ManufacturerString
                0x0000000000000620       0x14 .build/obj_redox_rev1_base_ad_rev3/usb_descriptor.o
                0x0000000000000620                ManufacturerString
 .progmem.data.LanguageString
                0x0000000000000634        0x4 .build/obj_redox_rev1_base_ad_rev3/usb_descriptor.o
                0x0000000000000634                LanguageString
 .progmem.data.ConfigurationDescriptor
                0x0000000000000638       0x3b .build/obj_redox_rev1_base_ad_rev3/usb_descriptor.o
                0x0000000000000638                ConfigurationDescriptor
 .progmem.data.DeviceDescriptor
                0x0000000000000673       0x12 .build/obj_redox_rev1_base_ad_rev3/usb_descriptor.o
                0x0000000000000673                DeviceDescriptor
 .progmem.data.SharedReport
                0x0000000000000685       0x7b .build/obj_redox_rev1_base_ad_rev3/usb_descriptor.o
                0x0000000000000685                SharedReport
 .progmem.data.KeyboardReport
                0x0000000000000700       0x44 .build/obj_redox_rev1_base_ad_rev3/usb_descriptor.o
                0x0000000000000700                KeyboardReport
                0x0000000000000744                . = ALIGN (0x2)
 *(.jumptables)
 *(.jumptables*)
 *(.lowtext)
 *(.lowtext*)
                0x0000000000000744                __ctors_start = .
 *(.ctors)
                0x0000000000000744                __ctors_end = .
                0x0000000000000744                __dtors_start = .
 *(.dtors)
                0x0000000000000744                __dtors_end = .
 SORT(*)(.ctors)
 SORT(*)(.dtors)
 *(.init0)
 .init0         0x0000000000000744        0x0 /usr/lib/gcc/avr/5.4.0/../../../avr/lib/avr5/crtatmega32u4.o
                0x0000000000000744                __init
 *(.init0)
 *(.init1)
 *(.init1)
 *(.init2)
 .init2         0x0000000000000744        0xc /usr/lib/gcc/avr/5.4.0/../../../avr/lib/avr5/crtatmega32u4.o
 *(.init2)
 *(.init3)
 *(.init3)
 *(.init4)
 .init4         0x0000000000000750       0x16 /usr/lib/gcc/avr/5.4.0/avr5/libgcc.a(_copy_data.o)
                0x0000000000000750                __do_copy_data
 .init4         0x0000000000000766       0x10 /usr/lib/gcc/avr/5.4.0/avr5/libgcc.a(_clear_bss.o)
                0x0000000000000766                __do_clear_bss
 *(.init4)
 *(.init5)
 *(.init5)
 *(.init6)
 *(.init6)
 *(.init7)
 *(.init7)
 *(.init8)
 *(.init8)
 *(.init9)
 .init9         0x0000000000000776        0x8 /usr/lib/gcc/avr/5.4.0/../../../avr/lib/avr5/crtatmega32u4.o
 *(.init9)
 *(.text)
 .text          0x000000000000077e        0x4 /usr/lib/gcc/avr/5.4.0/../../../avr/lib/avr5/crtatmega32u4.o
                0x000000000000077e                __vector_38
                0x000000000000077e                __vector_22
                0x000000000000077e                __vector_28
                0x000000000000077e                __vector_32
                0x000000000000077e                __vector_34
                0x000000000000077e                __vector_24
                0x000000000000077e                __bad_interrupt
                0x000000000000077e                __vector_6
                0x000000000000077e                __vector_31
                0x000000000000077e                __vector_35
                0x000000000000077e                __vector_39
                0x000000000000077e                __vector_3
                0x000000000000077e                __vector_23
                0x000000000000077e                __vector_30
                0x000000000000077e                __vector_25
                0x000000000000077e                __vector_13
                0x000000000000077e                __vector_17
                0x000000000000077e                __vector_19
                0x000000000000077e                __vector_7
                0x000000000000077e                __vector_41
                0x000000000000077e                __vector_27
                0x000000000000077e                __vector_5
                0x000000000000077e                __vector_33
                0x000000000000077e                __vector_37
                0x000000000000077e                __vector_4
                0x000000000000077e                __vector_9
                0x000000000000077e                __vector_2
                0x000000000000077e                __vector_15
                0x000000000000077e                __vector_36
                0x000000000000077e                __vector_29
                0x000000000000077e                __vector_40
                0x000000000000077e                __vector_8
                0x000000000000077e                __vector_26
                0x000000000000077e                __vector_14
                0x000000000000077e                __vector_16
                0x000000000000077e                __vector_18
                0x000000000000077e                __vector_20
                0x000000000000077e                __vector_42
                0x0000000000000782                . = ALIGN (0x2)
 *(.text.*)
 .text.process_record_user
                0x0000000000000782      0x26c .build/obj_redox_rev1_base_ad_rev3/quantum/keymap_introspection.o
                0x0000000000000782                process_record_user
 .text.keycode_at_keymap_location_raw
                0x00000000000009ee       0x36 .build/obj_redox_rev1_base_ad_rev3/quantum/keymap_introspection.o
                0x00000000000009ee                keycode_at_keymap_location_raw
 .text.keycode_at_keymap_location
                0x0000000000000a24        0x6 .build/obj_redox_rev1_base_ad_rev3/quantum/keymap_introspection.o
                0x0000000000000a24                keycode_at_keymap_location
 .text.extract_mod_bits
                0x0000000000000a2a       0x5a .build/obj_redox_rev1_base_ad_rev3/quantum/quantum.o
                0x0000000000000a2a                extract_mod_bits
 .text.do_code16
                0x0000000000000a84       0x14 .build/obj_redox_rev1_base_ad_rev3/quantum/quantum.o
                0x0000000000000a84                do_code16
 .text.register_code16
                0x0000000000000a98       0x2e .build/obj_redox_rev1_base_ad_rev3/quantum/quantum.o
                0x0000000000000a98                register_code16
 .text.unregister_code16
                0x0000000000000ac6       0x2e .build/obj_redox_rev1_base_ad_rev3/quantum/quantum.o
                0x0000000000000ac6                unregister_code16
 .text.tap_code16_delay
                0x0000000000000af4       0x34 .build/obj_redox_rev1_base_ad_rev3/quantum/quantum.o
                0x0000000000000af4                tap_code16_delay
 .text.tap_code16
                0x0000000000000b28       0x16 .build/obj_redox_rev1_base_ad_rev3/quantum/quantum.o
                0x0000000000000b28                tap_code16
 .text.process_action_kb
                0x0000000000000b3e        0x4 .build/obj_redox_rev1_base_ad_rev3/quantum/quantum.o
                0x0000000000000b3e                process_action_kb
 .text.process_record_user
                0x0000000000000b42        0x4 .build/obj_redox_rev1_base_ad_rev3/quantum/quantum.o
 .text.pre_process_record_user
                0x0000000000000b46        0x6 .build/obj_redox_rev1_base_ad_rev3/quantum/quantum.o
                0x0000000000000b46                pre_process_record_user
 .text.pre_process_record_kb
                0x0000000000000b4c        0x6 .build/obj_redox_rev1_base_ad_rev3/quantum/quantum.o
                0x0000000000000b4c                pre_process_record_kb
 .text.process_record_kb
                0x0000000000000b52        0x6 .build/obj_redox_rev1_base_ad_rev3/quantum/quantum.o
                0x0000000000000b52                process_record_kb
 .text.post_process_record_user
                0x0000000000000b58        0x2 .build/obj_redox_rev1_base_ad_rev3/quantum/quantum.o
                0x0000000000000b58                post_process_record_user
 .text.post_process_record_kb
                0x0000000000000b5a        0x6 .build/obj_redox_rev1_base_ad_rev3/quantum/quantum.o
                0x0000000000000b5a                post_process_record_kb
 .text.get_event_keycode
                0x0000000000000b60       0x5c .build/obj_redox_rev1_base_ad_rev3/quantum/quantum.o
                0x0000000000000b60                get_event_keycode
 .text.get_record_keycode
                0x0000000000000bbc       0x16 .build/obj_redox_rev1_base_ad_rev3/quantum/quantum.o
                0x0000000000000bbc                get_record_keycode
 .text.pre_process_record_quantum
                0x0000000000000bd2       0x18 .build/obj_redox_rev1_base_ad_rev3/quantum/quantum.o
                0x0000000000000bd2                pre_process_record_quantum
 .text.post_process_record_quantum
                0x0000000000000bea       0x18 .build/obj_redox_rev1_base_ad_rev3/quantum/quantum.o
                0x0000000000000bea                post_process_record_quantum
 .text.shutdown_user
                0x0000000000000c02        0x4 .build/obj_redox_rev1_base_ad_rev3/quantum/quantum.o
                0x0000000000000c02                shutdown_user
 .text.shutdown_kb
                0x0000000000000c06        0x6 .build/obj_redox_rev1_base_ad_rev3/quantum/quantum.o
                0x0000000000000c06                shutdown_kb
 .text.shutdown_quantum
                0x0000000000000c0c       0x24 .build/obj_redox_rev1_base_ad_rev3/quantum/quantum.o
                0x0000000000000c0c                shutdown_quantum
 .text.reset_keyboard
                0x0000000000000c30        0xc .build/obj_redox_rev1_base_ad_rev3/quantum/quantum.o
                0x0000000000000c30                reset_keyboard
 .text.soft_reset_keyboard
                0x0000000000000c3c        0xc .build/obj_redox_rev1_base_ad_rev3/quantum/quantum.o
                0x0000000000000c3c                soft_reset_keyboard
 .text.process_record_quantum
                0x0000000000000c48       0xf8 .build/obj_redox_rev1_base_ad_rev3/quantum/quantum.o
                0x0000000000000c48                process_record_quantum
 .text.suspend_power_down_quantum
                0x0000000000000d40        0xa .build/obj_redox_rev1_base_ad_rev3/quantum/quantum.o
                0x0000000000000d40                suspend_power_down_quantum
 .text.suspend_wakeup_init_quantum
                0x0000000000000d4a        0xa .build/obj_redox_rev1_base_ad_rev3/quantum/quantum.o
                0x0000000000000d4a                suspend_wakeup_init_quantum
 .text.led_set_user
                0x0000000000000d54        0x2 .build/obj_redox_rev1_base_ad_rev3/quantum/led.o
                0x0000000000000d54                led_set_user
 .text.led_update_user
                0x0000000000000d56        0x4 .build/obj_redox_rev1_base_ad_rev3/quantum/led.o
                0x0000000000000d56                led_update_user
 .text.led_update_ports
                0x0000000000000d5a        0x2 .build/obj_redox_rev1_base_ad_rev3/quantum/led.o
                0x0000000000000d5a                led_update_ports
 .text.led_update_kb
                0x0000000000000d5c       0x1e .build/obj_redox_rev1_base_ad_rev3/quantum/led.o
                0x0000000000000d5c                led_update_kb
 .text.led_init_ports
                0x0000000000000d7a        0x2 .build/obj_redox_rev1_base_ad_rev3/quantum/led.o
                0x0000000000000d7a                led_init_ports
 .text.led_set  0x0000000000000d7c       0x12 .build/obj_redox_rev1_base_ad_rev3/quantum/led.o
                0x0000000000000d7c                led_set
 .text.led_suspend
                0x0000000000000d8e        0x8 .build/obj_redox_rev1_base_ad_rev3/quantum/led.o
                0x0000000000000d8e                led_suspend
 .text.led_wakeup
                0x0000000000000d96        0xa .build/obj_redox_rev1_base_ad_rev3/quantum/led.o
                0x0000000000000d96                led_wakeup
 .text.led_task
                0x0000000000000da0       0x32 .build/obj_redox_rev1_base_ad_rev3/quantum/led.o
                0x0000000000000da0                led_task
 .text.action_exec
                0x0000000000000dd2       0x66 .build/obj_redox_rev1_base_ad_rev3/quantum/action.o
                0x0000000000000dd2                action_exec
 .text.process_record_tap_hint
                0x0000000000000e38       0x12 .build/obj_redox_rev1_base_ad_rev3/quantum/action.o
                0x0000000000000e38                process_record_tap_hint
 .text.register_mouse
                0x0000000000000e4a       0x14 .build/obj_redox_rev1_base_ad_rev3/quantum/action.o
                0x0000000000000e4a                register_mouse
 .text.register_code
                0x0000000000000e5e      0x126 .build/obj_redox_rev1_base_ad_rev3/quantum/action.o
                0x0000000000000e5e                register_code
 .text.unregister_code
                0x0000000000000f84       0xb4 .build/obj_redox_rev1_base_ad_rev3/quantum/action.o
                0x0000000000000f84                unregister_code
 .text.tap_code_delay
                0x0000000000001038       0x30 .build/obj_redox_rev1_base_ad_rev3/quantum/action.o
                0x0000000000001038                tap_code_delay
 .text.tap_code
                0x0000000000001068       0x14 .build/obj_redox_rev1_base_ad_rev3/quantum/action.o
                0x0000000000001068                tap_code
 .text.register_mods
                0x000000000000107c        0xe .build/obj_redox_rev1_base_ad_rev3/quantum/action.o
                0x000000000000107c                register_mods
 .text.unregister_mods
                0x000000000000108a        0xe .build/obj_redox_rev1_base_ad_rev3/quantum/action.o
                0x000000000000108a                unregister_mods
 .text.process_action
                0x0000000000001098      0x3f6 .build/obj_redox_rev1_base_ad_rev3/quantum/action.o
                0x0000000000001098                process_action
 .text.process_record_handler
                0x000000000000148e       0x30 .build/obj_redox_rev1_base_ad_rev3/quantum/action.o
                0x000000000000148e                process_record_handler
 .text.process_record
                0x00000000000014be       0x46 .build/obj_redox_rev1_base_ad_rev3/quantum/action.o
                0x00000000000014be                process_record
 .text.register_weak_mods
                0x0000000000001504        0xe .build/obj_redox_rev1_base_ad_rev3/quantum/action.o
                0x0000000000001504                register_weak_mods
 .text.unregister_weak_mods
                0x0000000000001512        0xe .build/obj_redox_rev1_base_ad_rev3/quantum/action.o
                0x0000000000001512                unregister_weak_mods
 .text.clear_keyboard_but_mods_and_keys
                0x0000000000001520       0x22 .build/obj_redox_rev1_base_ad_rev3/quantum/action.o
                0x0000000000001520                clear_keyboard_but_mods_and_keys
 .text.clear_keyboard_but_mods
                0x0000000000001542        0xa .build/obj_redox_rev1_base_ad_rev3/quantum/action.o
                0x0000000000001542                clear_keyboard_but_mods
 .text.clear_keyboard
                0x000000000000154c        0xa .build/obj_redox_rev1_base_ad_rev3/quantum/action.o
                0x000000000000154c                clear_keyboard
 .text.is_tap_action
                0x0000000000001556       0x36 .build/obj_redox_rev1_base_ad_rev3/quantum/action.o
                0x0000000000001556                is_tap_action
 .text.is_tap_record
                0x000000000000158c       0x1a .build/obj_redox_rev1_base_ad_rev3/quantum/action.o
                0x000000000000158c                is_tap_record
 .text.debug_event
                0x00000000000015a6       0x14 .build/obj_redox_rev1_base_ad_rev3/quantum/action.o
                0x00000000000015a6                debug_event
 .text.debug_record
                0x00000000000015ba       0x14 .build/obj_redox_rev1_base_ad_rev3/quantum/action.o
                0x00000000000015ba                debug_record
 .text.default_layer_debug
                0x00000000000015ce        0x2 .build/obj_redox_rev1_base_ad_rev3/quantum/action_layer.o
                0x00000000000015ce                default_layer_debug
 .text.layer_state_set_user
                0x00000000000015d0        0x2 .build/obj_redox_rev1_base_ad_rev3/quantum/action_layer.o
                0x00000000000015d0                layer_state_set_user
 .text.default_layer_state_set_user
                0x00000000000015d2        0x6 .build/obj_redox_rev1_base_ad_rev3/quantum/action_layer.o
                0x00000000000015d2                default_layer_state_set_user
 .text.default_layer_state_set_kb
                0x00000000000015d8        0x6 .build/obj_redox_rev1_base_ad_rev3/quantum/action_layer.o
                0x00000000000015d8                default_layer_state_set_kb
 .text.default_layer_state_set
                0x00000000000015de        0xe .build/obj_redox_rev1_base_ad_rev3/quantum/action_layer.o
 .text.default_layer_set
                0x00000000000015ec        0x6 .build/obj_redox_rev1_base_ad_rev3/quantum/action_layer.o
                0x00000000000015ec                default_layer_set
 .text.default_layer_or
                0x00000000000015f2       0x12 .build/obj_redox_rev1_base_ad_rev3/quantum/action_layer.o
                0x00000000000015f2                default_layer_or
 .text.default_layer_and
                0x0000000000001604       0x12 .build/obj_redox_rev1_base_ad_rev3/quantum/action_layer.o
                0x0000000000001604                default_layer_and
 .text.default_layer_xor
                0x0000000000001616       0x12 .build/obj_redox_rev1_base_ad_rev3/quantum/action_layer.o
                0x0000000000001616                default_layer_xor
 .text.layer_state_set_kb
                0x0000000000001628        0x6 .build/obj_redox_rev1_base_ad_rev3/quantum/action_layer.o
                0x0000000000001628                layer_state_set_kb
 .text.layer_state_set
                0x000000000000162e        0xe .build/obj_redox_rev1_base_ad_rev3/quantum/action_layer.o
                0x000000000000162e                layer_state_set
 .text.layer_clear
                0x000000000000163c        0xa .build/obj_redox_rev1_base_ad_rev3/quantum/action_layer.o
                0x000000000000163c                layer_clear
 .text.layer_move
                0x0000000000001646       0x18 .build/obj_redox_rev1_base_ad_rev3/quantum/action_layer.o
                0x0000000000001646                layer_move
 .text.layer_on
                0x000000000000165e       0x20 .build/obj_redox_rev1_base_ad_rev3/quantum/action_layer.o
                0x000000000000165e                layer_on
 .text.layer_off
                0x000000000000167e       0x24 .build/obj_redox_rev1_base_ad_rev3/quantum/action_layer.o
                0x000000000000167e                layer_off
 .text.layer_invert
                0x00000000000016a2       0x20 .build/obj_redox_rev1_base_ad_rev3/quantum/action_layer.o
                0x00000000000016a2                layer_invert
 .text.layer_or
                0x00000000000016c2       0x12 .build/obj_redox_rev1_base_ad_rev3/quantum/action_layer.o
                0x00000000000016c2                layer_or
 .text.layer_and
                0x00000000000016d4       0x12 .build/obj_redox_rev1_base_ad_rev3/quantum/action_layer.o
                0x00000000000016d4                layer_and
 .text.layer_xor
                0x00000000000016e6       0x12 .build/obj_redox_rev1_base_ad_rev3/quantum/action_layer.o
                0x00000000000016e6                layer_xor
 .text.layer_debug
                0x00000000000016f8        0x2 .build/obj_redox_rev1_base_ad_rev3/quantum/action_layer.o
                0x00000000000016f8                layer_debug
 .text.update_source_layers_cache_impl
                0x00000000000016fa       0x56 .build/obj_redox_rev1_base_ad_rev3/quantum/action_layer.o
                0x00000000000016fa                update_source_layers_cache_impl
 .text.read_source_layers_cache_impl
                0x0000000000001750       0x4e .build/obj_redox_rev1_base_ad_rev3/quantum/action_layer.o
                0x0000000000001750                read_source_layers_cache_impl
 .text.update_source_layers_cache
                0x000000000000179e       0x24 .build/obj_redox_rev1_base_ad_rev3/quantum/action_layer.o
                0x000000000000179e                update_source_layers_cache
 .text.read_source_layers_cache
                0x00000000000017c2       0x24 .build/obj_redox_rev1_base_ad_rev3/quantum/action_layer.o
                0x00000000000017c2                read_source_layers_cache
 .text.layer_switch_get_layer
                0x00000000000017e6       0x64 .build/obj_redox_rev1_base_ad_rev3/quantum/action_layer.o
                0x00000000000017e6                layer_switch_get_layer
 .text.layer_switch_get_action
                0x000000000000184a       0x16 .build/obj_redox_rev1_base_ad_rev3/quantum/action_layer.o
                0x000000000000184a                layer_switch_get_action
 .text.store_or_get_action
                0x0000000000001860       0x46 .build/obj_redox_rev1_base_ad_rev3/quantum/action_layer.o
                0x0000000000001860                store_or_get_action
 .text.debug_waiting_buffer
                0x00000000000018a6       0x44 .build/obj_redox_rev1_base_ad_rev3/quantum/action_tapping.o
 .text.debug_tapping_key
                0x00000000000018ea       0x22 .build/obj_redox_rev1_base_ad_rev3/quantum/action_tapping.o
 .text.waiting_buffer_scan_tap
                0x000000000000190c       0xb2 .build/obj_redox_rev1_base_ad_rev3/quantum/action_tapping.o
 .text.waiting_buffer_typed.isra.2
                0x00000000000019be       0x40 .build/obj_redox_rev1_base_ad_rev3/quantum/action_tapping.o
 .text.process_tapping
                0x00000000000019fe      0x348 .build/obj_redox_rev1_base_ad_rev3/quantum/action_tapping.o
 .text.action_tapping_process
                0x0000000000001d46      0x10a .build/obj_redox_rev1_base_ad_rev3/quantum/action_tapping.o
                0x0000000000001d46                action_tapping_process
 .text.get_oneshot_layer
                0x0000000000001e50        0xc .build/obj_redox_rev1_base_ad_rev3/quantum/action_util.o
                0x0000000000001e50                get_oneshot_layer
 .text.get_oneshot_layer_state
                0x0000000000001e5c        0x8 .build/obj_redox_rev1_base_ad_rev3/quantum/action_util.o
                0x0000000000001e5c                get_oneshot_layer_state
 .text.is_oneshot_layer_active
                0x0000000000001e64        0xe .build/obj_redox_rev1_base_ad_rev3/quantum/action_util.o
                0x0000000000001e64                is_oneshot_layer_active
 .text.get_mods
                0x0000000000001e72        0x6 .build/obj_redox_rev1_base_ad_rev3/quantum/action_util.o
                0x0000000000001e72                get_mods
 .text.add_mods
                0x0000000000001e78        0xc .build/obj_redox_rev1_base_ad_rev3/quantum/action_util.o
                0x0000000000001e78                add_mods
 .text.del_mods
                0x0000000000001e84        0xe .build/obj_redox_rev1_base_ad_rev3/quantum/action_util.o
                0x0000000000001e84                del_mods
 .text.set_mods
                0x0000000000001e92        0x6 .build/obj_redox_rev1_base_ad_rev3/quantum/action_util.o
                0x0000000000001e92                set_mods
 .text.clear_mods
                0x0000000000001e98        0x6 .build/obj_redox_rev1_base_ad_rev3/quantum/action_util.o
                0x0000000000001e98                clear_mods
 .text.get_weak_mods
                0x0000000000001e9e        0x6 .build/obj_redox_rev1_base_ad_rev3/quantum/action_util.o
                0x0000000000001e9e                get_weak_mods
 .text.add_weak_mods
                0x0000000000001ea4        0xc .build/obj_redox_rev1_base_ad_rev3/quantum/action_util.o
                0x0000000000001ea4                add_weak_mods
 .text.del_weak_mods
                0x0000000000001eb0        0xe .build/obj_redox_rev1_base_ad_rev3/quantum/action_util.o
                0x0000000000001eb0                del_weak_mods
 .text.clear_weak_mods
                0x0000000000001ebe        0x6 .build/obj_redox_rev1_base_ad_rev3/quantum/action_util.o
                0x0000000000001ebe                clear_weak_mods
 .text.get_oneshot_mods
                0x0000000000001ec4        0x6 .build/obj_redox_rev1_base_ad_rev3/quantum/action_util.o
                0x0000000000001ec4                get_oneshot_mods
 .text.oneshot_layer_changed_user
                0x0000000000001eca        0x2 .build/obj_redox_rev1_base_ad_rev3/quantum/action_util.o
                0x0000000000001eca                oneshot_layer_changed_user
 .text.oneshot_mods_changed_user
                0x0000000000001ecc        0x6 .build/obj_redox_rev1_base_ad_rev3/quantum/action_util.o
                0x0000000000001ecc                oneshot_mods_changed_user
 .text.oneshot_mods_changed_kb
                0x0000000000001ed2        0x6 .build/obj_redox_rev1_base_ad_rev3/quantum/action_util.o
                0x0000000000001ed2                oneshot_mods_changed_kb
 .text.add_oneshot_mods
                0x0000000000001ed8       0x18 .build/obj_redox_rev1_base_ad_rev3/quantum/action_util.o
                0x0000000000001ed8                add_oneshot_mods
 .text.del_oneshot_mods
                0x0000000000001ef0       0x18 .build/obj_redox_rev1_base_ad_rev3/quantum/action_util.o
                0x0000000000001ef0                del_oneshot_mods
 .text.clear_oneshot_mods
                0x0000000000001f08       0x14 .build/obj_redox_rev1_base_ad_rev3/quantum/action_util.o
                0x0000000000001f08                clear_oneshot_mods
 .text.send_6kro_report
                0x0000000000001f1c       0x6c .build/obj_redox_rev1_base_ad_rev3/quantum/action_util.o
                0x0000000000001f1c                send_6kro_report
 .text.send_keyboard_report
                0x0000000000001f88        0x6 .build/obj_redox_rev1_base_ad_rev3/quantum/action_util.o
                0x0000000000001f88                send_keyboard_report
 .text.oneshot_locked_mods_changed_user
                0x0000000000001f8e        0x6 .build/obj_redox_rev1_base_ad_rev3/quantum/action_util.o
                0x0000000000001f8e                oneshot_locked_mods_changed_user
 .text.oneshot_locked_mods_changed_kb
                0x0000000000001f94        0x6 .build/obj_redox_rev1_base_ad_rev3/quantum/action_util.o
                0x0000000000001f94                oneshot_locked_mods_changed_kb
 .text.del_oneshot_locked_mods
                0x0000000000001f9a       0x18 .build/obj_redox_rev1_base_ad_rev3/quantum/action_util.o
                0x0000000000001f9a                del_oneshot_locked_mods
 .text.oneshot_layer_changed_kb
                0x0000000000001fb2        0x6 .build/obj_redox_rev1_base_ad_rev3/quantum/action_util.o
                0x0000000000001fb2                oneshot_layer_changed_kb
 .text.set_oneshot_layer
                0x0000000000001fb8       0x30 .build/obj_redox_rev1_base_ad_rev3/quantum/action_util.o
                0x0000000000001fb8                set_oneshot_layer
 .text.reset_oneshot_layer
                0x0000000000001fe8        0xc .build/obj_redox_rev1_base_ad_rev3/quantum/action_util.o
                0x0000000000001fe8                reset_oneshot_layer
 .text.clear_oneshot_layer_state
                0x0000000000001ff4       0x2e .build/obj_redox_rev1_base_ad_rev3/quantum/action_util.o
                0x0000000000001ff4                clear_oneshot_layer_state
 .text.oneshot_set
                0x0000000000002022       0x2a .build/obj_redox_rev1_base_ad_rev3/quantum/action_util.o
                0x0000000000002022                oneshot_set
 .text.oneshot_toggle
                0x000000000000204c       0x14 .build/obj_redox_rev1_base_ad_rev3/quantum/action_util.o
                0x000000000000204c                oneshot_toggle
 .text.oneshot_enable
                0x0000000000002060        0x8 .build/obj_redox_rev1_base_ad_rev3/quantum/action_util.o
                0x0000000000002060                oneshot_enable
 .text.oneshot_disable
                0x0000000000002068        0x8 .build/obj_redox_rev1_base_ad_rev3/quantum/action_util.o
                0x0000000000002068                oneshot_disable
 .text.eeconfig_disable
                0x0000000000002070        0xe .build/obj_redox_rev1_base_ad_rev3/quantum/eeconfig.o
                0x0000000000002070                eeconfig_disable
 .text.eeconfig_is_enabled
                0x000000000000207e       0x16 .build/obj_redox_rev1_base_ad_rev3/quantum/eeconfig.o
                0x000000000000207e                eeconfig_is_enabled
 .text.eeconfig_read_debug
                0x0000000000002094        0xa .build/obj_redox_rev1_base_ad_rev3/quantum/eeconfig.o
                0x0000000000002094                eeconfig_read_debug
 .text.eeconfig_read_default_layer
                0x000000000000209e        0xa .build/obj_redox_rev1_base_ad_rev3/quantum/eeconfig.o
                0x000000000000209e                eeconfig_read_default_layer
 .text.eeconfig_read_keymap
                0x00000000000020a8        0xa .build/obj_redox_rev1_base_ad_rev3/quantum/eeconfig.o
                0x00000000000020a8                eeconfig_read_keymap
 .text.eeconfig_update_keymap
                0x00000000000020b2        0xc .build/obj_redox_rev1_base_ad_rev3/quantum/eeconfig.o
                0x00000000000020b2                eeconfig_update_keymap
 .text.eeconfig_update_kb
                0x00000000000020be        0xe .build/obj_redox_rev1_base_ad_rev3/quantum/eeconfig.o
                0x00000000000020be                eeconfig_update_kb
 .text.eeconfig_update_user
                0x00000000000020cc        0xe .build/obj_redox_rev1_base_ad_rev3/quantum/eeconfig.o
                0x00000000000020cc                eeconfig_update_user
 .text.eeconfig_init_user
                0x00000000000020da        0xc .build/obj_redox_rev1_base_ad_rev3/quantum/eeconfig.o
                0x00000000000020da                eeconfig_init_user
 .text.eeconfig_init_kb
                0x00000000000020e6       0x10 .build/obj_redox_rev1_base_ad_rev3/quantum/eeconfig.o
                0x00000000000020e6                eeconfig_init_kb
 .text.eeconfig_init_quantum
                0x00000000000020f6       0xc8 .build/obj_redox_rev1_base_ad_rev3/quantum/eeconfig.o
                0x00000000000020f6                eeconfig_init_quantum
 .text.eeconfig_init
                0x00000000000021be        0x6 .build/obj_redox_rev1_base_ad_rev3/quantum/eeconfig.o
                0x00000000000021be                eeconfig_init
 .text.eeconfig_update_handedness
                0x00000000000021c4        0xc .build/obj_redox_rev1_base_ad_rev3/quantum/eeconfig.o
                0x00000000000021c4                eeconfig_update_handedness
 .text.generate_tick_event
                0x00000000000021d0       0x48 .build/obj_redox_rev1_base_ad_rev3/quantum/keyboard.o
 .text.last_matrix_activity_trigger
                0x0000000000002218       0x26 .build/obj_redox_rev1_base_ad_rev3/quantum/keyboard.o
                0x0000000000002218                last_matrix_activity_trigger
 .text.matrix_can_read
                0x000000000000223e        0x4 .build/obj_redox_rev1_base_ad_rev3/quantum/keyboard.o
                0x000000000000223e                matrix_can_read
 .text.should_process_keypress
                0x0000000000002242        0x6 .build/obj_redox_rev1_base_ad_rev3/quantum/keyboard.o
                0x0000000000002242                should_process_keypress
 .text.housekeeping_task_user
                0x0000000000002248        0x2 .build/obj_redox_rev1_base_ad_rev3/quantum/keyboard.o
                0x0000000000002248                housekeeping_task_user
 .text.housekeeping_task_kb
                0x000000000000224a        0x6 .build/obj_redox_rev1_base_ad_rev3/quantum/keyboard.o
                0x000000000000224a                housekeeping_task_kb
 .text.keyboard_post_init_user
                0x0000000000002250        0x6 .build/obj_redox_rev1_base_ad_rev3/quantum/keyboard.o
                0x0000000000002250                keyboard_post_init_user
 .text.keyboard_post_init_kb
                0x0000000000002256        0x6 .build/obj_redox_rev1_base_ad_rev3/quantum/keyboard.o
                0x0000000000002256                keyboard_post_init_kb
 .text.keyboard_pre_init_user
                0x000000000000225c        0x6 .build/obj_redox_rev1_base_ad_rev3/quantum/keyboard.o
                0x000000000000225c                keyboard_pre_init_user
 .text.keyboard_pre_init_kb
                0x0000000000002262        0x6 .build/obj_redox_rev1_base_ad_rev3/quantum/keyboard.o
                0x0000000000002262                keyboard_pre_init_kb
 .text.matrix_setup
                0x0000000000002268        0x6 .build/obj_redox_rev1_base_ad_rev3/quantum/keyboard.o
                0x0000000000002268                matrix_setup
 .text.keyboard_setup
                0x000000000000226e       0x12 .build/obj_redox_rev1_base_ad_rev3/quantum/keyboard.o
                0x000000000000226e                keyboard_setup
 .text.housekeeping_task
                0x0000000000002280        0xa .build/obj_redox_rev1_base_ad_rev3/quantum/keyboard.o
                0x0000000000002280                housekeeping_task
 .text.quantum_init
                0x000000000000228a        0xe .build/obj_redox_rev1_base_ad_rev3/quantum/keyboard.o
                0x000000000000228a                quantum_init
 .text.keyboard_init
                0x0000000000002298       0x26 .build/obj_redox_rev1_base_ad_rev3/quantum/keyboard.o
                0x0000000000002298                keyboard_init
 .text.quantum_task
                0x00000000000022be        0xc .build/obj_redox_rev1_base_ad_rev3/quantum/keyboard.o
                0x00000000000022be                quantum_task
 .text.keyboard_task
                0x00000000000022ca       0xd8 .build/obj_redox_rev1_base_ad_rev3/quantum/keyboard.o
                0x00000000000022ca                keyboard_task
 .text.action_for_keycode
                0x00000000000023a2      0x23a .build/obj_redox_rev1_base_ad_rev3/quantum/keymap_common.o
                0x00000000000023a2                action_for_keycode
 .text.keymap_key_to_keycode
                0x00000000000025dc       0x18 .build/obj_redox_rev1_base_ad_rev3/quantum/keymap_common.o
                0x00000000000025dc                keymap_key_to_keycode
 .text.action_for_key
                0x00000000000025f4        0xa .build/obj_redox_rev1_base_ad_rev3/quantum/keymap_common.o
                0x00000000000025f4                action_for_key
 .text.keycode_config
                0x00000000000025fe      0x138 .build/obj_redox_rev1_base_ad_rev3/quantum/keycode_config.o
                0x00000000000025fe                keycode_config
 .text.mod_config
                0x0000000000002736       0x9e .build/obj_redox_rev1_base_ad_rev3/quantum/keycode_config.o
                0x0000000000002736                mod_config
 .text.sync_timer_init
                0x00000000000027d4       0x12 .build/obj_redox_rev1_base_ad_rev3/quantum/sync_timer.o
                0x00000000000027d4                sync_timer_init
 .text.sync_timer_update
                0x00000000000027e6       0x3a .build/obj_redox_rev1_base_ad_rev3/quantum/sync_timer.o
                0x00000000000027e6                sync_timer_update
 .text.sync_timer_read32
                0x0000000000002820       0x34 .build/obj_redox_rev1_base_ad_rev3/quantum/sync_timer.o
                0x0000000000002820                sync_timer_read32
 .text.sendchar
                0x0000000000002854        0x4 .build/obj_redox_rev1_base_ad_rev3/quantum/logging/sendchar.o
                0x0000000000002854                sendchar
 .text.bootmagic
                0x0000000000002858        0x2 .build/obj_redox_rev1_base_ad_rev3/quantum/bootmagic/magic.o
                0x0000000000002858                bootmagic
 .text.magic    0x000000000000285a       0x3c .build/obj_redox_rev1_base_ad_rev3/quantum/bootmagic/magic.o
                0x000000000000285a                magic
 .text.matrix_get_row
                0x0000000000002896        0xc .build/obj_redox_rev1_base_ad_rev3/quantum/matrix_common.o
                0x0000000000002896                matrix_get_row
 .text.matrix_print
                0x00000000000028a2        0x2 .build/obj_redox_rev1_base_ad_rev3/quantum/matrix_common.o
                0x00000000000028a2                matrix_print
 .text.matrix_io_delay
                0x00000000000028a4        0x8 .build/obj_redox_rev1_base_ad_rev3/quantum/matrix_common.o
                0x00000000000028a4                matrix_io_delay
 .text.matrix_output_select_delay
                0x00000000000028ac        0x4 .build/obj_redox_rev1_base_ad_rev3/quantum/matrix_common.o
                0x00000000000028ac                matrix_output_select_delay
 .text.matrix_output_unselect_delay
                0x00000000000028b0        0x6 .build/obj_redox_rev1_base_ad_rev3/quantum/matrix_common.o
                0x00000000000028b0                matrix_output_unselect_delay
 .text.matrix_slave_scan_user
                0x00000000000028b6        0x2 .build/obj_redox_rev1_base_ad_rev3/quantum/matrix_common.o
                0x00000000000028b6                matrix_slave_scan_user
 .text.matrix_scan_user
                0x00000000000028b8        0x6 .build/obj_redox_rev1_base_ad_rev3/quantum/matrix_common.o
                0x00000000000028b8                matrix_scan_user
 .text.matrix_scan_kb
                0x00000000000028be        0x6 .build/obj_redox_rev1_base_ad_rev3/quantum/matrix_common.o
                0x00000000000028be                matrix_scan_kb
 .text.matrix_init_user
                0x00000000000028c4        0x6 .build/obj_redox_rev1_base_ad_rev3/quantum/matrix_common.o
                0x00000000000028c4                matrix_init_user
 .text.matrix_init_kb
                0x00000000000028ca        0x6 .build/obj_redox_rev1_base_ad_rev3/quantum/matrix_common.o
                0x00000000000028ca                matrix_init_kb
 .text.matrix_slave_scan_kb
                0x00000000000028d0        0x6 .build/obj_redox_rev1_base_ad_rev3/quantum/matrix_common.o
                0x00000000000028d0                matrix_slave_scan_kb
 .text.matrix_post_scan
                0x00000000000028d6       0xb6 .build/obj_redox_rev1_base_ad_rev3/quantum/matrix_common.o
                0x00000000000028d6                matrix_post_scan
 .text.setPinInputHigh_atomic
                0x000000000000298c       0x2e .build/obj_redox_rev1_base_ad_rev3/quantum/matrix.o
 .text.matrix_init_pins
                0x00000000000029ba       0x40 .build/obj_redox_rev1_base_ad_rev3/quantum/matrix.o
                0x00000000000029ba                matrix_init_pins
 .text.matrix_read_cols_on_row
                0x00000000000029fa       0xbc .build/obj_redox_rev1_base_ad_rev3/quantum/matrix.o
                0x00000000000029fa                matrix_read_cols_on_row
 .text.matrix_init
                0x0000000000002ab6       0x4a .build/obj_redox_rev1_base_ad_rev3/quantum/matrix.o
                0x0000000000002ab6                matrix_init
 .text.matrix_scan
                0x0000000000002b00       0x7c .build/obj_redox_rev1_base_ad_rev3/quantum/matrix.o
                0x0000000000002b00                matrix_scan
 .text.debounce_init
                0x0000000000002b7c        0x2 .build/obj_redox_rev1_base_ad_rev3/quantum/debounce/sym_defer_g.o
                0x0000000000002b7c                debounce_init
 .text.debounce
                0x0000000000002b7e       0x74 .build/obj_redox_rev1_base_ad_rev3/quantum/debounce/sym_defer_g.o
                0x0000000000002b7e                debounce
 .text.is_keyboard_master_impl
                0x0000000000002bf2       0x16 .build/obj_redox_rev1_base_ad_rev3/quantum/split_common/split_util.o
                0x0000000000002bf2                is_keyboard_master_impl
 .text.is_keyboard_left
                0x0000000000002c08        0x6 .build/obj_redox_rev1_base_ad_rev3/quantum/split_common/split_util.o
                0x0000000000002c08                is_keyboard_left
 .text.is_keyboard_master
                0x0000000000002c0e        0x6 .build/obj_redox_rev1_base_ad_rev3/quantum/split_common/split_util.o
                0x0000000000002c0e                is_keyboard_master
 .text.is_keyboard_left_impl
                0x0000000000002c14        0x6 .build/obj_redox_rev1_base_ad_rev3/quantum/split_common/split_util.o
                0x0000000000002c14                is_keyboard_left_impl
 .text.split_pre_init
                0x0000000000002c1a       0x24 .build/obj_redox_rev1_base_ad_rev3/quantum/split_common/split_util.o
                0x0000000000002c1a                split_pre_init
 .text.split_post_init
                0x0000000000002c3e        0xe .build/obj_redox_rev1_base_ad_rev3/quantum/split_common/split_util.o
                0x0000000000002c3e                split_post_init
 .text.is_transport_connected
                0x0000000000002c4c        0xe .build/obj_redox_rev1_base_ad_rev3/quantum/split_common/split_util.o
                0x0000000000002c4c                is_transport_connected
 .text.transport_master_if_connected
                0x0000000000002c5a       0x70 .build/obj_redox_rev1_base_ad_rev3/quantum/split_common/split_util.o
                0x0000000000002c5a                transport_master_if_connected
 .text.transport_master_init
                0x0000000000002cca        0x6 .build/obj_redox_rev1_base_ad_rev3/quantum/split_common/transport.o
                0x0000000000002cca                transport_master_init
 .text.transport_slave_init
                0x0000000000002cd0        0x6 .build/obj_redox_rev1_base_ad_rev3/quantum/split_common/transport.o
                0x0000000000002cd0                transport_slave_init
 .text.transport_execute_transaction
                0x0000000000002cd6       0x90 .build/obj_redox_rev1_base_ad_rev3/quantum/split_common/transport.o
                0x0000000000002cd6                transport_execute_transaction
 .text.transport_master
                0x0000000000002d66        0x6 .build/obj_redox_rev1_base_ad_rev3/quantum/split_common/transport.o
                0x0000000000002d66                transport_master
 .text.transport_slave
                0x0000000000002d6c        0x6 .build/obj_redox_rev1_base_ad_rev3/quantum/split_common/transport.o
                0x0000000000002d6c                transport_slave
 .text.sync_timer_handlers_master
                0x0000000000002d72       0x80 .build/obj_redox_rev1_base_ad_rev3/quantum/split_common/transactions.o
 .text.transaction_handler_master.isra.1
                0x0000000000002df2       0x6a .build/obj_redox_rev1_base_ad_rev3/quantum/split_common/transactions.o
 .text.rgblight_handlers_master
                0x0000000000002e5c       0x7c .build/obj_redox_rev1_base_ad_rev3/quantum/split_common/transactions.o
 .text.slave_matrix_handlers_master
                0x0000000000002ed8       0xf4 .build/obj_redox_rev1_base_ad_rev3/quantum/split_common/transactions.o
 .text.transactions_master
                0x0000000000002fcc       0x42 .build/obj_redox_rev1_base_ad_rev3/quantum/split_common/transactions.o
                0x0000000000002fcc                transactions_master
 .text.transactions_slave
                0x000000000000300e       0x96 .build/obj_redox_rev1_base_ad_rev3/quantum/split_common/transactions.o
                0x000000000000300e                transactions_slave
 .text.protocol_init
                0x00000000000030a4        0xe .build/obj_redox_rev1_base_ad_rev3/quantum/main.o
                0x00000000000030a4                protocol_init
 .text.protocol_task
                0x00000000000030b2        0xe .build/obj_redox_rev1_base_ad_rev3/quantum/main.o
                0x00000000000030b2                protocol_task
 .text.startup.main
                0x00000000000030c0       0x1a .build/obj_redox_rev1_base_ad_rev3/quantum/main.o
                0x00000000000030c0                main
 .text.print_set_sendchar
                0x00000000000030da        0xa .build/obj_redox_rev1_base_ad_rev3/platforms/avr/printf.o
                0x00000000000030da                print_set_sendchar
 .text.hsv_to_rgb_impl
                0x00000000000030e4      0x11c .build/obj_redox_rev1_base_ad_rev3/quantum/color.o
                0x00000000000030e4                hsv_to_rgb_impl
 .text.hsv_to_rgb
                0x0000000000003200        0x8 .build/obj_redox_rev1_base_ad_rev3/quantum/color.o
                0x0000000000003200                hsv_to_rgb
 .text.rgblight_hsv_to_rgb
                0x0000000000003208        0x6 .build/obj_redox_rev1_base_ad_rev3/quantum/rgblight/rgblight.o
                0x0000000000003208                rgblight_hsv_to_rgb
 .text.sethsv_raw
                0x000000000000320e       0x1c .build/obj_redox_rev1_base_ad_rev3/quantum/rgblight/rgblight.o
                0x000000000000320e                sethsv_raw
 .text.rgblight_check_config
                0x000000000000322a       0x18 .build/obj_redox_rev1_base_ad_rev3/quantum/rgblight/rgblight.o
                0x000000000000322a                rgblight_check_config
 .text.eeconfig_read_rgblight
                0x0000000000003242       0x64 .build/obj_redox_rev1_base_ad_rev3/quantum/rgblight/rgblight.o
                0x0000000000003242                eeconfig_read_rgblight
 .text.eeconfig_update_rgblight
                0x00000000000032a6       0x4c .build/obj_redox_rev1_base_ad_rev3/quantum/rgblight/rgblight.o
                0x00000000000032a6                eeconfig_update_rgblight
 .text.eeconfig_update_rgblight_default
                0x00000000000032f2       0x36 .build/obj_redox_rev1_base_ad_rev3/quantum/rgblight/rgblight.o
                0x00000000000032f2                eeconfig_update_rgblight_default
 .text.rgblight_increase_speed_helper
                0x0000000000003328       0x38 .build/obj_redox_rev1_base_ad_rev3/quantum/rgblight/rgblight.o
                0x0000000000003328                rgblight_increase_speed_helper
 .text.rgblight_increase_speed
                0x0000000000003360        0x8 .build/obj_redox_rev1_base_ad_rev3/quantum/rgblight/rgblight.o
                0x0000000000003360                rgblight_increase_speed
 .text.rgblight_decrease_speed_helper
                0x0000000000003368       0x38 .build/obj_redox_rev1_base_ad_rev3/quantum/rgblight/rgblight.o
                0x0000000000003368                rgblight_decrease_speed_helper
 .text.rgblight_decrease_speed
                0x00000000000033a0        0x8 .build/obj_redox_rev1_base_ad_rev3/quantum/rgblight/rgblight.o
                0x00000000000033a0                rgblight_decrease_speed
 .text.rgblight_call_driver
                0x00000000000033a8        0x8 .build/obj_redox_rev1_base_ad_rev3/quantum/rgblight/rgblight.o
                0x00000000000033a8                rgblight_call_driver
 .text.rgblight_set
                0x00000000000033b0       0x4a .build/obj_redox_rev1_base_ad_rev3/quantum/rgblight/rgblight.o
                0x00000000000033b0                rgblight_set
 .text.rgblight_disable
                0x00000000000033fa       0x2c .build/obj_redox_rev1_base_ad_rev3/quantum/rgblight/rgblight.o
                0x00000000000033fa                rgblight_disable
 .text.rgblight_disable_noeeprom
                0x0000000000003426       0x1a .build/obj_redox_rev1_base_ad_rev3/quantum/rgblight/rgblight.o
                0x0000000000003426                rgblight_disable_noeeprom
 .text.rgblight_setrgb
                0x0000000000003440       0x36 .build/obj_redox_rev1_base_ad_rev3/quantum/rgblight/rgblight.o
                0x0000000000003440                rgblight_setrgb
 .text.rgblight_sethsv_eeprom_helper
                0x0000000000003476       0xa0 .build/obj_redox_rev1_base_ad_rev3/quantum/rgblight/rgblight.o
                0x0000000000003476                rgblight_sethsv_eeprom_helper
 .text.rgblight_increase_hue_helper
                0x0000000000003516       0x16 .build/obj_redox_rev1_base_ad_rev3/quantum/rgblight/rgblight.o
                0x0000000000003516                rgblight_increase_hue_helper
 .text.rgblight_increase_hue
                0x000000000000352c        0x8 .build/obj_redox_rev1_base_ad_rev3/quantum/rgblight/rgblight.o
                0x000000000000352c                rgblight_increase_hue
 .text.rgblight_decrease_hue_helper
                0x0000000000003534       0x16 .build/obj_redox_rev1_base_ad_rev3/quantum/rgblight/rgblight.o
                0x0000000000003534                rgblight_decrease_hue_helper
 .text.rgblight_decrease_hue
                0x000000000000354a        0x8 .build/obj_redox_rev1_base_ad_rev3/quantum/rgblight/rgblight.o
                0x000000000000354a                rgblight_decrease_hue
 .text.rgblight_increase_sat_helper
                0x0000000000003552       0x1a .build/obj_redox_rev1_base_ad_rev3/quantum/rgblight/rgblight.o
                0x0000000000003552                rgblight_increase_sat_helper
 .text.rgblight_increase_sat
                0x000000000000356c        0x8 .build/obj_redox_rev1_base_ad_rev3/quantum/rgblight/rgblight.o
                0x000000000000356c                rgblight_increase_sat
 .text.rgblight_decrease_sat_helper
                0x0000000000003574       0x1a .build/obj_redox_rev1_base_ad_rev3/quantum/rgblight/rgblight.o
                0x0000000000003574                rgblight_decrease_sat_helper
 .text.rgblight_decrease_sat
                0x000000000000358e        0x8 .build/obj_redox_rev1_base_ad_rev3/quantum/rgblight/rgblight.o
                0x000000000000358e                rgblight_decrease_sat
 .text.rgblight_increase_val_helper
                0x0000000000003596       0x1a .build/obj_redox_rev1_base_ad_rev3/quantum/rgblight/rgblight.o
                0x0000000000003596                rgblight_increase_val_helper
 .text.rgblight_increase_val
                0x00000000000035b0        0x8 .build/obj_redox_rev1_base_ad_rev3/quantum/rgblight/rgblight.o
                0x00000000000035b0                rgblight_increase_val
 .text.rgblight_decrease_val_helper
                0x00000000000035b8       0x1a .build/obj_redox_rev1_base_ad_rev3/quantum/rgblight/rgblight.o
                0x00000000000035b8                rgblight_decrease_val_helper
 .text.rgblight_decrease_val
                0x00000000000035d2        0x8 .build/obj_redox_rev1_base_ad_rev3/quantum/rgblight/rgblight.o
                0x00000000000035d2                rgblight_decrease_val
 .text.rgblight_sethsv_noeeprom
                0x00000000000035da        0x8 .build/obj_redox_rev1_base_ad_rev3/quantum/rgblight/rgblight.o
                0x00000000000035da                rgblight_sethsv_noeeprom
 .text.rgblight_mode_eeprom_helper
                0x00000000000035e2       0x50 .build/obj_redox_rev1_base_ad_rev3/quantum/rgblight/rgblight.o
                0x00000000000035e2                rgblight_mode_eeprom_helper
 .text.rgblight_step_helper
                0x0000000000003632        0xa .build/obj_redox_rev1_base_ad_rev3/quantum/rgblight/rgblight.o
                0x0000000000003632                rgblight_step_helper
 .text.rgblight_step
                0x000000000000363c        0x8 .build/obj_redox_rev1_base_ad_rev3/quantum/rgblight/rgblight.o
                0x000000000000363c                rgblight_step
 .text.rgblight_step_reverse_helper
                0x0000000000003644       0x18 .build/obj_redox_rev1_base_ad_rev3/quantum/rgblight/rgblight.o
                0x0000000000003644                rgblight_step_reverse_helper
 .text.rgblight_step_reverse
                0x000000000000365c        0x8 .build/obj_redox_rev1_base_ad_rev3/quantum/rgblight/rgblight.o
                0x000000000000365c                rgblight_step_reverse
 .text.rgblight_mode
                0x0000000000003664        0x8 .build/obj_redox_rev1_base_ad_rev3/quantum/rgblight/rgblight.o
                0x0000000000003664                rgblight_mode
 .text.rgblight_enable
                0x000000000000366c       0x14 .build/obj_redox_rev1_base_ad_rev3/quantum/rgblight/rgblight.o
                0x000000000000366c                rgblight_enable
 .text.rgblight_toggle
                0x0000000000003680       0x14 .build/obj_redox_rev1_base_ad_rev3/quantum/rgblight/rgblight.o
                0x0000000000003680                rgblight_toggle
 .text.rgblight_mode_noeeprom
                0x0000000000003694        0x8 .build/obj_redox_rev1_base_ad_rev3/quantum/rgblight/rgblight.o
                0x0000000000003694                rgblight_mode_noeeprom
 .text.rgblight_init
                0x000000000000369c       0x8e .build/obj_redox_rev1_base_ad_rev3/quantum/rgblight/rgblight.o
                0x000000000000369c                rgblight_init
 .text.rgblight_clear_change_flags
                0x000000000000372a        0x6 .build/obj_redox_rev1_base_ad_rev3/quantum/rgblight/rgblight.o
                0x000000000000372a                rgblight_clear_change_flags
 .text.rgblight_get_syncinfo
                0x0000000000003730       0x26 .build/obj_redox_rev1_base_ad_rev3/quantum/rgblight/rgblight.o
                0x0000000000003730                rgblight_get_syncinfo
 .text.rgblight_update_sync
                0x0000000000003756       0x4a .build/obj_redox_rev1_base_ad_rev3/quantum/rgblight/rgblight.o
                0x0000000000003756                rgblight_update_sync
 .text.preprocess_rgblight
                0x00000000000037a0        0x2 .build/obj_redox_rev1_base_ad_rev3/quantum/rgblight/rgblight.o
                0x00000000000037a0                preprocess_rgblight
 .text.rgblight_task
                0x00000000000037a2        0x2 .build/obj_redox_rev1_base_ad_rev3/quantum/rgblight/rgblight.o
                0x00000000000037a2                rgblight_task
 .text.handleKeycodeRGB
                0x00000000000037a4        0xe .build/obj_redox_rev1_base_ad_rev3/quantum/process_keycode/process_rgb.o
 .text.process_rgb
                0x00000000000037b2       0xac .build/obj_redox_rev1_base_ad_rev3/quantum/process_keycode/process_rgb.o
                0x00000000000037b2                process_rgb
 .text.process_unicode
                0x000000000000385e       0x1c .build/obj_redox_rev1_base_ad_rev3/quantum/process_keycode/process_unicode.o
                0x000000000000385e                process_unicode
 .text.process_unicode_common
                0x000000000000387a       0x6e .build/obj_redox_rev1_base_ad_rev3/quantum/process_keycode/process_unicode_common.o
                0x000000000000387a                process_unicode_common
 .text.send_nibble_wrapper
                0x00000000000038e8       0x2a .build/obj_redox_rev1_base_ad_rev3/quantum/unicode/unicode.o
 .text.unicode_input_mode_set_user
                0x0000000000003912        0x2 .build/obj_redox_rev1_base_ad_rev3/quantum/unicode/unicode.o
                0x0000000000003912                unicode_input_mode_set_user
 .text.unicode_input_mode_set_kb
                0x0000000000003914        0x6 .build/obj_redox_rev1_base_ad_rev3/quantum/unicode/unicode.o
                0x0000000000003914                unicode_input_mode_set_kb
 .text.cycle_unicode_input_mode
                0x000000000000391a       0x48 .build/obj_redox_rev1_base_ad_rev3/quantum/unicode/unicode.o
 .text.unicode_input_mode_init
                0x0000000000003962       0x3a .build/obj_redox_rev1_base_ad_rev3/quantum/unicode/unicode.o
                0x0000000000003962                unicode_input_mode_init
 .text.set_unicode_input_mode
                0x000000000000399c       0x1c .build/obj_redox_rev1_base_ad_rev3/quantum/unicode/unicode.o
                0x000000000000399c                set_unicode_input_mode
 .text.unicode_input_mode_step
                0x00000000000039b8        0x8 .build/obj_redox_rev1_base_ad_rev3/quantum/unicode/unicode.o
                0x00000000000039b8                unicode_input_mode_step
 .text.unicode_input_mode_step_reverse
                0x00000000000039c0        0x8 .build/obj_redox_rev1_base_ad_rev3/quantum/unicode/unicode.o
                0x00000000000039c0                unicode_input_mode_step_reverse
 .text.unicode_input_start
                0x00000000000039c8       0xac .build/obj_redox_rev1_base_ad_rev3/quantum/unicode/unicode.o
                0x00000000000039c8                unicode_input_start
 .text.unicode_input_finish
                0x0000000000003a74       0x64 .build/obj_redox_rev1_base_ad_rev3/quantum/unicode/unicode.o
                0x0000000000003a74                unicode_input_finish
 .text.register_hex32
                0x0000000000003ad8       0x8e .build/obj_redox_rev1_base_ad_rev3/quantum/unicode/unicode.o
                0x0000000000003ad8                register_hex32
 .text.register_unicode
                0x0000000000003b66       0x9e .build/obj_redox_rev1_base_ad_rev3/quantum/unicode/unicode.o
                0x0000000000003b66                register_unicode
 .text.ws2812_setleds
                0x0000000000003c04       0x56 .build/obj_redox_rev1_base_ad_rev3/ws2812_bitbang.o
                0x0000000000003c04                ws2812_setleds
 .text.mousekey_console
                0x0000000000003c5a      0x104 .build/obj_redox_rev1_base_ad_rev3/quantum/command.o
 .text.command_common
                0x0000000000003d5e      0x13c .build/obj_redox_rev1_base_ad_rev3/quantum/command.o
 .text.command_console_extra
                0x0000000000003e9a        0x4 .build/obj_redox_rev1_base_ad_rev3/quantum/command.o
                0x0000000000003e9a                command_console_extra
 .text.command_extra
                0x0000000000003e9e        0x6 .build/obj_redox_rev1_base_ad_rev3/quantum/command.o
                0x0000000000003e9e                command_extra
 .text.command_proc
                0x0000000000003ea4       0x92 .build/obj_redox_rev1_base_ad_rev3/quantum/command.o
                0x0000000000003ea4                command_proc
 .text.crc_init
                0x0000000000003f36        0x2 .build/obj_redox_rev1_base_ad_rev3/quantum/crc.o
                0x0000000000003f36                crc_init
 .text.crc8     0x0000000000003f38       0x2e .build/obj_redox_rev1_base_ad_rev3/quantum/crc.o
                0x0000000000003f38                crc8
 .text.process_grave_esc
                0x0000000000003f66       0x54 .build/obj_redox_rev1_base_ad_rev3/quantum/process_keycode/process_grave_esc.o
                0x0000000000003f66                process_grave_esc
 .text.process_magic
                0x0000000000003fba      0x1d4 .build/obj_redox_rev1_base_ad_rev3/quantum/process_keycode/process_magic.o
                0x0000000000003fba                process_magic
 .text.times_inv_sqrt2
                0x000000000000418e       0x1c .build/obj_redox_rev1_base_ad_rev3/quantum/mousekey.o
 .text.move_unit
                0x00000000000041aa       0x7e .build/obj_redox_rev1_base_ad_rev3/quantum/mousekey.o
 .text.wheel_unit
                0x0000000000004228       0x72 .build/obj_redox_rev1_base_ad_rev3/quantum/mousekey.o
 .text.mousekey_on
                0x000000000000429a       0xe2 .build/obj_redox_rev1_base_ad_rev3/quantum/mousekey.o
                0x000000000000429a                mousekey_on
 .text.mousekey_off
                0x000000000000437c       0xee .build/obj_redox_rev1_base_ad_rev3/quantum/mousekey.o
                0x000000000000437c                mousekey_off
 .text.mousekey_send
                0x000000000000446a       0x3e .build/obj_redox_rev1_base_ad_rev3/quantum/mousekey.o
                0x000000000000446a                mousekey_send
 .text.mousekey_clear
                0x00000000000044a8       0x1c .build/obj_redox_rev1_base_ad_rev3/quantum/mousekey.o
                0x00000000000044a8                mousekey_clear
 .text.should_mousekey_report_send
                0x00000000000044c4       0x28 .build/obj_redox_rev1_base_ad_rev3/quantum/mousekey.o
                0x00000000000044c4                should_mousekey_report_send
 .text.mousekey_task
                0x00000000000044ec      0x1dc .build/obj_redox_rev1_base_ad_rev3/quantum/mousekey.o
                0x00000000000044ec                mousekey_task
 .text.send_char
                0x00000000000046c8       0xba .build/obj_redox_rev1_base_ad_rev3/quantum/send_string/send_string.o
                0x00000000000046c8                send_char
 .text.send_nibble
                0x0000000000004782       0x16 .build/obj_redox_rev1_base_ad_rev3/quantum/send_string/send_string.o
                0x0000000000004782                send_nibble
 .text.send_string_with_delay_P
                0x0000000000004798       0xd6 .build/obj_redox_rev1_base_ad_rev3/quantum/send_string/send_string.o
                0x0000000000004798                send_string_with_delay_P
 .text.perform_space_cadet
                0x000000000000486e       0xd2 .build/obj_redox_rev1_base_ad_rev3/quantum/process_keycode/process_space_cadet.o
                0x000000000000486e                perform_space_cadet
 .text.process_space_cadet
                0x0000000000004940       0x86 .build/obj_redox_rev1_base_ad_rev3/quantum/process_keycode/process_space_cadet.o
                0x0000000000004940                process_space_cadet
 .text._process_tap_dance_action_fn
                0x00000000000049c6        0xc .build/obj_redox_rev1_base_ad_rev3/quantum/process_keycode/process_tap_dance.o
 .text.process_tap_dance_action_on_reset
                0x00000000000049d2       0x32 .build/obj_redox_rev1_base_ad_rev3/quantum/process_keycode/process_tap_dance.o
 .text.process_tap_dance_action_on_dance_finished
                0x0000000000004a04       0x48 .build/obj_redox_rev1_base_ad_rev3/quantum/process_keycode/process_tap_dance.o
 .text.preprocess_tap_dance
                0x0000000000004a4c       0x56 .build/obj_redox_rev1_base_ad_rev3/quantum/process_keycode/process_tap_dance.o
                0x0000000000004a4c                preprocess_tap_dance
 .text.process_tap_dance
                0x0000000000004aa2       0xd8 .build/obj_redox_rev1_base_ad_rev3/quantum/process_keycode/process_tap_dance.o
                0x0000000000004aa2                process_tap_dance
 .text.tap_dance_task
                0x0000000000004b7a       0x48 .build/obj_redox_rev1_base_ad_rev3/quantum/process_keycode/process_tap_dance.o
                0x0000000000004b7a                tap_dance_task
 .text.host_set_driver
                0x0000000000004bc2        0xa .build/obj_redox_rev1_base_ad_rev3/protocol/host.o
                0x0000000000004bc2                host_set_driver
 .text.host_keyboard_leds
                0x0000000000004bcc       0x28 .build/obj_redox_rev1_base_ad_rev3/protocol/host.o
                0x0000000000004bcc                host_keyboard_leds
 .text.host_keyboard_led_state
                0x0000000000004bf4        0x6 .build/obj_redox_rev1_base_ad_rev3/protocol/host.o
                0x0000000000004bf4                host_keyboard_led_state
 .text.host_keyboard_send
                0x0000000000004bfa       0x16 .build/obj_redox_rev1_base_ad_rev3/protocol/host.o
                0x0000000000004bfa                host_keyboard_send
 .text.host_mouse_send
                0x0000000000004c10       0x1c .build/obj_redox_rev1_base_ad_rev3/protocol/host.o
                0x0000000000004c10                host_mouse_send
 .text.host_system_send
                0x0000000000004c2c       0x4a .build/obj_redox_rev1_base_ad_rev3/protocol/host.o
                0x0000000000004c2c                host_system_send
 .text.host_consumer_send
                0x0000000000004c76       0x4a .build/obj_redox_rev1_base_ad_rev3/protocol/host.o
                0x0000000000004c76                host_consumer_send
 .text.has_anykey
                0x0000000000004cc0       0x1e .build/obj_redox_rev1_base_ad_rev3/protocol/report.o
                0x0000000000004cc0                has_anykey
 .text.is_key_pressed
                0x0000000000004cde       0x28 .build/obj_redox_rev1_base_ad_rev3/protocol/report.o
                0x0000000000004cde                is_key_pressed
 .text.add_key_byte
                0x0000000000004d06       0x34 .build/obj_redox_rev1_base_ad_rev3/protocol/report.o
                0x0000000000004d06                add_key_byte
 .text.del_key_byte
                0x0000000000004d3a       0x1a .build/obj_redox_rev1_base_ad_rev3/protocol/report.o
                0x0000000000004d3a                del_key_byte
 .text.add_key_to_report
                0x0000000000004d54       0x10 .build/obj_redox_rev1_base_ad_rev3/protocol/report.o
                0x0000000000004d54                add_key_to_report
 .text.del_key_from_report
                0x0000000000004d64       0x10 .build/obj_redox_rev1_base_ad_rev3/protocol/report.o
                0x0000000000004d64                del_key_from_report
 .text.clear_keys_from_report
                0x0000000000004d74       0x16 .build/obj_redox_rev1_base_ad_rev3/protocol/report.o
                0x0000000000004d74                clear_keys_from_report
 .text.has_mouse_report_changed
                0x0000000000004d8a       0x5c .build/obj_redox_rev1_base_ad_rev3/protocol/report.o
                0x0000000000004d8a                has_mouse_report_changed
 .text.notify_usb_device_state_change_user
                0x0000000000004de6        0x2 .build/obj_redox_rev1_base_ad_rev3/protocol/usb_device_state.o
                0x0000000000004de6                notify_usb_device_state_change_user
 .text.notify_usb_device_state_change_kb
                0x0000000000004de8        0x6 .build/obj_redox_rev1_base_ad_rev3/protocol/usb_device_state.o
                0x0000000000004de8                notify_usb_device_state_change_kb
 .text.usb_device_state_set_suspend
                0x0000000000004dee        0xc .build/obj_redox_rev1_base_ad_rev3/protocol/usb_device_state.o
                0x0000000000004dee                usb_device_state_set_suspend
 .text.usb_device_state_set_resume
                0x0000000000004dfa       0x14 .build/obj_redox_rev1_base_ad_rev3/protocol/usb_device_state.o
                0x0000000000004dfa                usb_device_state_set_resume
 .text.usb_device_state_set_configuration
                0x0000000000004e0e        0x6 .build/obj_redox_rev1_base_ad_rev3/protocol/usb_device_state.o
                0x0000000000004e0e                usb_device_state_set_configuration
 .text.usb_device_state_init
                0x0000000000004e14        0xc .build/obj_redox_rev1_base_ad_rev3/protocol/usb_device_state.o
                0x0000000000004e14                usb_device_state_init
 .text.usb_device_state_set_reset
                0x0000000000004e20        0x6 .build/obj_redox_rev1_base_ad_rev3/protocol/usb_device_state.o
                0x0000000000004e20                usb_device_state_set_reset
 .text.suspend_wakeup_init_user
                0x0000000000004e26        0x2 .build/obj_redox_rev1_base_ad_rev3/platforms/suspend.o
                0x0000000000004e26                suspend_wakeup_init_user
 .text.suspend_power_down_user
                0x0000000000004e28        0x6 .build/obj_redox_rev1_base_ad_rev3/platforms/suspend.o
                0x0000000000004e28                suspend_power_down_user
 .text.suspend_power_down_kb
                0x0000000000004e2e        0x6 .build/obj_redox_rev1_base_ad_rev3/platforms/suspend.o
                0x0000000000004e2e                suspend_power_down_kb
 .text.matrix_power_down
                0x0000000000004e34        0x6 .build/obj_redox_rev1_base_ad_rev3/platforms/suspend.o
                0x0000000000004e34                matrix_power_down
 .text.matrix_power_up
                0x0000000000004e3a        0x6 .build/obj_redox_rev1_base_ad_rev3/platforms/suspend.o
                0x0000000000004e3a                matrix_power_up
 .text.suspend_wakeup_init_kb
                0x0000000000004e40        0x6 .build/obj_redox_rev1_base_ad_rev3/platforms/suspend.o
                0x0000000000004e40                suspend_wakeup_init_kb
 .text.suspend_wakeup_condition
                0x0000000000004e46       0x28 .build/obj_redox_rev1_base_ad_rev3/platforms/suspend.o
                0x0000000000004e46                suspend_wakeup_condition
 .text.platform_setup
                0x0000000000004e6e        0xe .build/obj_redox_rev1_base_ad_rev3/platforms/avr/platform.o
                0x0000000000004e6e                platform_setup
 .text.__vector_12
                0x0000000000004e7c       0x52 .build/obj_redox_rev1_base_ad_rev3/platforms/avr/suspend.o
                0x0000000000004e7c                __vector_12
 .text.suspend_power_down
                0x0000000000004ece       0x56 .build/obj_redox_rev1_base_ad_rev3/platforms/avr/suspend.o
                0x0000000000004ece                suspend_power_down
 .text.suspend_wakeup_init
                0x0000000000004f24        0xa .build/obj_redox_rev1_base_ad_rev3/platforms/avr/suspend.o
                0x0000000000004f24                suspend_wakeup_init
 .text.timer_init
                0x0000000000004f2e       0x12 .build/obj_redox_rev1_base_ad_rev3/platforms/avr/timer.o
                0x0000000000004f2e                timer_init
 .text.timer_read
                0x0000000000004f40       0x18 .build/obj_redox_rev1_base_ad_rev3/platforms/avr/timer.o
                0x0000000000004f40                timer_read
 .text.timer_read32
                0x0000000000004f58       0x18 .build/obj_redox_rev1_base_ad_rev3/platforms/avr/timer.o
                0x0000000000004f58                timer_read32
 .text.timer_elapsed
                0x0000000000004f70       0x1e .build/obj_redox_rev1_base_ad_rev3/platforms/avr/timer.o
                0x0000000000004f70                timer_elapsed
 .text.timer_elapsed32
                0x0000000000004f8e       0x38 .build/obj_redox_rev1_base_ad_rev3/platforms/avr/timer.o
                0x0000000000004f8e                timer_elapsed32
 .text.__vector_21
                0x0000000000004fc6       0x4c .build/obj_redox_rev1_base_ad_rev3/platforms/avr/timer.o
                0x0000000000004fc6                __vector_21
 .text.bootloader_jump
                0x0000000000005012       0x22 .build/obj_redox_rev1_base_ad_rev3/platforms/avr/bootloaders/caterina.o
                0x0000000000005012                bootloader_jump
 .text.mcu_reset
                0x0000000000005034       0x16 .build/obj_redox_rev1_base_ad_rev3/platforms/avr/bootloaders/caterina.o
                0x0000000000005034                mcu_reset
 .text.sync_recv
                0x000000000000504a       0x10 .build/obj_redox_rev1_base_ad_rev3/serial.a(serial.o)
 .text.sync_send
                0x000000000000505a        0xc .build/obj_redox_rev1_base_ad_rev3/serial.a(serial.o)
 .text.serial_read_chunk.constprop.0
                0x0000000000005066       0x4c .build/obj_redox_rev1_base_ad_rev3/serial.a(serial.o)
 .text.serial_recive_packet
                0x00000000000050b2       0x40 .build/obj_redox_rev1_base_ad_rev3/serial.a(serial.o)
 .text.soft_serial_initiator_init
                0x00000000000050f2        0x6 .build/obj_redox_rev1_base_ad_rev3/serial.a(serial.o)
                0x00000000000050f2                soft_serial_initiator_init
 .text.soft_serial_target_init
                0x00000000000050f8       0x12 .build/obj_redox_rev1_base_ad_rev3/serial.a(serial.o)
                0x00000000000050f8                soft_serial_target_init
 .text.serial_write_chunk
                0x000000000000510a       0x40 .build/obj_redox_rev1_base_ad_rev3/serial.a(serial.o)
                0x000000000000510a                serial_write_chunk
 .text.serial_send_packet
                0x000000000000514a       0x32 .build/obj_redox_rev1_base_ad_rev3/serial.a(serial.o)
 .text.__vector_1
                0x000000000000517c      0x14c .build/obj_redox_rev1_base_ad_rev3/serial.a(serial.o)
                0x000000000000517c                __vector_1
 .text.soft_serial_transaction
                0x00000000000052c8       0xf6 .build/obj_redox_rev1_base_ad_rev3/serial.a(serial.o)
                0x00000000000052c8                soft_serial_transaction
 .text.keyboard_leds
                0x00000000000053be        0x6 .build/obj_redox_rev1_base_ad_rev3/lufa.o
 .text.send_nkro
                0x00000000000053c4        0x2 .build/obj_redox_rev1_base_ad_rev3/lufa.o
 .text.send_report
                0x00000000000053c6       0x48 .build/obj_redox_rev1_base_ad_rev3/lufa.o
                0x00000000000053c6                send_report
 .text.send_extra
                0x000000000000540e        0xe .build/obj_redox_rev1_base_ad_rev3/lufa.o
 .text.send_mouse
                0x000000000000541c        0xe .build/obj_redox_rev1_base_ad_rev3/lufa.o
 .text.send_keyboard
                0x000000000000542a       0x28 .build/obj_redox_rev1_base_ad_rev3/lufa.o
 .text.EVENT_USB_Device_Connect
                0x0000000000005452       0x1c .build/obj_redox_rev1_base_ad_rev3/lufa.o
                0x0000000000005452                EVENT_USB_Device_Connect
 .text.EVENT_USB_Device_Disconnect
                0x000000000000546e        0x6 .build/obj_redox_rev1_base_ad_rev3/lufa.o
                0x000000000000546e                EVENT_USB_Device_Disconnect
 .text.EVENT_USB_Device_Reset
                0x0000000000005474        0x6 .build/obj_redox_rev1_base_ad_rev3/lufa.o
                0x0000000000005474                EVENT_USB_Device_Reset
 .text.EVENT_USB_Device_Suspend
                0x000000000000547a       0x12 .build/obj_redox_rev1_base_ad_rev3/lufa.o
                0x000000000000547a                EVENT_USB_Device_Suspend
 .text.EVENT_USB_Device_WakeUp
                0x000000000000548c       0x16 .build/obj_redox_rev1_base_ad_rev3/lufa.o
                0x000000000000548c                EVENT_USB_Device_WakeUp
 .text.EVENT_USB_Device_ConfigurationChanged
                0x00000000000054a2       0x2a .build/obj_redox_rev1_base_ad_rev3/lufa.o
                0x00000000000054a2                EVENT_USB_Device_ConfigurationChanged
 .text.EVENT_USB_Device_ControlRequest
                0x00000000000054cc      0x17e .build/obj_redox_rev1_base_ad_rev3/lufa.o
                0x00000000000054cc                EVENT_USB_Device_ControlRequest
 .text.protocol_setup
                0x000000000000564a       0x34 .build/obj_redox_rev1_base_ad_rev3/lufa.o
                0x000000000000564a                protocol_setup
 .text.protocol_pre_init
                0x000000000000567e       0x1a .build/obj_redox_rev1_base_ad_rev3/lufa.o
                0x000000000000567e                protocol_pre_init
 .text.protocol_post_init
                0x0000000000005698        0xa .build/obj_redox_rev1_base_ad_rev3/lufa.o
                0x0000000000005698                protocol_post_init
 .text.protocol_pre_task
                0x00000000000056a2       0x34 .build/obj_redox_rev1_base_ad_rev3/lufa.o
                0x00000000000056a2                protocol_pre_task
 .text.protocol_post_task
                0x00000000000056d6        0x2 .build/obj_redox_rev1_base_ad_rev3/lufa.o
                0x00000000000056d6                protocol_post_task
 .text.CALLBACK_USB_GetDescriptor
                0x00000000000056d8       0x10 .build/obj_redox_rev1_base_ad_rev3/lufa.o
                0x00000000000056d8                CALLBACK_USB_GetDescriptor
 .text.get_usb_descriptor
                0x00000000000056e8       0xb2 .build/obj_redox_rev1_base_ad_rev3/usb_descriptor.o
                0x00000000000056e8                get_usb_descriptor
 .text.USB_Device_SendRemoteWakeup
                0x000000000000579a       0x2c .build/obj_redox_rev1_base_ad_rev3/lib/lufa/LUFA/Drivers/USB/Core/AVR8/Device_AVR8.o
                0x000000000000579a                USB_Device_SendRemoteWakeup
 .text.Endpoint_Write_Stream_LE
                0x00000000000057c6       0x8a .build/obj_redox_rev1_base_ad_rev3/lib/lufa/LUFA/Drivers/USB/Core/AVR8/EndpointStream_AVR8.o
                0x00000000000057c6                Endpoint_Write_Stream_LE
 .text.Endpoint_Write_Control_Stream_LE
                0x0000000000005850       0xbc .build/obj_redox_rev1_base_ad_rev3/lib/lufa/LUFA/Drivers/USB/Core/AVR8/EndpointStream_AVR8.o
                0x0000000000005850                Endpoint_Write_Control_Stream_LE
 .text.Endpoint_Write_Control_PStream_LE
                0x000000000000590c       0xc2 .build/obj_redox_rev1_base_ad_rev3/lib/lufa/LUFA/Drivers/USB/Core/AVR8/EndpointStream_AVR8.o
                0x000000000000590c                Endpoint_Write_Control_PStream_LE
 .text.Endpoint_ConfigureEndpoint_Prv
                0x00000000000059ce       0x6a .build/obj_redox_rev1_base_ad_rev3/lib/lufa/LUFA/Drivers/USB/Core/AVR8/Endpoint_AVR8.o
                0x00000000000059ce                Endpoint_ConfigureEndpoint_Prv
 .text.Endpoint_ClearStatusStage
                0x0000000000005a38       0x3e .build/obj_redox_rev1_base_ad_rev3/lib/lufa/LUFA/Drivers/USB/Core/AVR8/Endpoint_AVR8.o
                0x0000000000005a38                Endpoint_ClearStatusStage
 .text.Endpoint_WaitUntilReady
                0x0000000000005a76       0x66 .build/obj_redox_rev1_base_ad_rev3/lib/lufa/LUFA/Drivers/USB/Core/AVR8/Endpoint_AVR8.o
                0x0000000000005a76                Endpoint_WaitUntilReady
 .text.USB_Disable
                0x0000000000005adc       0x34 .build/obj_redox_rev1_base_ad_rev3/lib/lufa/LUFA/Drivers/USB/Core/AVR8/USBController_AVR8.o
                0x0000000000005adc                USB_Disable
 .text.USB_ResetInterface
                0x0000000000005b10       0x86 .build/obj_redox_rev1_base_ad_rev3/lib/lufa/LUFA/Drivers/USB/Core/AVR8/USBController_AVR8.o
                0x0000000000005b10                USB_ResetInterface
 .text.USB_Init
                0x0000000000005b96       0x24 .build/obj_redox_rev1_base_ad_rev3/lib/lufa/LUFA/Drivers/USB/Core/AVR8/USBController_AVR8.o
                0x0000000000005b96                USB_Init
 .text.USB_INT_DisableAllInterrupts
                0x0000000000005bba       0x10 .build/obj_redox_rev1_base_ad_rev3/lib/lufa/LUFA/Drivers/USB/Core/AVR8/USBInterrupt_AVR8.o
                0x0000000000005bba                USB_INT_DisableAllInterrupts
 .text.USB_INT_ClearAllInterrupts
                0x0000000000005bca        0xa .build/obj_redox_rev1_base_ad_rev3/lib/lufa/LUFA/Drivers/USB/Core/AVR8/USBInterrupt_AVR8.o
                0x0000000000005bca                USB_INT_ClearAllInterrupts
 .text.__vector_10
                0x0000000000005bd4      0x1a4 .build/obj_redox_rev1_base_ad_rev3/lib/lufa/LUFA/Drivers/USB/Core/AVR8/USBInterrupt_AVR8.o
                0x0000000000005bd4                __vector_10
 .text.__vector_11
                0x0000000000005d78       0x88 .build/obj_redox_rev1_base_ad_rev3/lib/lufa/LUFA/Drivers/USB/Core/AVR8/USBInterrupt_AVR8.o
                0x0000000000005d78                __vector_11
 .text.USB_Device_ProcessControlRequest
                0x0000000000005e00      0x2aa .build/obj_redox_rev1_base_ad_rev3/lib/lufa/LUFA/Drivers/USB/Core/DeviceStandardReq.o
                0x0000000000005e00                USB_Device_ProcessControlRequest
 .text.USB_Event_Stub
                0x00000000000060aa        0x2 .build/obj_redox_rev1_base_ad_rev3/lib/lufa/LUFA/Drivers/USB/Core/Events.o
                0x00000000000060aa                USB_Event_Stub
                0x00000000000060aa                EVENT_USB_Device_StartOfFrame
 .text.USB_USBTask
                0x00000000000060ac       0x36 .build/obj_redox_rev1_base_ad_rev3/lib/lufa/LUFA/Drivers/USB/Core/USBTask.o
                0x00000000000060ac                USB_USBTask
 .text.usb_disconnect
                0x00000000000060e2        0xa .build/obj_redox_rev1_base_ad_rev3/protocol/lufa/usb_util.o
                0x00000000000060e2                usb_disconnect
 .text.usb_vbus_state
                0x00000000000060ec       0x1a .build/obj_redox_rev1_base_ad_rev3/protocol/lufa/usb_util.o
                0x00000000000060ec                usb_vbus_state
 .text.libgcc.div
                0x0000000000006106       0x28 /usr/lib/gcc/avr/5.4.0/avr5/libgcc.a(_udivmodhi4.o)
                0x0000000000006106                __udivmodhi4
 .text.libgcc.div
                0x000000000000612e       0x28 /usr/lib/gcc/avr/5.4.0/avr5/libgcc.a(_divmodhi4.o)
                0x000000000000612e                __divmodhi4
                0x000000000000612e                _div
 .text.libgcc   0x0000000000006156        0xc /usr/lib/gcc/avr/5.4.0/avr5/libgcc.a(_tablejump2.o)
                0x0000000000006156                __tablejump2__
 .text.libgcc.prologue
                0x0000000000006162       0x38 /usr/lib/gcc/avr/5.4.0/avr5/libgcc.a(_prologue.o)
                0x0000000000006162                __prologue_saves__
 .text.libgcc.prologue
                0x000000000000619a       0x36 /usr/lib/gcc/avr/5.4.0/avr5/libgcc.a(_epilogue.o)
                0x000000000000619a                __epilogue_restores__
 .text.libgcc.builtins
                0x00000000000061d0       0x32 /usr/lib/gcc/avr/5.4.0/avr5/libgcc.a(_ashldi3.o)
                0x00000000000061d0                __ashldi3
 .text.libgcc.builtins
                0x0000000000006202       0x3c /usr/lib/gcc/avr/5.4.0/avr5/libgcc.a(_ashrdi3.o)
                0x0000000000006202                __ashrdi3
                0x0000000000006206                __lshrdi3
 .text.avr-libc
                0x000000000000623e       0x1a /usr/lib/gcc/avr/5.4.0/../../../avr/lib/avr5/libc.a(memcmp.o)
                0x000000000000623e                memcmp
 .text.avr-libc
                0x0000000000006258       0x12 /usr/lib/gcc/avr/5.4.0/../../../avr/lib/avr5/libc.a(memcpy.o)
                0x0000000000006258                memcpy
 .text.avr-libc
                0x000000000000626a       0x10 /usr/lib/gcc/avr/5.4.0/../../../avr/lib/avr5/libatmega32u4.a(eerd_byte.o)
                0x000000000000626a                eeprom_read_byte
 .text.avr-libc
                0x000000000000627a        0xc /usr/lib/gcc/avr/5.4.0/../../../avr/lib/avr5/libatmega32u4.a(eerd_dword.o)
                0x000000000000627a                eeprom_read_dword
                0x000000000000627a                eeprom_read_float
 .text.avr-libc
                0x0000000000006286        0xc /usr/lib/gcc/avr/5.4.0/../../../avr/lib/avr5/libatmega32u4.a(eerd_word.o)
                0x0000000000006286                eeprom_read_word
 .text.avr-libc
                0x0000000000006292       0x20 /usr/lib/gcc/avr/5.4.0/../../../avr/lib/avr5/libatmega32u4.a(eeupd_block.o)
                0x0000000000006292                eeprom_update_block
 .text.avr-libc
                0x00000000000062b2       0x24 /usr/lib/gcc/avr/5.4.0/../../../avr/lib/avr5/libatmega32u4.a(eeupd_byte.o)
                0x00000000000062b2                eeprom_update_byte
                0x00000000000062b4                eeprom_update_r18
 .text.avr-libc
                0x00000000000062d6       0x18 /usr/lib/gcc/avr/5.4.0/../../../avr/lib/avr5/libatmega32u4.a(eeupd_dword.o)
                0x00000000000062d6                eeprom_update_dword
                0x00000000000062d6                eeprom_update_float
 .text.avr-libc
                0x00000000000062ee        0xc /usr/lib/gcc/avr/5.4.0/../../../avr/lib/avr5/libatmega32u4.a(eeupd_word.o)
                0x00000000000062ee                eeprom_update_word
 .text.avr-libc
                0x00000000000062fa       0x20 /usr/lib/gcc/avr/5.4.0/../../../avr/lib/avr5/libatmega32u4.a(eerd_block.o)
                0x00000000000062fa                eeprom_read_block
                0x00000000000062fe                eeprom_read_blraw
                0x000000000000631a                . = ALIGN (0x2)
 *(.fini9)
 .fini9         0x000000000000631a        0x0 /usr/lib/gcc/avr/5.4.0/avr5/libgcc.a(_exit.o)
                0x000000000000631a                exit
                0x000000000000631a                _exit
 *(.fini9)
 *(.fini8)
 *(.fini8)
 *(.fini7)
 *(.fini7)
 *(.fini6)
 *(.fini6)
 *(.fini5)
 *(.fini5)
 *(.fini4)
 *(.fini4)
 *(.fini3)
 *(.fini3)
 *(.fini2)
 *(.fini2)
 *(.fini1)
 *(.fini1)
 *(.fini0)
 .fini0         0x000000000000631a        0x4 /usr/lib/gcc/avr/5.4.0/avr5/libgcc.a(_exit.o)
 *(.fini0)
                0x000000000000631e                _etext = .

.data           0x0000000000800100       0xc0 load address 0x000000000000631e
                0x0000000000800100                PROVIDE (__data_start, .)
 *(.data)
 *(.data*)
 .data.keyboard_report
                0x0000000000800100        0x2 .build/obj_redox_rev1_base_ad_rev3/quantum/action_util.o
                0x0000000000800100                keyboard_report
 .data.isLeftHand
                0x0000000000800102        0x1 .build/obj_redox_rev1_base_ad_rev3/quantum/split_common/split_util.o
                0x0000000000800102                isLeftHand
 .data.split_transaction_table
                0x0000000000800103       0x20 .build/obj_redox_rev1_base_ad_rev3/quantum/split_common/transactions.o
                0x0000000000800103                split_transaction_table
 .data.rgblight_ranges
                0x0000000000800123        0x5 .build/obj_redox_rev1_base_ad_rev3/quantum/rgblight/rgblight.o
                0x0000000000800123                rgblight_ranges
 .data.mk_wheel_time_to_max
                0x0000000000800128        0x1 .build/obj_redox_rev1_base_ad_rev3/quantum/mousekey.o
                0x0000000000800128                mk_wheel_time_to_max
 .data.mk_wheel_max_speed
                0x0000000000800129        0x1 .build/obj_redox_rev1_base_ad_rev3/quantum/mousekey.o
                0x0000000000800129                mk_wheel_max_speed
 .data.mk_wheel_interval
                0x000000000080012a        0x1 .build/obj_redox_rev1_base_ad_rev3/quantum/mousekey.o
                0x000000000080012a                mk_wheel_interval
 .data.mk_wheel_delay
                0x000000000080012b        0x1 .build/obj_redox_rev1_base_ad_rev3/quantum/mousekey.o
                0x000000000080012b                mk_wheel_delay
 .data.mk_time_to_max
                0x000000000080012c        0x1 .build/obj_redox_rev1_base_ad_rev3/quantum/mousekey.o
                0x000000000080012c                mk_time_to_max
 .data.mk_max_speed
                0x000000000080012d        0x1 .build/obj_redox_rev1_base_ad_rev3/quantum/mousekey.o
                0x000000000080012d                mk_max_speed
 .data.mk_interval
                0x000000000080012e        0x1 .build/obj_redox_rev1_base_ad_rev3/quantum/mousekey.o
                0x000000000080012e                mk_interval
 .data.mk_delay
                0x000000000080012f        0x1 .build/obj_redox_rev1_base_ad_rev3/quantum/mousekey.o
                0x000000000080012f                mk_delay
 .data.lufa_driver
                0x0000000000800130        0xa .build/obj_redox_rev1_base_ad_rev3/lufa.o
                0x0000000000800130                lufa_driver
 .data.keyboard_protocol
                0x000000000080013a        0x1 .build/obj_redox_rev1_base_ad_rev3/lufa.o
                0x000000000080013a                keyboard_protocol
 *(.gnu.linkonce.d*)
 *(.rodata)
 *(.rodata*)
 .rodata.CSWTCH.11
                0x000000000080013b       0x36 .build/obj_redox_rev1_base_ad_rev3/quantum/action.o
 .rodata.CSWTCH.9
                0x0000000000800171        0x3 .build/obj_redox_rev1_base_ad_rev3/quantum/action.o
 .rodata.CSWTCH.4
                0x0000000000800174       0x36 .build/obj_redox_rev1_base_ad_rev3/quantum/keymap_common.o
 .rodata.CSWTCH.2
                0x00000000008001aa        0x3 .build/obj_redox_rev1_base_ad_rev3/quantum/keymap_common.o
 .rodata.col_pins
                0x00000000008001ad        0x7 .build/obj_redox_rev1_base_ad_rev3/quantum/matrix.o
 .rodata.row_pins
                0x00000000008001b4        0x5 .build/obj_redox_rev1_base_ad_rev3/quantum/matrix.o
 .rodata.split_shmem
                0x00000000008001b9        0x2 .build/obj_redox_rev1_base_ad_rev3/quantum/split_common/transport.o
                0x00000000008001b9                split_shmem
 .rodata.mode_base_table
                0x00000000008001bb        0x2 .build/obj_redox_rev1_base_ad_rev3/quantum/rgblight/rgblight.o
 .rodata.selected
                0x00000000008001bd        0x3 .build/obj_redox_rev1_base_ad_rev3/quantum/unicode/unicode.o
 *(.gnu.linkonce.r*)
                0x00000000008001c0                . = ALIGN (0x2)
                0x00000000008001c0                _edata = .
                0x00000000008001c0                PROVIDE (__data_end, .)

.bss            0x00000000008001c0      0x162
                0x00000000008001c0                PROVIDE (__bss_start, .)
 *(.bss)
 .bss           0x00000000008001c0        0x2 .build/obj_redox_rev1_base_ad_rev3/platforms/avr/xprintf.o
                0x00000000008001c0                xfunc_out
 *(.bss*)
 .bss.shift_held
                0x00000000008001c2        0x1 .build/obj_redox_rev1_base_ad_rev3/quantum/keymap_introspection.o
 .bss.tap_dance_actions
                0x00000000008001c3        0x0 .build/obj_redox_rev1_base_ad_rev3/quantum/keymap_introspection.o
                0x00000000008001c3                tap_dance_actions
 .bss.last_led_status.3454
                0x00000000008001c3        0x1 .build/obj_redox_rev1_base_ad_rev3/quantum/led.o
 .bss.last_led_modification_time
                0x00000000008001c4        0x4 .build/obj_redox_rev1_base_ad_rev3/quantum/led.o
 .bss.disable_action_cache
                0x00000000008001c8        0x1 .build/obj_redox_rev1_base_ad_rev3/quantum/action.o
                0x00000000008001c8                disable_action_cache
 .bss.source_layers_cache
                0x00000000008001c9       0x24 .build/obj_redox_rev1_base_ad_rev3/quantum/action_layer.o
                0x00000000008001c9                source_layers_cache
 .bss.layer_state
                0x00000000008001ed        0x2 .build/obj_redox_rev1_base_ad_rev3/quantum/action_layer.o
                0x00000000008001ed                layer_state
 .bss.default_layer_state
                0x00000000008001ef        0x2 .build/obj_redox_rev1_base_ad_rev3/quantum/action_layer.o
                0x00000000008001ef                default_layer_state
 .bss.waiting_buffer_tail
                0x00000000008001f1        0x1 .build/obj_redox_rev1_base_ad_rev3/quantum/action_tapping.o
 .bss.waiting_buffer_head
                0x00000000008001f2        0x1 .build/obj_redox_rev1_base_ad_rev3/quantum/action_tapping.o
 .bss.waiting_buffer
                0x00000000008001f3       0x38 .build/obj_redox_rev1_base_ad_rev3/quantum/action_tapping.o
 .bss.tapping_key
                0x000000000080022b        0x7 .build/obj_redox_rev1_base_ad_rev3/quantum/action_tapping.o
 .bss.last_report.4143
                0x0000000000800232        0x8 .build/obj_redox_rev1_base_ad_rev3/quantum/action_util.o
 .bss.oneshot_layer_data
                0x000000000080023a        0x1 .build/obj_redox_rev1_base_ad_rev3/quantum/action_util.o
 .bss.oneshot_locked_mods
                0x000000000080023b        0x1 .build/obj_redox_rev1_base_ad_rev3/quantum/action_util.o
 .bss.oneshot_mods
                0x000000000080023c        0x1 .build/obj_redox_rev1_base_ad_rev3/quantum/action_util.o
 .bss.__compound_literal.0
                0x000000000080023d        0x8 .build/obj_redox_rev1_base_ad_rev3/quantum/action_util.o
 .bss.weak_mods
                0x0000000000800245        0x1 .build/obj_redox_rev1_base_ad_rev3/quantum/action_util.o
 .bss.real_mods
                0x0000000000800246        0x1 .build/obj_redox_rev1_base_ad_rev3/quantum/action_util.o
 .bss.last_tick.4503
                0x0000000000800247        0x2 .build/obj_redox_rev1_base_ad_rev3/quantum/keyboard.o
 .bss.matrix_previous.4510
                0x0000000000800249        0xa .build/obj_redox_rev1_base_ad_rev3/quantum/keyboard.o
 .bss.last_matrix_modification_time
                0x0000000000800253        0x4 .build/obj_redox_rev1_base_ad_rev3/quantum/keyboard.o
 .bss.last_input_modification_time
                0x0000000000800257        0x4 .build/obj_redox_rev1_base_ad_rev3/quantum/keyboard.o
 .bss.debug_config
                0x000000000080025b        0x1 .build/obj_redox_rev1_base_ad_rev3/quantum/logging/debug.o
                0x000000000080025b                debug_config
 .bss.last_connected.4241
                0x000000000080025c        0x1 .build/obj_redox_rev1_base_ad_rev3/quantum/matrix_common.o
 .bss.debouncing_time
                0x000000000080025d        0x2 .build/obj_redox_rev1_base_ad_rev3/quantum/debounce/sym_defer_g.o
 .bss.debouncing
                0x000000000080025f        0x1 .build/obj_redox_rev1_base_ad_rev3/quantum/debounce/sym_defer_g.o
 .bss.connection_check_timer.4071
                0x0000000000800260        0x2 .build/obj_redox_rev1_base_ad_rev3/quantum/split_common/split_util.o
 .bss.split_config
                0x0000000000800262        0x2 .build/obj_redox_rev1_base_ad_rev3/quantum/split_common/split_util.o
 .bss.connection_errors
                0x0000000000800264        0x1 .build/obj_redox_rev1_base_ad_rev3/quantum/split_common/split_util.o
 .bss.shared_memory
                0x0000000000800265       0x15 .build/obj_redox_rev1_base_ad_rev3/quantum/split_common/transport.o
 .bss.last_sync_timer.4641
                0x000000000080027a        0x4 .build/obj_redox_rev1_base_ad_rev3/quantum/split_common/transactions.o
 .bss.last_matrix.4623
                0x000000000080027e        0x5 .build/obj_redox_rev1_base_ad_rev3/quantum/split_common/transactions.o
 .bss.last_update.4622
                0x0000000000800283        0x4 .build/obj_redox_rev1_base_ad_rev3/quantum/split_common/transactions.o
 .bss.last_update.4634
                0x0000000000800287        0x4 .build/obj_redox_rev1_base_ad_rev3/quantum/split_common/transactions.o
 .bss.last_update.4646
                0x000000000080028b        0x4 .build/obj_redox_rev1_base_ad_rev3/quantum/split_common/transactions.o
 .bss.is_rgblight_initialized
                0x000000000080028f        0x1 .build/obj_redox_rev1_base_ad_rev3/quantum/rgblight/rgblight.o
                0x000000000080028f                is_rgblight_initialized
 .bss.rgblight_status
                0x0000000000800290        0x3 .build/obj_redox_rev1_base_ad_rev3/quantum/rgblight/rgblight.o
                0x0000000000800290                rgblight_status
 .bss.selected_index
                0x0000000000800293        0x1 .build/obj_redox_rev1_base_ad_rev3/quantum/unicode/unicode.o
 .bss.pp.5334   0x0000000000800294        0x2 .build/obj_redox_rev1_base_ad_rev3/quantum/command.o
 .bss.param.5333
                0x0000000000800296        0x1 .build/obj_redox_rev1_base_ad_rev3/quantum/command.o
 .bss.command_state
                0x0000000000800297        0x1 .build/obj_redox_rev1_base_ad_rev3/quantum/command.o
                0x0000000000800297                command_state
 .bss.grave_esc_was_shifted
                0x0000000000800298        0x1 .build/obj_redox_rev1_base_ad_rev3/quantum/process_keycode/process_grave_esc.o
 .bss.last_timer_w
                0x0000000000800299        0x2 .build/obj_redox_rev1_base_ad_rev3/quantum/mousekey.o
 .bss.last_timer_c
                0x000000000080029b        0x2 .build/obj_redox_rev1_base_ad_rev3/quantum/mousekey.o
 .bss.mousekey_wheel_repeat
                0x000000000080029d        0x1 .build/obj_redox_rev1_base_ad_rev3/quantum/mousekey.o
 .bss.mousekey_repeat
                0x000000000080029e        0x1 .build/obj_redox_rev1_base_ad_rev3/quantum/mousekey.o
 .bss.mousekey_accel
                0x000000000080029f        0x1 .build/obj_redox_rev1_base_ad_rev3/quantum/mousekey.o
 .bss.mouse_report
                0x00000000008002a0        0x6 .build/obj_redox_rev1_base_ad_rev3/quantum/mousekey.o
 .bss.sc_timer  0x00000000008002a6        0x2 .build/obj_redox_rev1_base_ad_rev3/quantum/process_keycode/process_space_cadet.o
 .bss.sc_last   0x00000000008002a8        0x1 .build/obj_redox_rev1_base_ad_rev3/quantum/process_keycode/process_space_cadet.o
 .bss.last_tap_time
                0x00000000008002a9        0x2 .build/obj_redox_rev1_base_ad_rev3/quantum/process_keycode/process_tap_dance.o
 .bss.active_td
                0x00000000008002ab        0x2 .build/obj_redox_rev1_base_ad_rev3/quantum/process_keycode/process_tap_dance.o
 .bss.split_led_state
                0x00000000008002ad        0x1 .build/obj_redox_rev1_base_ad_rev3/protocol/host.o
                0x00000000008002ad                split_led_state
 .bss.last_consumer_usage
                0x00000000008002ae        0x2 .build/obj_redox_rev1_base_ad_rev3/protocol/host.o
 .bss.last_system_usage
                0x00000000008002b0        0x2 .build/obj_redox_rev1_base_ad_rev3/protocol/host.o
 .bss.driver    0x00000000008002b2        0x2 .build/obj_redox_rev1_base_ad_rev3/protocol/host.o
 .bss.usb_device_state
                0x00000000008002b4        0x1 .build/obj_redox_rev1_base_ad_rev3/protocol/usb_device_state.o
                0x00000000008002b4                usb_device_state
 .bss.wdt_timeout
                0x00000000008002b5        0x1 .build/obj_redox_rev1_base_ad_rev3/platforms/avr/suspend.o
 .bss.keyboard_report_sent
                0x00000000008002b6        0x8 .build/obj_redox_rev1_base_ad_rev3/lufa.o
 .bss.keyboard_led_state
                0x00000000008002be        0x1 .build/obj_redox_rev1_base_ad_rev3/lufa.o
 .bss.keyboard_idle
                0x00000000008002bf        0x1 .build/obj_redox_rev1_base_ad_rev3/lufa.o
                0x00000000008002bf                keyboard_idle
 *(COMMON)
 COMMON         0x00000000008002c0        0x4 .build/obj_redox_rev1_base_ad_rev3/quantum/sync_timer.o
                0x00000000008002c0                sync_timer_ms
 COMMON         0x00000000008002c4        0x2 .build/obj_redox_rev1_base_ad_rev3/quantum/bootmagic/magic.o
                0x00000000008002c4                keymap_config
 COMMON         0x00000000008002c6       0x16 .build/obj_redox_rev1_base_ad_rev3/quantum/matrix_common.o
                0x00000000008002c6                thatHand
                0x00000000008002c7                raw_matrix
                0x00000000008002d1                matrix
                0x00000000008002db                thisHand
 COMMON         0x00000000008002dc       0x32 .build/obj_redox_rev1_base_ad_rev3/quantum/rgblight/rgblight.o
                0x00000000008002dc                rgblight_config
                0x00000000008002e4                led
 COMMON         0x000000000080030e        0x3 .build/obj_redox_rev1_base_ad_rev3/quantum/unicode/unicode.o
                0x000000000080030e                unicode_saved_led_state
                0x000000000080030f                unicode_config
                0x0000000000800310                unicode_saved_mods
 COMMON         0x0000000000800311        0x4 .build/obj_redox_rev1_base_ad_rev3/platforms/avr/timer.o
                0x0000000000800311                timer_count
 COMMON         0x0000000000800315        0x3 .build/obj_redox_rev1_base_ad_rev3/lib/lufa/LUFA/Drivers/USB/Core/DeviceStandardReq.o
                0x0000000000800315                USB_Device_ConfigurationNumber
                0x0000000000800316                USB_Device_CurrentlySelfPowered
                0x0000000000800317                USB_Device_RemoteWakeupEnabled
 COMMON         0x0000000000800318        0xa .build/obj_redox_rev1_base_ad_rev3/lib/lufa/LUFA/Drivers/USB/Core/USBTask.o
                0x0000000000800318                USB_IsInitialized
                0x0000000000800319                USB_DeviceState
                0x000000000080031a                USB_ControlRequest
                0x0000000000800322                PROVIDE (__bss_end, .)
                0x000000000000631e                __data_load_start = LOADADDR (.data)
                0x00000000000063de                __data_load_end = (__data_load_start + SIZEOF (.data))

.noinit         0x0000000000800322        0x0
                [!provide]                        PROVIDE (__noinit_start, .)
 *(.noinit*)
                [!provide]                        PROVIDE (__noinit_end, .)
                0x0000000000800322                _end = .
                [!provide]                        PROVIDE (__heap_start, .)

.eeprom         0x0000000000810000        0x0
 *(.eeprom*)
                0x0000000000810000                __eeprom_end = .

.fuse
 *(.fuse)
 *(.lfuse)
 *(.hfuse)
 *(.efuse)

.lock
 *(.lock*)

.signature
 *(.signature*)

.user_signatures
 *(.user_signatures*)

.stab
 *(.stab)

.stabstr
 *(.stabstr)

.stab.excl
 *(.stab.excl)

.stab.exclstr
 *(.stab.exclstr)

.stab.index
 *(.stab.index)

.stab.indexstr
 *(.stab.indexstr)

.comment        0x0000000000000000       0x11
 *(.comment)
 .comment       0x0000000000000000       0x11 .build/obj_redox_rev1_base_ad_rev3/quantum/keymap_introspection.o
                                         0x12 (size before relaxing)
 .comment       0x0000000000000011       0x12 .build/obj_redox_rev1_base_ad_rev3/quantum/quantum.o
 .comment       0x0000000000000011       0x12 .build/obj_redox_rev1_base_ad_rev3/quantum/led.o
 .comment       0x0000000000000011       0x12 .build/obj_redox_rev1_base_ad_rev3/quantum/action.o
 .comment       0x0000000000000011       0x12 .build/obj_redox_rev1_base_ad_rev3/quantum/action_layer.o
 .comment       0x0000000000000011       0x12 .build/obj_redox_rev1_base_ad_rev3/quantum/action_tapping.o
 .comment       0x0000000000000011       0x12 .build/obj_redox_rev1_base_ad_rev3/quantum/action_util.o
 .comment       0x0000000000000011       0x12 .build/obj_redox_rev1_base_ad_rev3/quantum/eeconfig.o
 .comment       0x0000000000000011       0x12 .build/obj_redox_rev1_base_ad_rev3/quantum/keyboard.o
 .comment       0x0000000000000011       0x12 .build/obj_redox_rev1_base_ad_rev3/quantum/keymap_common.o
 .comment       0x0000000000000011       0x12 .build/obj_redox_rev1_base_ad_rev3/quantum/keycode_config.o
 .comment       0x0000000000000011       0x12 .build/obj_redox_rev1_base_ad_rev3/quantum/sync_timer.o
 .comment       0x0000000000000011       0x12 .build/obj_redox_rev1_base_ad_rev3/quantum/logging/debug.o
 .comment       0x0000000000000011       0x12 .build/obj_redox_rev1_base_ad_rev3/quantum/logging/sendchar.o
 .comment       0x0000000000000011       0x12 .build/obj_redox_rev1_base_ad_rev3/quantum/bootmagic/magic.o
 .comment       0x0000000000000011       0x12 .build/obj_redox_rev1_base_ad_rev3/quantum/matrix_common.o
 .comment       0x0000000000000011       0x12 .build/obj_redox_rev1_base_ad_rev3/quantum/matrix.o
 .comment       0x0000000000000011       0x12 .build/obj_redox_rev1_base_ad_rev3/quantum/debounce/sym_defer_g.o
 .comment       0x0000000000000011       0x12 .build/obj_redox_rev1_base_ad_rev3/quantum/split_common/split_util.o
 .comment       0x0000000000000011       0x12 .build/obj_redox_rev1_base_ad_rev3/quantum/split_common/transport.o
 .comment       0x0000000000000011       0x12 .build/obj_redox_rev1_base_ad_rev3/quantum/split_common/transactions.o
 .comment       0x0000000000000011       0x12 .build/obj_redox_rev1_base_ad_rev3/quantum/main.o
 .comment       0x0000000000000011       0x12 .build/obj_redox_rev1_base_ad_rev3/platforms/avr/printf.o
 .comment       0x0000000000000011       0x12 .build/obj_redox_rev1_base_ad_rev3/quantum/color.o
 .comment       0x0000000000000011       0x12 .build/obj_redox_rev1_base_ad_rev3/quantum/rgblight/rgblight.o
 .comment       0x0000000000000011       0x12 .build/obj_redox_rev1_base_ad_rev3/quantum/process_keycode/process_rgb.o
 .comment       0x0000000000000011       0x12 .build/obj_redox_rev1_base_ad_rev3/quantum/led_tables.o
 .comment       0x0000000000000011       0x12 .build/obj_redox_rev1_base_ad_rev3/quantum/process_keycode/process_unicode.o
 .comment       0x0000000000000011       0x12 .build/obj_redox_rev1_base_ad_rev3/quantum/process_keycode/process_unicode_common.o
 .comment       0x0000000000000011       0x12 .build/obj_redox_rev1_base_ad_rev3/quantum/unicode/unicode.o
 .comment       0x0000000000000011       0x12 .build/obj_redox_rev1_base_ad_rev3/ws2812_bitbang.o
 .comment       0x0000000000000011       0x12 .build/obj_redox_rev1_base_ad_rev3/quantum/command.o
 .comment       0x0000000000000011       0x12 .build/obj_redox_rev1_base_ad_rev3/quantum/crc.o
 .comment       0x0000000000000011       0x12 .build/obj_redox_rev1_base_ad_rev3/quantum/process_keycode/process_grave_esc.o
 .comment       0x0000000000000011       0x12 .build/obj_redox_rev1_base_ad_rev3/quantum/process_keycode/process_magic.o
 .comment       0x0000000000000011       0x12 .build/obj_redox_rev1_base_ad_rev3/quantum/mousekey.o
 .comment       0x0000000000000011       0x12 .build/obj_redox_rev1_base_ad_rev3/quantum/send_string/send_string.o
 .comment       0x0000000000000011       0x12 .build/obj_redox_rev1_base_ad_rev3/quantum/process_keycode/process_space_cadet.o
 .comment       0x0000000000000011       0x12 .build/obj_redox_rev1_base_ad_rev3/quantum/process_keycode/process_tap_dance.o
 .comment       0x0000000000000011       0x12 .build/obj_redox_rev1_base_ad_rev3/protocol/host.o
 .comment       0x0000000000000011       0x12 .build/obj_redox_rev1_base_ad_rev3/protocol/report.o
 .comment       0x0000000000000011       0x12 .build/obj_redox_rev1_base_ad_rev3/protocol/usb_device_state.o
 .comment       0x0000000000000011       0x12 .build/obj_redox_rev1_base_ad_rev3/platforms/suspend.o
 .comment       0x0000000000000011       0x12 .build/obj_redox_rev1_base_ad_rev3/platforms/avr/platform.o
 .comment       0x0000000000000011       0x12 .build/obj_redox_rev1_base_ad_rev3/platforms/avr/suspend.o
 .comment       0x0000000000000011       0x12 .build/obj_redox_rev1_base_ad_rev3/platforms/avr/timer.o
 .comment       0x0000000000000011       0x12 .build/obj_redox_rev1_base_ad_rev3/platforms/avr/bootloaders/caterina.o
 .comment       0x0000000000000011       0x12 .build/obj_redox_rev1_base_ad_rev3/serial.a(serial.o)
 .comment       0x0000000000000011       0x12 .build/obj_redox_rev1_base_ad_rev3/lufa.o
 .comment       0x0000000000000011       0x12 .build/obj_redox_rev1_base_ad_rev3/usb_descriptor.o
 .comment       0x0000000000000011       0x12 .build/obj_redox_rev1_base_ad_rev3/lib/lufa/LUFA/Drivers/USB/Core/AVR8/Device_AVR8.o
 .comment       0x0000000000000011       0x12 .build/obj_redox_rev1_base_ad_rev3/lib/lufa/LUFA/Drivers/USB/Core/AVR8/EndpointStream_AVR8.o
 .comment       0x0000000000000011       0x12 .build/obj_redox_rev1_base_ad_rev3/lib/lufa/LUFA/Drivers/USB/Core/AVR8/Endpoint_AVR8.o
 .comment       0x0000000000000011       0x12 .build/obj_redox_rev1_base_ad_rev3/lib/lufa/LUFA/Drivers/USB/Core/AVR8/USBController_AVR8.o
 .comment       0x0000000000000011       0x12 .build/obj_redox_rev1_base_ad_rev3/lib/lufa/LUFA/Drivers/USB/Core/AVR8/USBInterrupt_AVR8.o
 .comment       0x0000000000000011       0x12 .build/obj_redox_rev1_base_ad_rev3/lib/lufa/LUFA/Drivers/USB/Core/DeviceStandardReq.o
 .comment       0x0000000000000011       0x12 .build/obj_redox_rev1_base_ad_rev3/lib/lufa/LUFA/Drivers/USB/Core/Events.o
 .comment       0x0000000000000011       0x12 .build/obj_redox_rev1_base_ad_rev3/lib/lufa/LUFA/Drivers/USB/Core/USBTask.o
 .comment       0x0000000000000011       0x12 .build/obj_redox_rev1_base_ad_rev3/protocol/lufa/usb_util.o

.note.gnu.avr.deviceinfo
                0x0000000000000000       0x40
 .note.gnu.avr.deviceinfo
                0x0000000000000000       0x40 /usr/lib/gcc/avr/5.4.0/../../../avr/lib/avr5/crtatmega32u4.o

.note.gnu.build-id
 *(.note.gnu.build-id)

.debug
 *(.debug)

.line
 *(.line)

.debug_srcinfo
 *(.debug_srcinfo)

.debug_sfnames
 *(.debug_sfnames)

.debug_aranges  0x0000000000000000     0x15f0
 *(.debug_aranges)
 .debug_aranges
                0x0000000000000000       0x40 .build/obj_redox_rev1_base_ad_rev3/quantum/keymap_introspection.o
 .debug_aranges
                0x0000000000000040       0xf8 .build/obj_redox_rev1_base_ad_rev3/quantum/quantum.o
 .debug_aranges
                0x0000000000000138       0x70 .build/obj_redox_rev1_base_ad_rev3/quantum/led.o
 .debug_aranges
                0x00000000000001a8       0xe0 .build/obj_redox_rev1_base_ad_rev3/quantum/action.o
 .debug_aranges
                0x0000000000000288      0x100 .build/obj_redox_rev1_base_ad_rev3/quantum/action_layer.o
 .debug_aranges
                0x0000000000000388       0x48 .build/obj_redox_rev1_base_ad_rev3/quantum/action_tapping.o
 .debug_aranges
                0x00000000000003d0      0x168 .build/obj_redox_rev1_base_ad_rev3/quantum/action_util.o
 .debug_aranges
                0x0000000000000538       0xd8 .build/obj_redox_rev1_base_ad_rev3/quantum/eeconfig.o
 .debug_aranges
                0x0000000000000610       0xe0 .build/obj_redox_rev1_base_ad_rev3/quantum/keyboard.o
 .debug_aranges
                0x00000000000006f0       0x30 .build/obj_redox_rev1_base_ad_rev3/quantum/keymap_common.o
 .debug_aranges
                0x0000000000000720       0x28 .build/obj_redox_rev1_base_ad_rev3/quantum/keycode_config.o
 .debug_aranges
                0x0000000000000748       0x48 .build/obj_redox_rev1_base_ad_rev3/quantum/sync_timer.o
 .debug_aranges
                0x0000000000000790       0x18 .build/obj_redox_rev1_base_ad_rev3/quantum/logging/debug.o
 .debug_aranges
                0x00000000000007a8       0x20 .build/obj_redox_rev1_base_ad_rev3/quantum/logging/sendchar.o
 .debug_aranges
                0x00000000000007c8       0x28 .build/obj_redox_rev1_base_ad_rev3/quantum/bootmagic/magic.o
 .debug_aranges
                0x00000000000007f0       0xa0 .build/obj_redox_rev1_base_ad_rev3/quantum/matrix_common.o
 .debug_aranges
                0x0000000000000890       0x48 .build/obj_redox_rev1_base_ad_rev3/quantum/matrix.o
 .debug_aranges
                0x00000000000008d8       0x30 .build/obj_redox_rev1_base_ad_rev3/quantum/debounce/sym_defer_g.o
 .debug_aranges
                0x0000000000000908       0x58 .build/obj_redox_rev1_base_ad_rev3/quantum/split_common/split_util.o
 .debug_aranges
                0x0000000000000960       0x40 .build/obj_redox_rev1_base_ad_rev3/quantum/split_common/transport.o
 .debug_aranges
                0x00000000000009a0       0x48 .build/obj_redox_rev1_base_ad_rev3/quantum/split_common/transactions.o
 .debug_aranges
                0x00000000000009e8       0x30 .build/obj_redox_rev1_base_ad_rev3/quantum/main.o
 .debug_aranges
                0x0000000000000a18       0x20 .build/obj_redox_rev1_base_ad_rev3/platforms/avr/printf.o
 .debug_aranges
                0x0000000000000a38       0x30 .build/obj_redox_rev1_base_ad_rev3/quantum/color.o
 .debug_aranges
                0x0000000000000a68      0x2b0 .build/obj_redox_rev1_base_ad_rev3/quantum/rgblight/rgblight.o
 .debug_aranges
                0x0000000000000d18       0x28 .build/obj_redox_rev1_base_ad_rev3/quantum/process_keycode/process_rgb.o
 .debug_aranges
                0x0000000000000d40       0x18 .build/obj_redox_rev1_base_ad_rev3/quantum/led_tables.o
 .debug_aranges
                0x0000000000000d58       0x20 .build/obj_redox_rev1_base_ad_rev3/quantum/process_keycode/process_unicode.o
 .debug_aranges
                0x0000000000000d78       0x20 .build/obj_redox_rev1_base_ad_rev3/quantum/process_keycode/process_unicode_common.o
 .debug_aranges
                0x0000000000000d98       0x98 .build/obj_redox_rev1_base_ad_rev3/quantum/unicode/unicode.o
 .debug_aranges
                0x0000000000000e30       0x20 .build/obj_redox_rev1_base_ad_rev3/ws2812_bitbang.o
 .debug_aranges
                0x0000000000000e50       0x38 .build/obj_redox_rev1_base_ad_rev3/quantum/command.o
 .debug_aranges
                0x0000000000000e88       0x28 .build/obj_redox_rev1_base_ad_rev3/quantum/crc.o
 .debug_aranges
                0x0000000000000eb0       0x20 .build/obj_redox_rev1_base_ad_rev3/quantum/process_keycode/process_grave_esc.o
 .debug_aranges
                0x0000000000000ed0       0x20 .build/obj_redox_rev1_base_ad_rev3/quantum/process_keycode/process_magic.o
 .debug_aranges
                0x0000000000000ef0       0x68 .build/obj_redox_rev1_base_ad_rev3/quantum/mousekey.o
 .debug_aranges
                0x0000000000000f58       0x68 .build/obj_redox_rev1_base_ad_rev3/quantum/send_string/send_string.o
 .debug_aranges
                0x0000000000000fc0       0x28 .build/obj_redox_rev1_base_ad_rev3/quantum/process_keycode/process_space_cadet.o
 .debug_aranges
                0x0000000000000fe8       0x80 .build/obj_redox_rev1_base_ad_rev3/quantum/process_keycode/process_tap_dance.o
 .debug_aranges
                0x0000000000001068       0x80 .build/obj_redox_rev1_base_ad_rev3/protocol/host.o
 .debug_aranges
                0x00000000000010e8       0x60 .build/obj_redox_rev1_base_ad_rev3/protocol/report.o
 .debug_aranges
                0x0000000000001148       0x40 .build/obj_redox_rev1_base_ad_rev3/protocol/usb_device_state.o
 .debug_aranges
                0x0000000000001188       0x38 .build/obj_redox_rev1_base_ad_rev3/platforms/suspend.o
 .debug_aranges
                0x00000000000011c0       0x20 .build/obj_redox_rev1_base_ad_rev3/platforms/avr/platform.o
 .debug_aranges
                0x00000000000011e0       0x30 .build/obj_redox_rev1_base_ad_rev3/platforms/avr/suspend.o
 .debug_aranges
                0x0000000000001210       0x50 .build/obj_redox_rev1_base_ad_rev3/platforms/avr/timer.o
 .debug_aranges
                0x0000000000001260       0x28 .build/obj_redox_rev1_base_ad_rev3/platforms/avr/bootloaders/caterina.o
 .debug_aranges
                0x0000000000001288       0x68 .build/obj_redox_rev1_base_ad_rev3/serial.a(serial.o)
 .debug_aranges
                0x00000000000012f0       0xb0 .build/obj_redox_rev1_base_ad_rev3/lufa.o
 .debug_aranges
                0x00000000000013a0       0x20 .build/obj_redox_rev1_base_ad_rev3/usb_descriptor.o
 .debug_aranges
                0x00000000000013c0       0x20 .build/obj_redox_rev1_base_ad_rev3/lib/lufa/LUFA/Drivers/USB/Core/AVR8/Device_AVR8.o
 .debug_aranges
                0x00000000000013e0       0xc8 .build/obj_redox_rev1_base_ad_rev3/lib/lufa/LUFA/Drivers/USB/Core/AVR8/EndpointStream_AVR8.o
 .debug_aranges
                0x00000000000014a8       0x40 .build/obj_redox_rev1_base_ad_rev3/lib/lufa/LUFA/Drivers/USB/Core/AVR8/Endpoint_AVR8.o
 .debug_aranges
                0x00000000000014e8       0x30 .build/obj_redox_rev1_base_ad_rev3/lib/lufa/LUFA/Drivers/USB/Core/AVR8/USBController_AVR8.o
 .debug_aranges
                0x0000000000001518       0x38 .build/obj_redox_rev1_base_ad_rev3/lib/lufa/LUFA/Drivers/USB/Core/AVR8/USBInterrupt_AVR8.o
 .debug_aranges
                0x0000000000001550       0x20 .build/obj_redox_rev1_base_ad_rev3/lib/lufa/LUFA/Drivers/USB/Core/DeviceStandardReq.o
 .debug_aranges
                0x0000000000001570       0x30 .build/obj_redox_rev1_base_ad_rev3/lib/lufa/LUFA/Drivers/USB/Core/Events.o
 .debug_aranges
                0x00000000000015a0       0x20 .build/obj_redox_rev1_base_ad_rev3/lib/lufa/LUFA/Drivers/USB/Core/USBTask.o
 .debug_aranges
                0x00000000000015c0       0x30 .build/obj_redox_rev1_base_ad_rev3/protocol/lufa/usb_util.o

.debug_pubnames
 *(.debug_pubnames)

.debug_info     0x0000000000000000    0x39e66
 *(.debug_info .gnu.linkonce.wi.*)
 .debug_info    0x0000000000000000      0x9f4 /usr/lib/gcc/avr/5.4.0/../../../avr/lib/avr5/crtatmega32u4.o
 .debug_info    0x00000000000009f4     0x2989 .build/obj_redox_rev1_base_ad_rev3/quantum/keymap_introspection.o
 .debug_info    0x000000000000337d     0x3290 .build/obj_redox_rev1_base_ad_rev3/quantum/quantum.o
 .debug_info    0x000000000000660d      0x428 .build/obj_redox_rev1_base_ad_rev3/quantum/led.o
 .debug_info    0x0000000000006a35     0x3d42 .build/obj_redox_rev1_base_ad_rev3/quantum/action.o
 .debug_info    0x000000000000a777      0xc6a .build/obj_redox_rev1_base_ad_rev3/quantum/action_layer.o
 .debug_info    0x000000000000b3e1     0x2b31 .build/obj_redox_rev1_base_ad_rev3/quantum/action_tapping.o
 .debug_info    0x000000000000df12      0xb02 .build/obj_redox_rev1_base_ad_rev3/quantum/action_util.o
 .debug_info    0x000000000000ea14      0x870 .build/obj_redox_rev1_base_ad_rev3/quantum/eeconfig.o
 .debug_info    0x000000000000f284      0x9d7 .build/obj_redox_rev1_base_ad_rev3/quantum/keyboard.o
 .debug_info    0x000000000000fc5b     0x2af2 .build/obj_redox_rev1_base_ad_rev3/quantum/keymap_common.o
 .debug_info    0x000000000001274d     0x23b0 .build/obj_redox_rev1_base_ad_rev3/quantum/keycode_config.o
 .debug_info    0x0000000000014afd      0x26b .build/obj_redox_rev1_base_ad_rev3/quantum/sync_timer.o
 .debug_info    0x0000000000014d68       0xfc .build/obj_redox_rev1_base_ad_rev3/quantum/logging/debug.o
 .debug_info    0x0000000000014e64       0xa0 .build/obj_redox_rev1_base_ad_rev3/quantum/logging/sendchar.o
 .debug_info    0x0000000000014f04      0x333 .build/obj_redox_rev1_base_ad_rev3/quantum/bootmagic/magic.o
 .debug_info    0x0000000000015237      0x5a9 .build/obj_redox_rev1_base_ad_rev3/quantum/matrix_common.o
 .debug_info    0x00000000000157e0      0x6b7 .build/obj_redox_rev1_base_ad_rev3/quantum/matrix.o
 .debug_info    0x0000000000015e97      0x280 .build/obj_redox_rev1_base_ad_rev3/quantum/debounce/sym_defer_g.o
 .debug_info    0x0000000000016117      0x361 .build/obj_redox_rev1_base_ad_rev3/quantum/split_common/split_util.o
 .debug_info    0x0000000000016478      0x5be .build/obj_redox_rev1_base_ad_rev3/quantum/split_common/transport.o
 .debug_info    0x0000000000016a36      0xcad .build/obj_redox_rev1_base_ad_rev3/quantum/split_common/transactions.o
 .debug_info    0x00000000000176e3      0x1ac .build/obj_redox_rev1_base_ad_rev3/quantum/main.o
 .debug_info    0x000000000001788f       0xe5 .build/obj_redox_rev1_base_ad_rev3/platforms/avr/printf.o
 .debug_info    0x0000000000017974      0x29a .build/obj_redox_rev1_base_ad_rev3/quantum/color.o
 .debug_info    0x0000000000017c0e     0x1ad9 .build/obj_redox_rev1_base_ad_rev3/quantum/rgblight/rgblight.o
 .debug_info    0x00000000000196e7     0x24cf .build/obj_redox_rev1_base_ad_rev3/quantum/process_keycode/process_rgb.o
 .debug_info    0x000000000001bbb6       0x94 .build/obj_redox_rev1_base_ad_rev3/quantum/led_tables.o
 .debug_info    0x000000000001bc4a      0x3d3 .build/obj_redox_rev1_base_ad_rev3/quantum/process_keycode/process_unicode.o
 .debug_info    0x000000000001c01d     0x24ac .build/obj_redox_rev1_base_ad_rev3/quantum/process_keycode/process_unicode_common.o
 .debug_info    0x000000000001e4c9     0x2b6b .build/obj_redox_rev1_base_ad_rev3/quantum/unicode/unicode.o
 .debug_info    0x0000000000021034      0x24a .build/obj_redox_rev1_base_ad_rev3/ws2812_bitbang.o
 .debug_info    0x000000000002127e     0x2624 .build/obj_redox_rev1_base_ad_rev3/quantum/command.o
 .debug_info    0x00000000000238a2      0x130 .build/obj_redox_rev1_base_ad_rev3/quantum/crc.o
 .debug_info    0x00000000000239d2     0x24d5 .build/obj_redox_rev1_base_ad_rev3/quantum/process_keycode/process_grave_esc.o
 .debug_info    0x0000000000025ea7     0x2518 .build/obj_redox_rev1_base_ad_rev3/quantum/process_keycode/process_magic.o
 .debug_info    0x00000000000283bf     0x271a .build/obj_redox_rev1_base_ad_rev3/quantum/mousekey.o
 .debug_info    0x000000000002aad9     0x2ac2 .build/obj_redox_rev1_base_ad_rev3/quantum/send_string/send_string.o
 .debug_info    0x000000000002d59b     0x24e3 .build/obj_redox_rev1_base_ad_rev3/quantum/process_keycode/process_space_cadet.o
 .debug_info    0x000000000002fa7e      0xb9b .build/obj_redox_rev1_base_ad_rev3/quantum/process_keycode/process_tap_dance.o
 .debug_info    0x0000000000030619      0x6ff .build/obj_redox_rev1_base_ad_rev3/protocol/host.o
 .debug_info    0x0000000000030d18     0x24fe .build/obj_redox_rev1_base_ad_rev3/protocol/report.o
 .debug_info    0x0000000000033216      0x22a .build/obj_redox_rev1_base_ad_rev3/protocol/usb_device_state.o
 .debug_info    0x0000000000033440      0x145 .build/obj_redox_rev1_base_ad_rev3/platforms/suspend.o
 .debug_info    0x0000000000033585       0x9c .build/obj_redox_rev1_base_ad_rev3/platforms/avr/platform.o
 .debug_info    0x0000000000033621      0x209 .build/obj_redox_rev1_base_ad_rev3/platforms/avr/suspend.o
 .debug_info    0x000000000003382a      0x3ab .build/obj_redox_rev1_base_ad_rev3/platforms/avr/timer.o
 .debug_info    0x0000000000033bd5      0x11b .build/obj_redox_rev1_base_ad_rev3/platforms/avr/bootloaders/caterina.o
 .debug_info    0x0000000000033cf0      0xdff .build/obj_redox_rev1_base_ad_rev3/serial.a(serial.o)
 .debug_info    0x0000000000034aef     0x1065 .build/obj_redox_rev1_base_ad_rev3/lufa.o
 .debug_info    0x0000000000035b54      0x7bc .build/obj_redox_rev1_base_ad_rev3/usb_descriptor.o
 .debug_info    0x0000000000036310       0xd9 .build/obj_redox_rev1_base_ad_rev3/lib/lufa/LUFA/Drivers/USB/Core/AVR8/Device_AVR8.o
 .debug_info    0x00000000000363e9     0x17bd .build/obj_redox_rev1_base_ad_rev3/lib/lufa/LUFA/Drivers/USB/Core/AVR8/EndpointStream_AVR8.o
 .debug_info    0x0000000000037ba6      0x627 .build/obj_redox_rev1_base_ad_rev3/lib/lufa/LUFA/Drivers/USB/Core/AVR8/Endpoint_AVR8.o
 .debug_info    0x00000000000381cd      0x4ed .build/obj_redox_rev1_base_ad_rev3/lib/lufa/LUFA/Drivers/USB/Core/AVR8/USBController_AVR8.o
 .debug_info    0x00000000000386ba      0x7ee .build/obj_redox_rev1_base_ad_rev3/lib/lufa/LUFA/Drivers/USB/Core/AVR8/USBInterrupt_AVR8.o
 .debug_info    0x0000000000038ea8      0xa48 .build/obj_redox_rev1_base_ad_rev3/lib/lufa/LUFA/Drivers/USB/Core/DeviceStandardReq.o
 .debug_info    0x00000000000398f0       0xe5 .build/obj_redox_rev1_base_ad_rev3/lib/lufa/LUFA/Drivers/USB/Core/Events.o
 .debug_info    0x00000000000399d5      0x279 .build/obj_redox_rev1_base_ad_rev3/lib/lufa/LUFA/Drivers/USB/Core/USBTask.o
 .debug_info    0x0000000000039c4e      0x218 .build/obj_redox_rev1_base_ad_rev3/protocol/lufa/usb_util.o

.debug_abbrev   0x0000000000000000     0x71c6
 *(.debug_abbrev)
 .debug_abbrev  0x0000000000000000      0x96a /usr/lib/gcc/avr/5.4.0/../../../avr/lib/avr5/crtatmega32u4.o
 .debug_abbrev  0x000000000000096a      0x223 .build/obj_redox_rev1_base_ad_rev3/quantum/keymap_introspection.o
 .debug_abbrev  0x0000000000000b8d      0x34d .build/obj_redox_rev1_base_ad_rev3/quantum/quantum.o
 .debug_abbrev  0x0000000000000eda      0x1b7 .build/obj_redox_rev1_base_ad_rev3/quantum/led.o
 .debug_abbrev  0x0000000000001091      0x35c .build/obj_redox_rev1_base_ad_rev3/quantum/action.o
 .debug_abbrev  0x00000000000013ed      0x29b .build/obj_redox_rev1_base_ad_rev3/quantum/action_layer.o
 .debug_abbrev  0x0000000000001688      0x2c8 .build/obj_redox_rev1_base_ad_rev3/quantum/action_tapping.o
 .debug_abbrev  0x0000000000001950      0x2c1 .build/obj_redox_rev1_base_ad_rev3/quantum/action_util.o
 .debug_abbrev  0x0000000000001c11      0x14d .build/obj_redox_rev1_base_ad_rev3/quantum/eeconfig.o
 .debug_abbrev  0x0000000000001d5e      0x343 .build/obj_redox_rev1_base_ad_rev3/quantum/keyboard.o
 .debug_abbrev  0x00000000000020a1      0x1ad .build/obj_redox_rev1_base_ad_rev3/quantum/keymap_common.o
 .debug_abbrev  0x000000000000224e       0xea .build/obj_redox_rev1_base_ad_rev3/quantum/keycode_config.o
 .debug_abbrev  0x0000000000002338      0x100 .build/obj_redox_rev1_base_ad_rev3/quantum/sync_timer.o
 .debug_abbrev  0x0000000000002438       0x87 .build/obj_redox_rev1_base_ad_rev3/quantum/logging/debug.o
 .debug_abbrev  0x00000000000024bf       0x62 .build/obj_redox_rev1_base_ad_rev3/quantum/logging/sendchar.o
 .debug_abbrev  0x0000000000002521       0xfc .build/obj_redox_rev1_base_ad_rev3/quantum/bootmagic/magic.o
 .debug_abbrev  0x000000000000261d      0x234 .build/obj_redox_rev1_base_ad_rev3/quantum/matrix_common.o
 .debug_abbrev  0x0000000000002851      0x289 .build/obj_redox_rev1_base_ad_rev3/quantum/matrix.o
 .debug_abbrev  0x0000000000002ada      0x180 .build/obj_redox_rev1_base_ad_rev3/quantum/debounce/sym_defer_g.o
 .debug_abbrev  0x0000000000002c5a      0x1a7 .build/obj_redox_rev1_base_ad_rev3/quantum/split_common/split_util.o
 .debug_abbrev  0x0000000000002e01      0x262 .build/obj_redox_rev1_base_ad_rev3/quantum/split_common/transport.o
 .debug_abbrev  0x0000000000003063      0x3c4 .build/obj_redox_rev1_base_ad_rev3/quantum/split_common/transactions.o
 .debug_abbrev  0x0000000000003427       0x7f .build/obj_redox_rev1_base_ad_rev3/quantum/main.o
 .debug_abbrev  0x00000000000034a6       0x97 .build/obj_redox_rev1_base_ad_rev3/platforms/avr/printf.o
 .debug_abbrev  0x000000000000353d      0x152 .build/obj_redox_rev1_base_ad_rev3/quantum/color.o
 .debug_abbrev  0x000000000000368f      0x44c .build/obj_redox_rev1_base_ad_rev3/quantum/rgblight/rgblight.o
 .debug_abbrev  0x0000000000003adb      0x152 .build/obj_redox_rev1_base_ad_rev3/quantum/process_keycode/process_rgb.o
 .debug_abbrev  0x0000000000003c2d       0x5d .build/obj_redox_rev1_base_ad_rev3/quantum/led_tables.o
 .debug_abbrev  0x0000000000003c8a       0xed .build/obj_redox_rev1_base_ad_rev3/quantum/process_keycode/process_unicode.o
 .debug_abbrev  0x0000000000003d77      0x11e .build/obj_redox_rev1_base_ad_rev3/quantum/process_keycode/process_unicode_common.o
 .debug_abbrev  0x0000000000003e95      0x2f6 .build/obj_redox_rev1_base_ad_rev3/quantum/unicode/unicode.o
 .debug_abbrev  0x000000000000418b      0x130 .build/obj_redox_rev1_base_ad_rev3/ws2812_bitbang.o
 .debug_abbrev  0x00000000000042bb      0x254 .build/obj_redox_rev1_base_ad_rev3/quantum/command.o
 .debug_abbrev  0x000000000000450f       0xa0 .build/obj_redox_rev1_base_ad_rev3/quantum/crc.o
 .debug_abbrev  0x00000000000045af      0x167 .build/obj_redox_rev1_base_ad_rev3/quantum/process_keycode/process_grave_esc.o
 .debug_abbrev  0x0000000000004716      0x11f .build/obj_redox_rev1_base_ad_rev3/quantum/process_keycode/process_magic.o
 .debug_abbrev  0x0000000000004835      0x256 .build/obj_redox_rev1_base_ad_rev3/quantum/mousekey.o
 .debug_abbrev  0x0000000000004a8b      0x22a .build/obj_redox_rev1_base_ad_rev3/quantum/send_string/send_string.o
 .debug_abbrev  0x0000000000004cb5      0x13a .build/obj_redox_rev1_base_ad_rev3/quantum/process_keycode/process_space_cadet.o
 .debug_abbrev  0x0000000000004def      0x266 .build/obj_redox_rev1_base_ad_rev3/quantum/process_keycode/process_tap_dance.o
 .debug_abbrev  0x0000000000005055      0x253 .build/obj_redox_rev1_base_ad_rev3/protocol/host.o
 .debug_abbrev  0x00000000000052a8      0x20c .build/obj_redox_rev1_base_ad_rev3/protocol/report.o
 .debug_abbrev  0x00000000000054b4       0xf4 .build/obj_redox_rev1_base_ad_rev3/protocol/usb_device_state.o
 .debug_abbrev  0x00000000000055a8       0xde .build/obj_redox_rev1_base_ad_rev3/platforms/suspend.o
 .debug_abbrev  0x0000000000005686       0x6f .build/obj_redox_rev1_base_ad_rev3/platforms/avr/platform.o
 .debug_abbrev  0x00000000000056f5      0x143 .build/obj_redox_rev1_base_ad_rev3/platforms/avr/suspend.o
 .debug_abbrev  0x0000000000005838      0x175 .build/obj_redox_rev1_base_ad_rev3/platforms/avr/timer.o
 .debug_abbrev  0x00000000000059ad       0xc0 .build/obj_redox_rev1_base_ad_rev3/platforms/avr/bootloaders/caterina.o
 .debug_abbrev  0x0000000000005a6d      0x3a6 .build/obj_redox_rev1_base_ad_rev3/serial.a(serial.o)
 .debug_abbrev  0x0000000000005e13      0x414 .build/obj_redox_rev1_base_ad_rev3/lufa.o
 .debug_abbrev  0x0000000000006227      0x184 .build/obj_redox_rev1_base_ad_rev3/usb_descriptor.o
 .debug_abbrev  0x00000000000063ab       0x80 .build/obj_redox_rev1_base_ad_rev3/lib/lufa/LUFA/Drivers/USB/Core/AVR8/Device_AVR8.o
 .debug_abbrev  0x000000000000642b      0x1ea .build/obj_redox_rev1_base_ad_rev3/lib/lufa/LUFA/Drivers/USB/Core/AVR8/EndpointStream_AVR8.o
 .debug_abbrev  0x0000000000006615      0x226 .build/obj_redox_rev1_base_ad_rev3/lib/lufa/LUFA/Drivers/USB/Core/AVR8/Endpoint_AVR8.o
 .debug_abbrev  0x000000000000683b      0x183 .build/obj_redox_rev1_base_ad_rev3/lib/lufa/LUFA/Drivers/USB/Core/AVR8/USBController_AVR8.o
 .debug_abbrev  0x00000000000069be      0x213 .build/obj_redox_rev1_base_ad_rev3/lib/lufa/LUFA/Drivers/USB/Core/AVR8/USBInterrupt_AVR8.o
 .debug_abbrev  0x0000000000006bd1      0x29c .build/obj_redox_rev1_base_ad_rev3/lib/lufa/LUFA/Drivers/USB/Core/DeviceStandardReq.o
 .debug_abbrev  0x0000000000006e6d       0x99 .build/obj_redox_rev1_base_ad_rev3/lib/lufa/LUFA/Drivers/USB/Core/Events.o
 .debug_abbrev  0x0000000000006f06      0x16b .build/obj_redox_rev1_base_ad_rev3/lib/lufa/LUFA/Drivers/USB/Core/USBTask.o
 .debug_abbrev  0x0000000000007071      0x155 .build/obj_redox_rev1_base_ad_rev3/protocol/lufa/usb_util.o

.debug_line     0x0000000000000000     0xb922
 *(.debug_line .debug_line.* .debug_line_end)
 .debug_line    0x0000000000000000       0x1a /usr/lib/gcc/avr/5.4.0/../../../avr/lib/avr5/crtatmega32u4.o
 .debug_line    0x000000000000001a      0x3a6 .build/obj_redox_rev1_base_ad_rev3/quantum/keymap_introspection.o
 .debug_line    0x00000000000003c0      0x7a1 .build/obj_redox_rev1_base_ad_rev3/quantum/quantum.o
 .debug_line    0x0000000000000b61      0x1de .build/obj_redox_rev1_base_ad_rev3/quantum/led.o
 .debug_line    0x0000000000000d3f      0xabf .build/obj_redox_rev1_base_ad_rev3/quantum/action.o
 .debug_line    0x00000000000017fe      0x440 .build/obj_redox_rev1_base_ad_rev3/quantum/action_layer.o
 .debug_line    0x0000000000001c3e      0x4fd .build/obj_redox_rev1_base_ad_rev3/quantum/action_tapping.o
 .debug_line    0x000000000000213b      0x5ff .build/obj_redox_rev1_base_ad_rev3/quantum/action_util.o
 .debug_line    0x000000000000273a      0x35b .build/obj_redox_rev1_base_ad_rev3/quantum/eeconfig.o
 .debug_line    0x0000000000002a95      0x51a .build/obj_redox_rev1_base_ad_rev3/quantum/keyboard.o
 .debug_line    0x0000000000002faf      0x23a .build/obj_redox_rev1_base_ad_rev3/quantum/keymap_common.o
 .debug_line    0x00000000000031e9      0x1d0 .build/obj_redox_rev1_base_ad_rev3/quantum/keycode_config.o
 .debug_line    0x00000000000033b9      0x166 .build/obj_redox_rev1_base_ad_rev3/quantum/sync_timer.o
 .debug_line    0x000000000000351f       0x61 .build/obj_redox_rev1_base_ad_rev3/quantum/logging/debug.o
 .debug_line    0x0000000000003580       0x6f .build/obj_redox_rev1_base_ad_rev3/quantum/logging/sendchar.o
 .debug_line    0x00000000000035ef       0xff .build/obj_redox_rev1_base_ad_rev3/quantum/bootmagic/magic.o
 .debug_line    0x00000000000036ee      0x356 .build/obj_redox_rev1_base_ad_rev3/quantum/matrix_common.o
 .debug_line    0x0000000000003a44      0x308 .build/obj_redox_rev1_base_ad_rev3/quantum/matrix.o
 .debug_line    0x0000000000003d4c      0x15d .build/obj_redox_rev1_base_ad_rev3/quantum/debounce/sym_defer_g.o
 .debug_line    0x0000000000003ea9      0x1f4 .build/obj_redox_rev1_base_ad_rev3/quantum/split_common/split_util.o
 .debug_line    0x000000000000409d      0x1b0 .build/obj_redox_rev1_base_ad_rev3/quantum/split_common/transport.o
 .debug_line    0x000000000000424d      0x33b .build/obj_redox_rev1_base_ad_rev3/quantum/split_common/transactions.o
 .debug_line    0x0000000000004588       0xba .build/obj_redox_rev1_base_ad_rev3/quantum/main.o
 .debug_line    0x0000000000004642       0x96 .build/obj_redox_rev1_base_ad_rev3/platforms/avr/printf.o
 .debug_line    0x00000000000046d8      0x185 .build/obj_redox_rev1_base_ad_rev3/quantum/color.o
 .debug_line    0x000000000000485d      0xc88 .build/obj_redox_rev1_base_ad_rev3/quantum/rgblight/rgblight.o
 .debug_line    0x00000000000054e5      0x17a .build/obj_redox_rev1_base_ad_rev3/quantum/process_keycode/process_rgb.o
 .debug_line    0x000000000000565f       0x53 .build/obj_redox_rev1_base_ad_rev3/quantum/led_tables.o
 .debug_line    0x00000000000056b2       0xdd .build/obj_redox_rev1_base_ad_rev3/quantum/process_keycode/process_unicode.o
 .debug_line    0x000000000000578f      0x15b .build/obj_redox_rev1_base_ad_rev3/quantum/process_keycode/process_unicode_common.o
 .debug_line    0x00000000000058ea      0x55f .build/obj_redox_rev1_base_ad_rev3/quantum/unicode/unicode.o
 .debug_line    0x0000000000005e49       0xee .build/obj_redox_rev1_base_ad_rev3/ws2812_bitbang.o
 .debug_line    0x0000000000005f37      0x345 .build/obj_redox_rev1_base_ad_rev3/quantum/command.o
 .debug_line    0x000000000000627c       0xde .build/obj_redox_rev1_base_ad_rev3/quantum/crc.o
 .debug_line    0x000000000000635a      0x146 .build/obj_redox_rev1_base_ad_rev3/quantum/process_keycode/process_grave_esc.o
 .debug_line    0x00000000000064a0      0x1fa .build/obj_redox_rev1_base_ad_rev3/quantum/process_keycode/process_magic.o
 .debug_line    0x000000000000669a      0x67d .build/obj_redox_rev1_base_ad_rev3/quantum/mousekey.o
 .debug_line    0x0000000000006d17      0x3ab .build/obj_redox_rev1_base_ad_rev3/quantum/send_string/send_string.o
 .debug_line    0x00000000000070c2      0x19f .build/obj_redox_rev1_base_ad_rev3/quantum/process_keycode/process_space_cadet.o
 .debug_line    0x0000000000007261      0x3be .build/obj_redox_rev1_base_ad_rev3/quantum/process_keycode/process_tap_dance.o
 .debug_line    0x000000000000761f      0x253 .build/obj_redox_rev1_base_ad_rev3/protocol/host.o
 .debug_line    0x0000000000007872      0x267 .build/obj_redox_rev1_base_ad_rev3/protocol/report.o
 .debug_line    0x0000000000007ad9      0x103 .build/obj_redox_rev1_base_ad_rev3/protocol/usb_device_state.o
 .debug_line    0x0000000000007bdc       0xe6 .build/obj_redox_rev1_base_ad_rev3/platforms/suspend.o
 .debug_line    0x0000000000007cc2       0x73 .build/obj_redox_rev1_base_ad_rev3/platforms/avr/platform.o
 .debug_line    0x0000000000007d35      0x19d .build/obj_redox_rev1_base_ad_rev3/platforms/avr/suspend.o
 .debug_line    0x0000000000007ed2      0x1f2 .build/obj_redox_rev1_base_ad_rev3/platforms/avr/timer.o
 .debug_line    0x00000000000080c4       0xbd .build/obj_redox_rev1_base_ad_rev3/platforms/avr/bootloaders/caterina.o
 .debug_line    0x0000000000008181      0x528 .build/obj_redox_rev1_base_ad_rev3/serial.a(serial.o)
 .debug_line    0x00000000000086a9      0x701 .build/obj_redox_rev1_base_ad_rev3/lufa.o
 .debug_line    0x0000000000008daa      0x21f .build/obj_redox_rev1_base_ad_rev3/usb_descriptor.o
 .debug_line    0x0000000000008fc9      0x10a .build/obj_redox_rev1_base_ad_rev3/lib/lufa/LUFA/Drivers/USB/Core/AVR8/Device_AVR8.o
 .debug_line    0x00000000000090d3     0x13cb .build/obj_redox_rev1_base_ad_rev3/lib/lufa/LUFA/Drivers/USB/Core/AVR8/EndpointStream_AVR8.o
 .debug_line    0x000000000000a49e      0x475 .build/obj_redox_rev1_base_ad_rev3/lib/lufa/LUFA/Drivers/USB/Core/AVR8/Endpoint_AVR8.o
 .debug_line    0x000000000000a913      0x2da .build/obj_redox_rev1_base_ad_rev3/lib/lufa/LUFA/Drivers/USB/Core/AVR8/USBController_AVR8.o
 .debug_line    0x000000000000abed      0x50a .build/obj_redox_rev1_base_ad_rev3/lib/lufa/LUFA/Drivers/USB/Core/AVR8/USBInterrupt_AVR8.o
 .debug_line    0x000000000000b0f7      0x469 .build/obj_redox_rev1_base_ad_rev3/lib/lufa/LUFA/Drivers/USB/Core/DeviceStandardReq.o
 .debug_line    0x000000000000b560       0x96 .build/obj_redox_rev1_base_ad_rev3/lib/lufa/LUFA/Drivers/USB/Core/Events.o
 .debug_line    0x000000000000b5f6      0x15d .build/obj_redox_rev1_base_ad_rev3/lib/lufa/LUFA/Drivers/USB/Core/USBTask.o
 .debug_line    0x000000000000b753      0x1cf .build/obj_redox_rev1_base_ad_rev3/protocol/lufa/usb_util.o

.debug_frame    0x0000000000000000     0x3028
 *(.debug_frame)
 .debug_frame   0x0000000000000000       0x6c .build/obj_redox_rev1_base_ad_rev3/quantum/keymap_introspection.o
 .debug_frame   0x000000000000006c      0x2d0 .build/obj_redox_rev1_base_ad_rev3/quantum/quantum.o
 .debug_frame   0x000000000000033c       0xe0 .build/obj_redox_rev1_base_ad_rev3/quantum/led.o
 .debug_frame   0x000000000000041c      0x208 .build/obj_redox_rev1_base_ad_rev3/quantum/action.o
 .debug_frame   0x0000000000000624      0x238 .build/obj_redox_rev1_base_ad_rev3/quantum/action_layer.o
 .debug_frame   0x000000000000085c       0xb8 .build/obj_redox_rev1_base_ad_rev3/quantum/action_tapping.o
 .debug_frame   0x0000000000000914      0x2e8 .build/obj_redox_rev1_base_ad_rev3/quantum/action_util.o
 .debug_frame   0x0000000000000bfc      0x19c .build/obj_redox_rev1_base_ad_rev3/quantum/eeconfig.o
 .debug_frame   0x0000000000000d98      0x234 .build/obj_redox_rev1_base_ad_rev3/quantum/keyboard.o
 .debug_frame   0x0000000000000fcc       0x54 .build/obj_redox_rev1_base_ad_rev3/quantum/keymap_common.o
 .debug_frame   0x0000000000001020       0x34 .build/obj_redox_rev1_base_ad_rev3/quantum/keycode_config.o
 .debug_frame   0x0000000000001054       0xb4 .build/obj_redox_rev1_base_ad_rev3/quantum/sync_timer.o
 .debug_frame   0x0000000000001108       0x24 .build/obj_redox_rev1_base_ad_rev3/quantum/logging/sendchar.o
 .debug_frame   0x000000000000112c       0x34 .build/obj_redox_rev1_base_ad_rev3/quantum/bootmagic/magic.o
 .debug_frame   0x0000000000001160      0x16c .build/obj_redox_rev1_base_ad_rev3/quantum/matrix_common.o
 .debug_frame   0x00000000000012cc       0xac .build/obj_redox_rev1_base_ad_rev3/quantum/matrix.o
 .debug_frame   0x0000000000001378       0x64 .build/obj_redox_rev1_base_ad_rev3/quantum/debounce/sym_defer_g.o
 .debug_frame   0x00000000000013dc       0xb0 .build/obj_redox_rev1_base_ad_rev3/quantum/split_common/split_util.o
 .debug_frame   0x000000000000148c       0x78 .build/obj_redox_rev1_base_ad_rev3/quantum/split_common/transport.o
 .debug_frame   0x0000000000001504       0xe4 .build/obj_redox_rev1_base_ad_rev3/quantum/split_common/transactions.o
 .debug_frame   0x00000000000015e8       0x44 .build/obj_redox_rev1_base_ad_rev3/quantum/main.o
 .debug_frame   0x000000000000162c       0x24 .build/obj_redox_rev1_base_ad_rev3/platforms/avr/printf.o
 .debug_frame   0x0000000000001650       0x64 .build/obj_redox_rev1_base_ad_rev3/quantum/color.o
 .debug_frame   0x00000000000016b4      0x5e8 .build/obj_redox_rev1_base_ad_rev3/quantum/rgblight/rgblight.o
 .debug_frame   0x0000000000001c9c       0x44 .build/obj_redox_rev1_base_ad_rev3/quantum/process_keycode/process_rgb.o
 .debug_frame   0x0000000000001ce0       0x24 .build/obj_redox_rev1_base_ad_rev3/quantum/process_keycode/process_unicode.o
 .debug_frame   0x0000000000001d04       0x38 .build/obj_redox_rev1_base_ad_rev3/quantum/process_keycode/process_unicode_common.o
 .debug_frame   0x0000000000001d3c      0x184 .build/obj_redox_rev1_base_ad_rev3/quantum/unicode/unicode.o
 .debug_frame   0x0000000000001ec0       0x24 .build/obj_redox_rev1_base_ad_rev3/ws2812_bitbang.o
 .debug_frame   0x0000000000001ee4       0x6c .build/obj_redox_rev1_base_ad_rev3/quantum/command.o
 .debug_frame   0x0000000000001f50       0x34 .build/obj_redox_rev1_base_ad_rev3/quantum/crc.o
 .debug_frame   0x0000000000001f84       0x30 .build/obj_redox_rev1_base_ad_rev3/quantum/process_keycode/process_grave_esc.o
 .debug_frame   0x0000000000001fb4       0x30 .build/obj_redox_rev1_base_ad_rev3/quantum/process_keycode/process_magic.o
 .debug_frame   0x0000000000001fe4       0xc8 .build/obj_redox_rev1_base_ad_rev3/quantum/mousekey.o
 .debug_frame   0x00000000000020ac      0x12c .build/obj_redox_rev1_base_ad_rev3/quantum/send_string/send_string.o
 .debug_frame   0x00000000000021d8       0x50 .build/obj_redox_rev1_base_ad_rev3/quantum/process_keycode/process_space_cadet.o
 .debug_frame   0x0000000000002228      0x13c .build/obj_redox_rev1_base_ad_rev3/quantum/process_keycode/process_tap_dance.o
 .debug_frame   0x0000000000002364      0x114 .build/obj_redox_rev1_base_ad_rev3/protocol/host.o
 .debug_frame   0x0000000000002478       0xa4 .build/obj_redox_rev1_base_ad_rev3/protocol/report.o
 .debug_frame   0x000000000000251c       0x84 .build/obj_redox_rev1_base_ad_rev3/protocol/usb_device_state.o
 .debug_frame   0x00000000000025a0       0x8c .build/obj_redox_rev1_base_ad_rev3/platforms/suspend.o
 .debug_frame   0x000000000000262c       0x24 .build/obj_redox_rev1_base_ad_rev3/platforms/avr/platform.o
 .debug_frame   0x0000000000002650       0x64 .build/obj_redox_rev1_base_ad_rev3/platforms/avr/suspend.o
 .debug_frame   0x00000000000026b4       0xb8 .build/obj_redox_rev1_base_ad_rev3/platforms/avr/timer.o
 .debug_frame   0x000000000000276c       0x34 .build/obj_redox_rev1_base_ad_rev3/platforms/avr/bootloaders/caterina.o
 .debug_frame   0x00000000000027a0      0x154 .build/obj_redox_rev1_base_ad_rev3/serial.a(serial.o)
 .debug_frame   0x00000000000028f4      0x180 .build/obj_redox_rev1_base_ad_rev3/lufa.o
 .debug_frame   0x0000000000002a74       0x24 .build/obj_redox_rev1_base_ad_rev3/usb_descriptor.o
 .debug_frame   0x0000000000002a98       0x24 .build/obj_redox_rev1_base_ad_rev3/lib/lufa/LUFA/Drivers/USB/Core/AVR8/Device_AVR8.o
 .debug_frame   0x0000000000002abc      0x2cc .build/obj_redox_rev1_base_ad_rev3/lib/lufa/LUFA/Drivers/USB/Core/AVR8/EndpointStream_AVR8.o
 .debug_frame   0x0000000000002d88       0x78 .build/obj_redox_rev1_base_ad_rev3/lib/lufa/LUFA/Drivers/USB/Core/AVR8/Endpoint_AVR8.o
 .debug_frame   0x0000000000002e00       0x58 .build/obj_redox_rev1_base_ad_rev3/lib/lufa/LUFA/Drivers/USB/Core/AVR8/USBController_AVR8.o
 .debug_frame   0x0000000000002e58       0xec .build/obj_redox_rev1_base_ad_rev3/lib/lufa/LUFA/Drivers/USB/Core/AVR8/USBInterrupt_AVR8.o
 .debug_frame   0x0000000000002f44       0x30 .build/obj_redox_rev1_base_ad_rev3/lib/lufa/LUFA/Drivers/USB/Core/DeviceStandardReq.o
 .debug_frame   0x0000000000002f74       0x44 .build/obj_redox_rev1_base_ad_rev3/lib/lufa/LUFA/Drivers/USB/Core/Events.o
 .debug_frame   0x0000000000002fb8       0x2c .build/obj_redox_rev1_base_ad_rev3/lib/lufa/LUFA/Drivers/USB/Core/USBTask.o
 .debug_frame   0x0000000000002fe4       0x44 .build/obj_redox_rev1_base_ad_rev3/protocol/lufa/usb_util.o

.debug_str      0x0000000000000000     0xa77f
 *(.debug_str)
 .debug_str     0x0000000000000000      0x371 /usr/lib/gcc/avr/5.4.0/../../../avr/lib/avr5/crtatmega32u4.o
 .debug_str     0x0000000000000371     0x436e .build/obj_redox_rev1_base_ad_rev3/quantum/keymap_introspection.o
                                       0x4469 (size before relaxing)
 .debug_str     0x00000000000046df      0x44f .build/obj_redox_rev1_base_ad_rev3/quantum/quantum.o
                                       0x4733 (size before relaxing)
 .debug_str     0x0000000000004b2e      0x128 .build/obj_redox_rev1_base_ad_rev3/quantum/led.o
                                        0x36d (size before relaxing)
 .debug_str     0x0000000000004c56      0xaec .build/obj_redox_rev1_base_ad_rev3/quantum/action.o
                                       0x4c06 (size before relaxing)
 .debug_str     0x0000000000005742      0x170 .build/obj_redox_rev1_base_ad_rev3/quantum/action_layer.o
                                        0x5af (size before relaxing)
 .debug_str     0x00000000000058b2       0xdc .build/obj_redox_rev1_base_ad_rev3/quantum/action_tapping.o
                                       0x4232 (size before relaxing)
 .debug_str     0x000000000000598e      0x265 .build/obj_redox_rev1_base_ad_rev3/quantum/action_util.o
                                        0x75f (size before relaxing)
 .debug_str     0x0000000000005bf3      0x27b .build/obj_redox_rev1_base_ad_rev3/quantum/eeconfig.o
                                        0x4b5 (size before relaxing)
 .debug_str     0x0000000000005e6e      0x4b7 .build/obj_redox_rev1_base_ad_rev3/quantum/keyboard.o
                                        0x7ab (size before relaxing)
 .debug_str     0x0000000000006325       0x52 .build/obj_redox_rev1_base_ad_rev3/quantum/keymap_common.o
                                       0x47b3 (size before relaxing)
 .debug_str     0x0000000000006377       0x6b .build/obj_redox_rev1_base_ad_rev3/quantum/keycode_config.o
                                       0x3f76 (size before relaxing)
 .debug_str     0x00000000000063e2       0x58 .build/obj_redox_rev1_base_ad_rev3/quantum/sync_timer.o
                                        0x2b0 (size before relaxing)
 .debug_str     0x000000000000643a       0x18 .build/obj_redox_rev1_base_ad_rev3/quantum/logging/debug.o
                                        0x20e (size before relaxing)
 .debug_str     0x0000000000006452       0x1b .build/obj_redox_rev1_base_ad_rev3/quantum/logging/sendchar.o
                                        0x1d9 (size before relaxing)
 .debug_str     0x000000000000646d       0x24 .build/obj_redox_rev1_base_ad_rev3/quantum/bootmagic/magic.o
                                        0x3e1 (size before relaxing)
 .debug_str     0x0000000000006491      0x238 .build/obj_redox_rev1_base_ad_rev3/quantum/matrix_common.o
                                        0x4b3 (size before relaxing)
 .debug_str     0x00000000000066c9      0x125 .build/obj_redox_rev1_base_ad_rev3/quantum/matrix.o
                                        0x494 (size before relaxing)
 .debug_str     0x00000000000067ee       0xaa .build/obj_redox_rev1_base_ad_rev3/quantum/debounce/sym_defer_g.o
                                        0x2bf (size before relaxing)
 .debug_str     0x0000000000006898      0x11d .build/obj_redox_rev1_base_ad_rev3/quantum/split_common/split_util.o
                                        0x3b7 (size before relaxing)
 .debug_str     0x00000000000069b5      0x28b .build/obj_redox_rev1_base_ad_rev3/quantum/split_common/transport.o
                                        0x628 (size before relaxing)
 .debug_str     0x0000000000006c40      0x23a .build/obj_redox_rev1_base_ad_rev3/quantum/split_common/transactions.o
                                        0x7f2 (size before relaxing)
 .debug_str     0x0000000000006e7a       0x98 .build/obj_redox_rev1_base_ad_rev3/quantum/main.o
                                        0x281 (size before relaxing)
 .debug_str     0x0000000000006f12       0x31 .build/obj_redox_rev1_base_ad_rev3/platforms/avr/printf.o
                                        0x1fe (size before relaxing)
 .debug_str     0x0000000000006f43       0x62 .build/obj_redox_rev1_base_ad_rev3/quantum/color.o
                                        0x23c (size before relaxing)
 .debug_str     0x0000000000006fa5      0x8ba .build/obj_redox_rev1_base_ad_rev3/quantum/rgblight/rgblight.o
                                        0xc85 (size before relaxing)
 .debug_str     0x000000000000785f       0xdd .build/obj_redox_rev1_base_ad_rev3/quantum/process_keycode/process_rgb.o
                                       0x4042 (size before relaxing)
 .debug_str     0x000000000000793c       0x15 .build/obj_redox_rev1_base_ad_rev3/quantum/led_tables.o
                                        0x1da (size before relaxing)
 .debug_str     0x0000000000007951       0x4b .build/obj_redox_rev1_base_ad_rev3/quantum/process_keycode/process_unicode.o
                                        0x630 (size before relaxing)
 .debug_str     0x000000000000799c       0xa7 .build/obj_redox_rev1_base_ad_rev3/quantum/process_keycode/process_unicode_common.o
                                       0x4096 (size before relaxing)
 .debug_str     0x0000000000007a43      0x1db .build/obj_redox_rev1_base_ad_rev3/quantum/unicode/unicode.o
                                       0x4246 (size before relaxing)
 .debug_str     0x0000000000007c1e       0x7c .build/obj_redox_rev1_base_ad_rev3/ws2812_bitbang.o
                                        0x29c (size before relaxing)
 .debug_str     0x0000000000007c9a       0xf1 .build/obj_redox_rev1_base_ad_rev3/quantum/command.o
                                       0x404d (size before relaxing)
 .debug_str     0x0000000000007d8b       0x2b .build/obj_redox_rev1_base_ad_rev3/quantum/crc.o
                                        0x1ff (size before relaxing)
 .debug_str     0x0000000000007db6       0x42 .build/obj_redox_rev1_base_ad_rev3/quantum/process_keycode/process_grave_esc.o
                                       0x3ff5 (size before relaxing)
 .debug_str     0x0000000000007df8       0x28 .build/obj_redox_rev1_base_ad_rev3/quantum/process_keycode/process_magic.o
                                       0x4046 (size before relaxing)
 .debug_str     0x0000000000007e20      0x13f .build/obj_redox_rev1_base_ad_rev3/quantum/mousekey.o
                                       0x4054 (size before relaxing)
 .debug_str     0x0000000000007f5f       0xf9 .build/obj_redox_rev1_base_ad_rev3/quantum/send_string/send_string.o
                                       0x3fc8 (size before relaxing)
 .debug_str     0x0000000000008058       0x6d .build/obj_redox_rev1_base_ad_rev3/quantum/process_keycode/process_space_cadet.o
                                       0x3f89 (size before relaxing)
 .debug_str     0x00000000000080c5      0x1e6 .build/obj_redox_rev1_base_ad_rev3/quantum/process_keycode/process_tap_dance.o
                                        0x9f2 (size before relaxing)
 .debug_str     0x00000000000082ab      0x1de .build/obj_redox_rev1_base_ad_rev3/protocol/host.o
                                        0x553 (size before relaxing)
 .debug_str     0x0000000000008489       0x5f .build/obj_redox_rev1_base_ad_rev3/protocol/report.o
                                       0x3f45 (size before relaxing)
 .debug_str     0x00000000000084e8      0x16f .build/obj_redox_rev1_base_ad_rev3/protocol/usb_device_state.o
                                        0x323 (size before relaxing)
 .debug_str     0x0000000000008657       0x46 .build/obj_redox_rev1_base_ad_rev3/platforms/suspend.o
                                        0x242 (size before relaxing)
 .debug_str     0x000000000000869d       0x26 .build/obj_redox_rev1_base_ad_rev3/platforms/avr/platform.o
                                        0x1e3 (size before relaxing)
 .debug_str     0x00000000000086c3      0x129 .build/obj_redox_rev1_base_ad_rev3/platforms/avr/suspend.o
                                        0x35a (size before relaxing)
 .debug_str     0x00000000000087ec       0x43 .build/obj_redox_rev1_base_ad_rev3/platforms/avr/timer.o
                                        0x273 (size before relaxing)
 .debug_str     0x000000000000882f       0x43 .build/obj_redox_rev1_base_ad_rev3/platforms/avr/bootloaders/caterina.o
                                        0x21a (size before relaxing)
 .debug_str     0x0000000000008872      0x281 .build/obj_redox_rev1_base_ad_rev3/serial.a(serial.o)
                                        0x6ac (size before relaxing)
 .debug_str     0x0000000000008af3      0x6c6 .build/obj_redox_rev1_base_ad_rev3/lufa.o
                                        0xc7d (size before relaxing)
 .debug_str     0x00000000000091b9      0x6a9 .build/obj_redox_rev1_base_ad_rev3/usb_descriptor.o
                                        0xa53 (size before relaxing)
 .debug_str     0x0000000000009862       0x5e .build/obj_redox_rev1_base_ad_rev3/lib/lufa/LUFA/Drivers/USB/Core/AVR8/Device_AVR8.o
                                        0x243 (size before relaxing)
 .debug_str     0x00000000000098c0      0x4a3 .build/obj_redox_rev1_base_ad_rev3/lib/lufa/LUFA/Drivers/USB/Core/AVR8/EndpointStream_AVR8.o
                                        0x8a5 (size before relaxing)
 .debug_str     0x0000000000009d63      0x254 .build/obj_redox_rev1_base_ad_rev3/lib/lufa/LUFA/Drivers/USB/Core/AVR8/Endpoint_AVR8.o
                                        0x665 (size before relaxing)
 .debug_str     0x0000000000009fb7      0x1a1 .build/obj_redox_rev1_base_ad_rev3/lib/lufa/LUFA/Drivers/USB/Core/AVR8/USBController_AVR8.o
                                        0x5a4 (size before relaxing)
 .debug_str     0x000000000000a158      0x146 .build/obj_redox_rev1_base_ad_rev3/lib/lufa/LUFA/Drivers/USB/Core/AVR8/USBInterrupt_AVR8.o
                                        0x623 (size before relaxing)
 .debug_str     0x000000000000a29e      0x40d .build/obj_redox_rev1_base_ad_rev3/lib/lufa/LUFA/Drivers/USB/Core/DeviceStandardReq.o
                                        0x9f4 (size before relaxing)
 .debug_str     0x000000000000a6ab       0x59 .build/obj_redox_rev1_base_ad_rev3/lib/lufa/LUFA/Drivers/USB/Core/Events.o
                                        0x213 (size before relaxing)
 .debug_str     0x000000000000a704       0x45 .build/obj_redox_rev1_base_ad_rev3/lib/lufa/LUFA/Drivers/USB/Core/USBTask.o
                                        0x3ca (size before relaxing)
 .debug_str     0x000000000000a749       0x36 .build/obj_redox_rev1_base_ad_rev3/protocol/lufa/usb_util.o
                                        0x35e (size before relaxing)

.debug_loc      0x0000000000000000     0xc29e
 *(.debug_loc)
 .debug_loc     0x0000000000000000      0x4d5 .build/obj_redox_rev1_base_ad_rev3/quantum/keymap_introspection.o
 .debug_loc     0x00000000000004d5      0xb70 .build/obj_redox_rev1_base_ad_rev3/quantum/quantum.o
 .debug_loc     0x0000000000001045      0x12d .build/obj_redox_rev1_base_ad_rev3/quantum/led.o
 .debug_loc     0x0000000000001172      0xa8b .build/obj_redox_rev1_base_ad_rev3/quantum/action.o
 .debug_loc     0x0000000000001bfd      0x882 .build/obj_redox_rev1_base_ad_rev3/quantum/action_layer.o
 .debug_loc     0x000000000000247f      0x4b7 .build/obj_redox_rev1_base_ad_rev3/quantum/action_tapping.o
 .debug_loc     0x0000000000002936      0x35a .build/obj_redox_rev1_base_ad_rev3/quantum/action_util.o
 .debug_loc     0x0000000000002c90      0x1c4 .build/obj_redox_rev1_base_ad_rev3/quantum/eeconfig.o
 .debug_loc     0x0000000000002e54      0x250 .build/obj_redox_rev1_base_ad_rev3/quantum/keyboard.o
 .debug_loc     0x00000000000030a4      0x3ce .build/obj_redox_rev1_base_ad_rev3/quantum/keymap_common.o
 .debug_loc     0x0000000000003472      0x16d .build/obj_redox_rev1_base_ad_rev3/quantum/keycode_config.o
 .debug_loc     0x00000000000035df      0x1aa .build/obj_redox_rev1_base_ad_rev3/quantum/sync_timer.o
 .debug_loc     0x0000000000003789       0x21 .build/obj_redox_rev1_base_ad_rev3/quantum/logging/sendchar.o
 .debug_loc     0x00000000000037aa       0x18 .build/obj_redox_rev1_base_ad_rev3/quantum/bootmagic/magic.o
 .debug_loc     0x00000000000037c2      0x22f .build/obj_redox_rev1_base_ad_rev3/quantum/matrix_common.o
 .debug_loc     0x00000000000039f1      0x40e .build/obj_redox_rev1_base_ad_rev3/quantum/matrix.o
 .debug_loc     0x0000000000003dff      0x1c4 .build/obj_redox_rev1_base_ad_rev3/quantum/debounce/sym_defer_g.o
 .debug_loc     0x0000000000003fc3      0x142 .build/obj_redox_rev1_base_ad_rev3/quantum/split_common/split_util.o
 .debug_loc     0x0000000000004105      0x1f2 .build/obj_redox_rev1_base_ad_rev3/quantum/split_common/transport.o
 .debug_loc     0x00000000000042f7      0x53f .build/obj_redox_rev1_base_ad_rev3/quantum/split_common/transactions.o
 .debug_loc     0x0000000000004836      0x1db .build/obj_redox_rev1_base_ad_rev3/quantum/color.o
 .debug_loc     0x0000000000004a11     0x1008 .build/obj_redox_rev1_base_ad_rev3/quantum/rgblight/rgblight.o
 .debug_loc     0x0000000000005a19      0x12e .build/obj_redox_rev1_base_ad_rev3/quantum/process_keycode/process_rgb.o
 .debug_loc     0x0000000000005b47       0x5c .build/obj_redox_rev1_base_ad_rev3/quantum/process_keycode/process_unicode.o
 .debug_loc     0x0000000000005ba3      0x145 .build/obj_redox_rev1_base_ad_rev3/quantum/process_keycode/process_unicode_common.o
 .debug_loc     0x0000000000005ce8      0x5a6 .build/obj_redox_rev1_base_ad_rev3/quantum/unicode/unicode.o
 .debug_loc     0x000000000000628e      0x1a1 .build/obj_redox_rev1_base_ad_rev3/ws2812_bitbang.o
 .debug_loc     0x000000000000642f      0x3da .build/obj_redox_rev1_base_ad_rev3/quantum/command.o
 .debug_loc     0x0000000000006809      0x146 .build/obj_redox_rev1_base_ad_rev3/quantum/crc.o
 .debug_loc     0x000000000000694f      0x13b .build/obj_redox_rev1_base_ad_rev3/quantum/process_keycode/process_grave_esc.o
 .debug_loc     0x0000000000006a8a       0xc9 .build/obj_redox_rev1_base_ad_rev3/quantum/process_keycode/process_magic.o
 .debug_loc     0x0000000000006b53      0x32d .build/obj_redox_rev1_base_ad_rev3/quantum/mousekey.o
 .debug_loc     0x0000000000006e80      0xbdd .build/obj_redox_rev1_base_ad_rev3/quantum/send_string/send_string.o
 .debug_loc     0x0000000000007a5d      0x368 .build/obj_redox_rev1_base_ad_rev3/quantum/process_keycode/process_space_cadet.o
 .debug_loc     0x0000000000007dc5      0x753 .build/obj_redox_rev1_base_ad_rev3/quantum/process_keycode/process_tap_dance.o
 .debug_loc     0x0000000000008518      0x11e .build/obj_redox_rev1_base_ad_rev3/protocol/host.o
 .debug_loc     0x0000000000008636      0x23f .build/obj_redox_rev1_base_ad_rev3/protocol/report.o
 .debug_loc     0x0000000000008875       0xf9 .build/obj_redox_rev1_base_ad_rev3/protocol/usb_device_state.o
 .debug_loc     0x000000000000896e       0x41 .build/obj_redox_rev1_base_ad_rev3/platforms/suspend.o
 .debug_loc     0x00000000000089af       0x77 .build/obj_redox_rev1_base_ad_rev3/platforms/avr/suspend.o
 .debug_loc     0x0000000000008a26      0x21d .build/obj_redox_rev1_base_ad_rev3/platforms/avr/timer.o
 .debug_loc     0x0000000000008c43      0x92e .build/obj_redox_rev1_base_ad_rev3/serial.a(serial.o)
 .debug_loc     0x0000000000009571      0x3ff .build/obj_redox_rev1_base_ad_rev3/lufa.o
 .debug_loc     0x0000000000009970      0x30d .build/obj_redox_rev1_base_ad_rev3/usb_descriptor.o
 .debug_loc     0x0000000000009c7d     0x1a5d .build/obj_redox_rev1_base_ad_rev3/lib/lufa/LUFA/Drivers/USB/Core/AVR8/EndpointStream_AVR8.o
 .debug_loc     0x000000000000b6da      0x38d .build/obj_redox_rev1_base_ad_rev3/lib/lufa/LUFA/Drivers/USB/Core/AVR8/Endpoint_AVR8.o
 .debug_loc     0x000000000000ba67       0xd5 .build/obj_redox_rev1_base_ad_rev3/lib/lufa/LUFA/Drivers/USB/Core/AVR8/USBController_AVR8.o
 .debug_loc     0x000000000000bb3c      0x3f4 .build/obj_redox_rev1_base_ad_rev3/lib/lufa/LUFA/Drivers/USB/Core/AVR8/USBInterrupt_AVR8.o
 .debug_loc     0x000000000000bf30      0x2e0 .build/obj_redox_rev1_base_ad_rev3/lib/lufa/LUFA/Drivers/USB/Core/DeviceStandardReq.o
 .debug_loc     0x000000000000c210       0x49 .build/obj_redox_rev1_base_ad_rev3/lib/lufa/LUFA/Drivers/USB/Core/USBTask.o
 .debug_loc     0x000000000000c259       0x45 .build/obj_redox_rev1_base_ad_rev3/protocol/lufa/usb_util.o

.debug_macinfo
 *(.debug_macinfo)

.debug_weaknames
 *(.debug_weaknames)

.debug_funcnames
 *(.debug_funcnames)

.debug_typenames
 *(.debug_typenames)

.debug_varnames
 *(.debug_varnames)

.debug_pubtypes
 *(.debug_pubtypes)

.debug_ranges   0x0000000000000000     0x1580
 *(.debug_ranges)
 .debug_ranges  0x0000000000000000       0x30 .build/obj_redox_rev1_base_ad_rev3/quantum/keymap_introspection.o
 .debug_ranges  0x0000000000000030      0x100 .build/obj_redox_rev1_base_ad_rev3/quantum/quantum.o
 .debug_ranges  0x0000000000000130       0x60 .build/obj_redox_rev1_base_ad_rev3/quantum/led.o
 .debug_ranges  0x0000000000000190       0xd0 .build/obj_redox_rev1_base_ad_rev3/quantum/action.o
 .debug_ranges  0x0000000000000260      0x120 .build/obj_redox_rev1_base_ad_rev3/quantum/action_layer.o
 .debug_ranges  0x0000000000000380       0x68 .build/obj_redox_rev1_base_ad_rev3/quantum/action_tapping.o
 .debug_ranges  0x00000000000003e8      0x158 .build/obj_redox_rev1_base_ad_rev3/quantum/action_util.o
 .debug_ranges  0x0000000000000540       0xc8 .build/obj_redox_rev1_base_ad_rev3/quantum/eeconfig.o
 .debug_ranges  0x0000000000000608      0x100 .build/obj_redox_rev1_base_ad_rev3/quantum/keyboard.o
 .debug_ranges  0x0000000000000708       0x20 .build/obj_redox_rev1_base_ad_rev3/quantum/keymap_common.o
 .debug_ranges  0x0000000000000728       0x18 .build/obj_redox_rev1_base_ad_rev3/quantum/keycode_config.o
 .debug_ranges  0x0000000000000740       0x38 .build/obj_redox_rev1_base_ad_rev3/quantum/sync_timer.o
 .debug_ranges  0x0000000000000778       0x10 .build/obj_redox_rev1_base_ad_rev3/quantum/logging/sendchar.o
 .debug_ranges  0x0000000000000788       0x18 .build/obj_redox_rev1_base_ad_rev3/quantum/bootmagic/magic.o
 .debug_ranges  0x00000000000007a0       0x90 .build/obj_redox_rev1_base_ad_rev3/quantum/matrix_common.o
 .debug_ranges  0x0000000000000830       0x38 .build/obj_redox_rev1_base_ad_rev3/quantum/matrix.o
 .debug_ranges  0x0000000000000868       0x38 .build/obj_redox_rev1_base_ad_rev3/quantum/debounce/sym_defer_g.o
 .debug_ranges  0x00000000000008a0       0x60 .build/obj_redox_rev1_base_ad_rev3/quantum/split_common/split_util.o
 .debug_ranges  0x0000000000000900       0x30 .build/obj_redox_rev1_base_ad_rev3/quantum/split_common/transport.o
 .debug_ranges  0x0000000000000930       0x68 .build/obj_redox_rev1_base_ad_rev3/quantum/split_common/transactions.o
 .debug_ranges  0x0000000000000998       0x20 .build/obj_redox_rev1_base_ad_rev3/quantum/main.o
 .debug_ranges  0x00000000000009b8       0x10 .build/obj_redox_rev1_base_ad_rev3/platforms/avr/printf.o
 .debug_ranges  0x00000000000009c8       0x20 .build/obj_redox_rev1_base_ad_rev3/quantum/color.o
 .debug_ranges  0x00000000000009e8      0x2a0 .build/obj_redox_rev1_base_ad_rev3/quantum/rgblight/rgblight.o
 .debug_ranges  0x0000000000000c88       0x30 .build/obj_redox_rev1_base_ad_rev3/quantum/process_keycode/process_rgb.o
 .debug_ranges  0x0000000000000cb8       0x10 .build/obj_redox_rev1_base_ad_rev3/quantum/process_keycode/process_unicode.o
 .debug_ranges  0x0000000000000cc8       0x10 .build/obj_redox_rev1_base_ad_rev3/quantum/process_keycode/process_unicode_common.o
 .debug_ranges  0x0000000000000cd8       0xa0 .build/obj_redox_rev1_base_ad_rev3/quantum/unicode/unicode.o
 .debug_ranges  0x0000000000000d78       0x10 .build/obj_redox_rev1_base_ad_rev3/ws2812_bitbang.o
 .debug_ranges  0x0000000000000d88       0x40 .build/obj_redox_rev1_base_ad_rev3/quantum/command.o
 .debug_ranges  0x0000000000000dc8       0x18 .build/obj_redox_rev1_base_ad_rev3/quantum/crc.o
 .debug_ranges  0x0000000000000de0       0x10 .build/obj_redox_rev1_base_ad_rev3/quantum/process_keycode/process_grave_esc.o
 .debug_ranges  0x0000000000000df0       0x10 .build/obj_redox_rev1_base_ad_rev3/quantum/process_keycode/process_magic.o
 .debug_ranges  0x0000000000000e00       0x58 .build/obj_redox_rev1_base_ad_rev3/quantum/mousekey.o
 .debug_ranges  0x0000000000000e58       0x88 .build/obj_redox_rev1_base_ad_rev3/quantum/send_string/send_string.o
 .debug_ranges  0x0000000000000ee0       0x18 .build/obj_redox_rev1_base_ad_rev3/quantum/process_keycode/process_space_cadet.o
 .debug_ranges  0x0000000000000ef8       0x70 .build/obj_redox_rev1_base_ad_rev3/quantum/process_keycode/process_tap_dance.o
 .debug_ranges  0x0000000000000f68       0x70 .build/obj_redox_rev1_base_ad_rev3/protocol/host.o
 .debug_ranges  0x0000000000000fd8       0x68 .build/obj_redox_rev1_base_ad_rev3/protocol/report.o
 .debug_ranges  0x0000000000001040       0x30 .build/obj_redox_rev1_base_ad_rev3/protocol/usb_device_state.o
 .debug_ranges  0x0000000000001070       0x28 .build/obj_redox_rev1_base_ad_rev3/platforms/suspend.o
 .debug_ranges  0x0000000000001098       0x10 .build/obj_redox_rev1_base_ad_rev3/platforms/avr/platform.o
 .debug_ranges  0x00000000000010a8       0x20 .build/obj_redox_rev1_base_ad_rev3/platforms/avr/suspend.o
 .debug_ranges  0x00000000000010c8       0x40 .build/obj_redox_rev1_base_ad_rev3/platforms/avr/timer.o
 .debug_ranges  0x0000000000001108       0x18 .build/obj_redox_rev1_base_ad_rev3/platforms/avr/bootloaders/caterina.o
 .debug_ranges  0x0000000000001120       0x58 .build/obj_redox_rev1_base_ad_rev3/serial.a(serial.o)
 .debug_ranges  0x0000000000001178       0xa0 .build/obj_redox_rev1_base_ad_rev3/lufa.o
 .debug_ranges  0x0000000000001218       0x28 .build/obj_redox_rev1_base_ad_rev3/usb_descriptor.o
 .debug_ranges  0x0000000000001240       0x10 .build/obj_redox_rev1_base_ad_rev3/lib/lufa/LUFA/Drivers/USB/Core/AVR8/Device_AVR8.o
 .debug_ranges  0x0000000000001250      0x1f8 .build/obj_redox_rev1_base_ad_rev3/lib/lufa/LUFA/Drivers/USB/Core/AVR8/EndpointStream_AVR8.o
 .debug_ranges  0x0000000000001448       0x78 .build/obj_redox_rev1_base_ad_rev3/lib/lufa/LUFA/Drivers/USB/Core/AVR8/Endpoint_AVR8.o
 .debug_ranges  0x00000000000014c0       0x20 .build/obj_redox_rev1_base_ad_rev3/lib/lufa/LUFA/Drivers/USB/Core/AVR8/USBController_AVR8.o
 .debug_ranges  0x00000000000014e0       0x28 .build/obj_redox_rev1_base_ad_rev3/lib/lufa/LUFA/Drivers/USB/Core/AVR8/USBInterrupt_AVR8.o
 .debug_ranges  0x0000000000001508       0x28 .build/obj_redox_rev1_base_ad_rev3/lib/lufa/LUFA/Drivers/USB/Core/DeviceStandardReq.o
 .debug_ranges  0x0000000000001530       0x20 .build/obj_redox_rev1_base_ad_rev3/lib/lufa/LUFA/Drivers/USB/Core/Events.o
 .debug_ranges  0x0000000000001550       0x10 .build/obj_redox_rev1_base_ad_rev3/lib/lufa/LUFA/Drivers/USB/Core/USBTask.o
 .debug_ranges  0x0000000000001560       0x20 .build/obj_redox_rev1_base_ad_rev3/protocol/lufa/usb_util.o

.debug_macro
 *(.debug_macro)
OUTPUT(.build/redox_rev1_base_ad_rev3.elf elf32-avr)
LOAD linker stubs

Cross Reference Table

Symbol                                            File
CALLBACK_HIDParser_FilterHIDReportItem            .build/obj_redox_rev1_base_ad_rev3/lib/lufa/LUFA/Drivers/USB/Class/Common/HIDParser.o
CALLBACK_USB_GetDescriptor                        .build/obj_redox_rev1_base_ad_rev3/lufa.o
                                                  .build/obj_redox_rev1_base_ad_rev3/lib/lufa/LUFA/Drivers/USB/Core/DeviceStandardReq.o
CIE1931_CURVE                                     .build/obj_redox_rev1_base_ad_rev3/quantum/led_tables.o
                                                  .build/obj_redox_rev1_base_ad_rev3/quantum/color.o
ConfigurationDescriptor                           .build/obj_redox_rev1_base_ad_rev3/usb_descriptor.o
DeviceDescriptor                                  .build/obj_redox_rev1_base_ad_rev3/usb_descriptor.o
EVENT_USB_Device_ConfigurationChanged             .build/obj_redox_rev1_base_ad_rev3/lufa.o
                                                  .build/obj_redox_rev1_base_ad_rev3/lib/lufa/LUFA/Drivers/USB/Core/DeviceStandardReq.o
EVENT_USB_Device_Connect                          .build/obj_redox_rev1_base_ad_rev3/lufa.o
                                                  .build/obj_redox_rev1_base_ad_rev3/lib/lufa/LUFA/Drivers/USB/Core/AVR8/USBInterrupt_AVR8.o
EVENT_USB_Device_ControlRequest                   .build/obj_redox_rev1_base_ad_rev3/lufa.o
                                                  .build/obj_redox_rev1_base_ad_rev3/lib/lufa/LUFA/Drivers/USB/Core/DeviceStandardReq.o
EVENT_USB_Device_Disconnect                       .build/obj_redox_rev1_base_ad_rev3/lufa.o
                                                  .build/obj_redox_rev1_base_ad_rev3/lib/lufa/LUFA/Drivers/USB/Core/AVR8/USBInterrupt_AVR8.o
EVENT_USB_Device_Reset                            .build/obj_redox_rev1_base_ad_rev3/lufa.o
                                                  .build/obj_redox_rev1_base_ad_rev3/lib/lufa/LUFA/Drivers/USB/Core/AVR8/USBInterrupt_AVR8.o
EVENT_USB_Device_StartOfFrame                     .build/obj_redox_rev1_base_ad_rev3/lib/lufa/LUFA/Drivers/USB/Core/Events.o
                                                  .build/obj_redox_rev1_base_ad_rev3/lib/lufa/LUFA/Drivers/USB/Core/AVR8/USBInterrupt_AVR8.o
EVENT_USB_Device_Suspend                          .build/obj_redox_rev1_base_ad_rev3/lufa.o
                                                  .build/obj_redox_rev1_base_ad_rev3/lib/lufa/LUFA/Drivers/USB/Core/AVR8/USBInterrupt_AVR8.o
EVENT_USB_Device_WakeUp                           .build/obj_redox_rev1_base_ad_rev3/lufa.o
                                                  .build/obj_redox_rev1_base_ad_rev3/lib/lufa/LUFA/Drivers/USB/Core/AVR8/USBInterrupt_AVR8.o
Endpoint_ClearEndpoints                           .build/obj_redox_rev1_base_ad_rev3/lib/lufa/LUFA/Drivers/USB/Core/AVR8/Endpoint_AVR8.o
Endpoint_ClearStatusStage                         .build/obj_redox_rev1_base_ad_rev3/lib/lufa/LUFA/Drivers/USB/Core/AVR8/Endpoint_AVR8.o
                                                  .build/obj_redox_rev1_base_ad_rev3/lib/lufa/LUFA/Drivers/USB/Core/DeviceStandardReq.o
                                                  .build/obj_redox_rev1_base_ad_rev3/lufa.o
Endpoint_ConfigureEndpointTable                   .build/obj_redox_rev1_base_ad_rev3/lib/lufa/LUFA/Drivers/USB/Core/AVR8/Endpoint_AVR8.o
Endpoint_ConfigureEndpoint_Prv                    .build/obj_redox_rev1_base_ad_rev3/lib/lufa/LUFA/Drivers/USB/Core/AVR8/Endpoint_AVR8.o
                                                  .build/obj_redox_rev1_base_ad_rev3/lib/lufa/LUFA/Drivers/USB/Core/AVR8/USBInterrupt_AVR8.o
                                                  .build/obj_redox_rev1_base_ad_rev3/lib/lufa/LUFA/Drivers/USB/Core/AVR8/USBController_AVR8.o
                                                  .build/obj_redox_rev1_base_ad_rev3/lufa.o
Endpoint_Discard_Stream                           .build/obj_redox_rev1_base_ad_rev3/lib/lufa/LUFA/Drivers/USB/Core/AVR8/EndpointStream_AVR8.o
Endpoint_Null_Stream                              .build/obj_redox_rev1_base_ad_rev3/lib/lufa/LUFA/Drivers/USB/Core/AVR8/EndpointStream_AVR8.o
Endpoint_Read_Control_EStream_BE                  .build/obj_redox_rev1_base_ad_rev3/lib/lufa/LUFA/Drivers/USB/Core/AVR8/EndpointStream_AVR8.o
Endpoint_Read_Control_EStream_LE                  .build/obj_redox_rev1_base_ad_rev3/lib/lufa/LUFA/Drivers/USB/Core/AVR8/EndpointStream_AVR8.o
Endpoint_Read_Control_Stream_BE                   .build/obj_redox_rev1_base_ad_rev3/lib/lufa/LUFA/Drivers/USB/Core/AVR8/EndpointStream_AVR8.o
Endpoint_Read_Control_Stream_LE                   .build/obj_redox_rev1_base_ad_rev3/lib/lufa/LUFA/Drivers/USB/Core/AVR8/EndpointStream_AVR8.o
Endpoint_Read_EStream_BE                          .build/obj_redox_rev1_base_ad_rev3/lib/lufa/LUFA/Drivers/USB/Core/AVR8/EndpointStream_AVR8.o
Endpoint_Read_EStream_LE                          .build/obj_redox_rev1_base_ad_rev3/lib/lufa/LUFA/Drivers/USB/Core/AVR8/EndpointStream_AVR8.o
Endpoint_Read_Stream_BE                           .build/obj_redox_rev1_base_ad_rev3/lib/lufa/LUFA/Drivers/USB/Core/AVR8/EndpointStream_AVR8.o
Endpoint_Read_Stream_LE                           .build/obj_redox_rev1_base_ad_rev3/lib/lufa/LUFA/Drivers/USB/Core/AVR8/EndpointStream_AVR8.o
Endpoint_WaitUntilReady                           .build/obj_redox_rev1_base_ad_rev3/lib/lufa/LUFA/Drivers/USB/Core/AVR8/Endpoint_AVR8.o
                                                  .build/obj_redox_rev1_base_ad_rev3/lib/lufa/LUFA/Drivers/USB/Core/AVR8/EndpointStream_AVR8.o
Endpoint_Write_Control_EStream_BE                 .build/obj_redox_rev1_base_ad_rev3/lib/lufa/LUFA/Drivers/USB/Core/AVR8/EndpointStream_AVR8.o
Endpoint_Write_Control_EStream_LE                 .build/obj_redox_rev1_base_ad_rev3/lib/lufa/LUFA/Drivers/USB/Core/AVR8/EndpointStream_AVR8.o
Endpoint_Write_Control_PStream_BE                 .build/obj_redox_rev1_base_ad_rev3/lib/lufa/LUFA/Drivers/USB/Core/AVR8/EndpointStream_AVR8.o
Endpoint_Write_Control_PStream_LE                 .build/obj_redox_rev1_base_ad_rev3/lib/lufa/LUFA/Drivers/USB/Core/AVR8/EndpointStream_AVR8.o
                                                  .build/obj_redox_rev1_base_ad_rev3/lib/lufa/LUFA/Drivers/USB/Core/DeviceStandardReq.o
Endpoint_Write_Control_Stream_BE                  .build/obj_redox_rev1_base_ad_rev3/lib/lufa/LUFA/Drivers/USB/Core/AVR8/EndpointStream_AVR8.o
Endpoint_Write_Control_Stream_LE                  .build/obj_redox_rev1_base_ad_rev3/lib/lufa/LUFA/Drivers/USB/Core/AVR8/EndpointStream_AVR8.o
                                                  .build/obj_redox_rev1_base_ad_rev3/lib/lufa/LUFA/Drivers/USB/Core/DeviceStandardReq.o
                                                  .build/obj_redox_rev1_base_ad_rev3/lufa.o
Endpoint_Write_EStream_BE                         .build/obj_redox_rev1_base_ad_rev3/lib/lufa/LUFA/Drivers/USB/Core/AVR8/EndpointStream_AVR8.o
Endpoint_Write_EStream_LE                         .build/obj_redox_rev1_base_ad_rev3/lib/lufa/LUFA/Drivers/USB/Core/AVR8/EndpointStream_AVR8.o
Endpoint_Write_PStream_BE                         .build/obj_redox_rev1_base_ad_rev3/lib/lufa/LUFA/Drivers/USB/Core/AVR8/EndpointStream_AVR8.o
Endpoint_Write_PStream_LE                         .build/obj_redox_rev1_base_ad_rev3/lib/lufa/LUFA/Drivers/USB/Core/AVR8/EndpointStream_AVR8.o
Endpoint_Write_Stream_BE                          .build/obj_redox_rev1_base_ad_rev3/lib/lufa/LUFA/Drivers/USB/Core/AVR8/EndpointStream_AVR8.o
Endpoint_Write_Stream_LE                          .build/obj_redox_rev1_base_ad_rev3/lib/lufa/LUFA/Drivers/USB/Core/AVR8/EndpointStream_AVR8.o
                                                  .build/obj_redox_rev1_base_ad_rev3/lufa.o
KeyboardReport                                    .build/obj_redox_rev1_base_ad_rev3/usb_descriptor.o
LanguageString                                    .build/obj_redox_rev1_base_ad_rev3/usb_descriptor.o
ManufacturerString                                .build/obj_redox_rev1_base_ad_rev3/usb_descriptor.o
ProductString                                     .build/obj_redox_rev1_base_ad_rev3/usb_descriptor.o
SharedReport                                      .build/obj_redox_rev1_base_ad_rev3/usb_descriptor.o
USB_ControlRequest                                .build/obj_redox_rev1_base_ad_rev3/lib/lufa/LUFA/Drivers/USB/Core/USBTask.o
                                                  .build/obj_redox_rev1_base_ad_rev3/lib/lufa/LUFA/Drivers/USB/Core/DeviceStandardReq.o
                                                  .build/obj_redox_rev1_base_ad_rev3/lib/lufa/LUFA/Drivers/USB/Core/AVR8/Endpoint_AVR8.o
                                                  .build/obj_redox_rev1_base_ad_rev3/lib/lufa/LUFA/Drivers/USB/Core/AVR8/EndpointStream_AVR8.o
                                                  .build/obj_redox_rev1_base_ad_rev3/lufa.o
USB_DeviceState                                   .build/obj_redox_rev1_base_ad_rev3/lib/lufa/LUFA/Drivers/USB/Core/USBTask.o
                                                  .build/obj_redox_rev1_base_ad_rev3/protocol/lufa/usb_util.o
                                                  .build/obj_redox_rev1_base_ad_rev3/lib/lufa/LUFA/Drivers/USB/Core/DeviceStandardReq.o
                                                  .build/obj_redox_rev1_base_ad_rev3/lib/lufa/LUFA/Drivers/USB/Core/AVR8/USBInterrupt_AVR8.o
                                                  .build/obj_redox_rev1_base_ad_rev3/lib/lufa/LUFA/Drivers/USB/Core/AVR8/USBController_AVR8.o
                                                  .build/obj_redox_rev1_base_ad_rev3/lib/lufa/LUFA/Drivers/USB/Core/AVR8/Endpoint_AVR8.o
                                                  .build/obj_redox_rev1_base_ad_rev3/lib/lufa/LUFA/Drivers/USB/Core/AVR8/EndpointStream_AVR8.o
                                                  .build/obj_redox_rev1_base_ad_rev3/lufa.o
                                                  .build/obj_redox_rev1_base_ad_rev3/platforms/avr/suspend.o
USB_Device_ConfigurationNumber                    .build/obj_redox_rev1_base_ad_rev3/lib/lufa/LUFA/Drivers/USB/Core/DeviceStandardReq.o
                                                  .build/obj_redox_rev1_base_ad_rev3/lib/lufa/LUFA/Drivers/USB/Core/AVR8/USBInterrupt_AVR8.o
                                                  .build/obj_redox_rev1_base_ad_rev3/lib/lufa/LUFA/Drivers/USB/Core/AVR8/USBController_AVR8.o
                                                  .build/obj_redox_rev1_base_ad_rev3/lufa.o
USB_Device_CurrentlySelfPowered                   .build/obj_redox_rev1_base_ad_rev3/lib/lufa/LUFA/Drivers/USB/Core/DeviceStandardReq.o
                                                  .build/obj_redox_rev1_base_ad_rev3/lib/lufa/LUFA/Drivers/USB/Core/AVR8/USBController_AVR8.o
USB_Device_ProcessControlRequest                  .build/obj_redox_rev1_base_ad_rev3/lib/lufa/LUFA/Drivers/USB/Core/DeviceStandardReq.o
                                                  .build/obj_redox_rev1_base_ad_rev3/lib/lufa/LUFA/Drivers/USB/Core/USBTask.o
                                                  .build/obj_redox_rev1_base_ad_rev3/lib/lufa/LUFA/Drivers/USB/Core/AVR8/USBInterrupt_AVR8.o
USB_Device_RemoteWakeupEnabled                    .build/obj_redox_rev1_base_ad_rev3/lib/lufa/LUFA/Drivers/USB/Core/DeviceStandardReq.o
                                                  .build/obj_redox_rev1_base_ad_rev3/lib/lufa/LUFA/Drivers/USB/Core/AVR8/USBController_AVR8.o
                                                  .build/obj_redox_rev1_base_ad_rev3/lufa.o
USB_Device_SendRemoteWakeup                       .build/obj_redox_rev1_base_ad_rev3/lib/lufa/LUFA/Drivers/USB/Core/AVR8/Device_AVR8.o
                                                  .build/obj_redox_rev1_base_ad_rev3/lufa.o
USB_Disable                                       .build/obj_redox_rev1_base_ad_rev3/lib/lufa/LUFA/Drivers/USB/Core/AVR8/USBController_AVR8.o
                                                  .build/obj_redox_rev1_base_ad_rev3/protocol/lufa/usb_util.o
                                                  .build/obj_redox_rev1_base_ad_rev3/lufa.o
USB_Event_Stub                                    .build/obj_redox_rev1_base_ad_rev3/lib/lufa/LUFA/Drivers/USB/Core/Events.o
USB_Event_Stub_2                                  .build/obj_redox_rev1_base_ad_rev3/lib/lufa/LUFA/Drivers/USB/Core/Events.o
USB_Event_Stub_3                                  .build/obj_redox_rev1_base_ad_rev3/lib/lufa/LUFA/Drivers/USB/Core/Events.o
USB_GetHIDReportItemInfo                          .build/obj_redox_rev1_base_ad_rev3/lib/lufa/LUFA/Drivers/USB/Class/Common/HIDParser.o
USB_GetHIDReportSize                              .build/obj_redox_rev1_base_ad_rev3/lib/lufa/LUFA/Drivers/USB/Class/Common/HIDParser.o
USB_GetNextDescriptorComp                         .build/obj_redox_rev1_base_ad_rev3/lib/lufa/LUFA/Drivers/USB/Core/ConfigDescriptors.o
USB_GetNextDescriptorOfType                       .build/obj_redox_rev1_base_ad_rev3/lib/lufa/LUFA/Drivers/USB/Core/ConfigDescriptors.o
USB_GetNextDescriptorOfTypeAfter                  .build/obj_redox_rev1_base_ad_rev3/lib/lufa/LUFA/Drivers/USB/Core/ConfigDescriptors.o
USB_GetNextDescriptorOfTypeBefore                 .build/obj_redox_rev1_base_ad_rev3/lib/lufa/LUFA/Drivers/USB/Core/ConfigDescriptors.o
USB_INT_ClearAllInterrupts                        .build/obj_redox_rev1_base_ad_rev3/lib/lufa/LUFA/Drivers/USB/Core/AVR8/USBInterrupt_AVR8.o
                                                  .build/obj_redox_rev1_base_ad_rev3/lib/lufa/LUFA/Drivers/USB/Core/AVR8/USBController_AVR8.o
USB_INT_DisableAllInterrupts                      .build/obj_redox_rev1_base_ad_rev3/lib/lufa/LUFA/Drivers/USB/Core/AVR8/USBInterrupt_AVR8.o
                                                  .build/obj_redox_rev1_base_ad_rev3/lib/lufa/LUFA/Drivers/USB/Core/AVR8/USBController_AVR8.o
USB_Init                                          .build/obj_redox_rev1_base_ad_rev3/lib/lufa/LUFA/Drivers/USB/Core/AVR8/USBController_AVR8.o
                                                  .build/obj_redox_rev1_base_ad_rev3/lufa.o
USB_IsInitialized                                 .build/obj_redox_rev1_base_ad_rev3/lib/lufa/LUFA/Drivers/USB/Core/USBTask.o
                                                  .build/obj_redox_rev1_base_ad_rev3/lib/lufa/LUFA/Drivers/USB/Core/AVR8/USBController_AVR8.o
                                                  .build/obj_redox_rev1_base_ad_rev3/lufa.o
USB_ProcessHIDReport                              .build/obj_redox_rev1_base_ad_rev3/lib/lufa/LUFA/Drivers/USB/Class/Common/HIDParser.o
USB_ResetInterface                                .build/obj_redox_rev1_base_ad_rev3/lib/lufa/LUFA/Drivers/USB/Core/AVR8/USBController_AVR8.o
USB_SetHIDReportItemInfo                          .build/obj_redox_rev1_base_ad_rev3/lib/lufa/LUFA/Drivers/USB/Class/Common/HIDParser.o
USB_USBTask                                       .build/obj_redox_rev1_base_ad_rev3/lib/lufa/LUFA/Drivers/USB/Core/USBTask.o
                                                  .build/obj_redox_rev1_base_ad_rev3/lufa.o
__DATA_REGION_LENGTH__                            /usr/lib/gcc/avr/5.4.0/../../../avr/lib/avr5/crtatmega32u4.o
__DATA_REGION_ORIGIN__                            /usr/lib/gcc/avr/5.4.0/../../../avr/lib/avr5/crtatmega32u4.o
__EEPROM_REGION_LENGTH__                          /usr/lib/gcc/avr/5.4.0/../../../avr/lib/avr5/crtatmega32u4.o
__FUSE_REGION_LENGTH__                            /usr/lib/gcc/avr/5.4.0/../../../avr/lib/avr5/crtatmega32u4.o
__TEXT_REGION_LENGTH__                            /usr/lib/gcc/avr/5.4.0/../../../avr/lib/avr5/crtatmega32u4.o
__ashldi3                                         /usr/lib/gcc/avr/5.4.0/avr5/libgcc.a(_ashldi3.o)
                                                  .build/obj_redox_rev1_base_ad_rev3/quantum/rgblight/rgblight.o
__ashrdi3                                         /usr/lib/gcc/avr/5.4.0/avr5/libgcc.a(_ashrdi3.o)
__bad_interrupt                                   /usr/lib/gcc/avr/5.4.0/../../../avr/lib/avr5/crtatmega32u4.o
__bss_end                                         /usr/lib/gcc/avr/5.4.0/avr5/libgcc.a(_clear_bss.o)
__bss_start                                       /usr/lib/gcc/avr/5.4.0/avr5/libgcc.a(_clear_bss.o)
__data_end                                        /usr/lib/gcc/avr/5.4.0/avr5/libgcc.a(_copy_data.o)
__data_load_start                                 /usr/lib/gcc/avr/5.4.0/avr5/libgcc.a(_copy_data.o)
__data_start                                      /usr/lib/gcc/avr/5.4.0/avr5/libgcc.a(_copy_data.o)
__divmodhi4                                       /usr/lib/gcc/avr/5.4.0/avr5/libgcc.a(_divmodhi4.o)
                                                  .build/obj_redox_rev1_base_ad_rev3/quantum/mousekey.o
                                                  .build/obj_redox_rev1_base_ad_rev3/quantum/unicode/unicode.o
__do_clear_bss                                    /usr/lib/gcc/avr/5.4.0/avr5/libgcc.a(_clear_bss.o)
                                                  .build/obj_redox_rev1_base_ad_rev3/lib/lufa/LUFA/Drivers/USB/Core/USBTask.o
                                                  .build/obj_redox_rev1_base_ad_rev3/lib/lufa/LUFA/Drivers/USB/Core/DeviceStandardReq.o
                                                  .build/obj_redox_rev1_base_ad_rev3/lufa.o
                                                  .build/obj_redox_rev1_base_ad_rev3/platforms/avr/timer.o
                                                  .build/obj_redox_rev1_base_ad_rev3/platforms/avr/suspend.o
                                                  .build/obj_redox_rev1_base_ad_rev3/protocol/usb_device_state.o
                                                  .build/obj_redox_rev1_base_ad_rev3/protocol/host.o
                                                  .build/obj_redox_rev1_base_ad_rev3/quantum/process_keycode/process_tap_dance.o
                                                  .build/obj_redox_rev1_base_ad_rev3/quantum/process_keycode/process_space_cadet.o
                                                  .build/obj_redox_rev1_base_ad_rev3/quantum/mousekey.o
                                                  .build/obj_redox_rev1_base_ad_rev3/quantum/process_keycode/process_grave_esc.o
                                                  .build/obj_redox_rev1_base_ad_rev3/quantum/command.o
                                                  .build/obj_redox_rev1_base_ad_rev3/quantum/unicode/unicode.o
                                                  .build/obj_redox_rev1_base_ad_rev3/quantum/rgblight/rgblight.o
                                                  .build/obj_redox_rev1_base_ad_rev3/quantum/split_common/transactions.o
                                                  .build/obj_redox_rev1_base_ad_rev3/quantum/split_common/transport.o
                                                  .build/obj_redox_rev1_base_ad_rev3/quantum/split_common/split_util.o
                                                  .build/obj_redox_rev1_base_ad_rev3/quantum/debounce/sym_defer_g.o
                                                  .build/obj_redox_rev1_base_ad_rev3/quantum/matrix_common.o
                                                  .build/obj_redox_rev1_base_ad_rev3/quantum/bootmagic/magic.o
                                                  .build/obj_redox_rev1_base_ad_rev3/quantum/logging/debug.o
                                                  .build/obj_redox_rev1_base_ad_rev3/quantum/sync_timer.o
                                                  .build/obj_redox_rev1_base_ad_rev3/quantum/keyboard.o
                                                  .build/obj_redox_rev1_base_ad_rev3/quantum/action_util.o
                                                  .build/obj_redox_rev1_base_ad_rev3/quantum/action_tapping.o
                                                  .build/obj_redox_rev1_base_ad_rev3/quantum/action_layer.o
                                                  .build/obj_redox_rev1_base_ad_rev3/quantum/action.o
                                                  .build/obj_redox_rev1_base_ad_rev3/quantum/led.o
                                                  .build/obj_redox_rev1_base_ad_rev3/quantum/quantum.o
                                                  .build/obj_redox_rev1_base_ad_rev3/quantum/keymap_introspection.o
__do_copy_data                                    /usr/lib/gcc/avr/5.4.0/avr5/libgcc.a(_copy_data.o)
                                                  .build/obj_redox_rev1_base_ad_rev3/lufa.o
                                                  .build/obj_redox_rev1_base_ad_rev3/quantum/mousekey.o
                                                  .build/obj_redox_rev1_base_ad_rev3/quantum/unicode/unicode.o
                                                  .build/obj_redox_rev1_base_ad_rev3/quantum/rgblight/rgblight.o
                                                  .build/obj_redox_rev1_base_ad_rev3/quantum/split_common/transactions.o
                                                  .build/obj_redox_rev1_base_ad_rev3/quantum/split_common/transport.o
                                                  .build/obj_redox_rev1_base_ad_rev3/quantum/split_common/split_util.o
                                                  .build/obj_redox_rev1_base_ad_rev3/quantum/matrix.o
                                                  .build/obj_redox_rev1_base_ad_rev3/quantum/keymap_common.o
                                                  .build/obj_redox_rev1_base_ad_rev3/quantum/action_util.o
                                                  .build/obj_redox_rev1_base_ad_rev3/quantum/action.o
                                                  .build/obj_redox_rev1_base_ad_rev3/quantum/quantum.o
__epilogue_restores__                             /usr/lib/gcc/avr/5.4.0/avr5/libgcc.a(_epilogue.o)
                                                  .build/obj_redox_rev1_base_ad_rev3/lib/lufa/LUFA/Drivers/USB/Core/DeviceStandardReq.o
                                                  .build/obj_redox_rev1_base_ad_rev3/lib/lufa/LUFA/Drivers/USB/Core/ConfigDescriptors.o
                                                  .build/obj_redox_rev1_base_ad_rev3/lib/lufa/LUFA/Drivers/USB/Core/AVR8/EndpointStream_AVR8.o
                                                  .build/obj_redox_rev1_base_ad_rev3/lib/lufa/LUFA/Drivers/USB/Class/Common/HIDParser.o
                                                  .build/obj_redox_rev1_base_ad_rev3/serial.a(serial.o)
                                                  .build/obj_redox_rev1_base_ad_rev3/platforms/avr/hardware_id.o
                                                  .build/obj_redox_rev1_base_ad_rev3/protocol/host.o
                                                  .build/obj_redox_rev1_base_ad_rev3/quantum/process_keycode/process_tap_dance.o
                                                  .build/obj_redox_rev1_base_ad_rev3/quantum/send_string/send_string.o
                                                  .build/obj_redox_rev1_base_ad_rev3/quantum/mousekey.o
                                                  .build/obj_redox_rev1_base_ad_rev3/quantum/unicode/unicode.o
                                                  .build/obj_redox_rev1_base_ad_rev3/quantum/rgblight/rgblight.o
                                                  .build/obj_redox_rev1_base_ad_rev3/quantum/color.o
                                                  .build/obj_redox_rev1_base_ad_rev3/quantum/split_common/transactions.o
                                                  .build/obj_redox_rev1_base_ad_rev3/quantum/split_common/transport.o
                                                  .build/obj_redox_rev1_base_ad_rev3/quantum/debounce/sym_defer_g.o
                                                  .build/obj_redox_rev1_base_ad_rev3/quantum/matrix.o
                                                  .build/obj_redox_rev1_base_ad_rev3/quantum/matrix_common.o
                                                  .build/obj_redox_rev1_base_ad_rev3/quantum/keyboard.o
                                                  .build/obj_redox_rev1_base_ad_rev3/quantum/eeconfig.o
                                                  .build/obj_redox_rev1_base_ad_rev3/quantum/action_tapping.o
                                                  .build/obj_redox_rev1_base_ad_rev3/quantum/action_layer.o
                                                  .build/obj_redox_rev1_base_ad_rev3/quantum/action.o
                                                  .build/obj_redox_rev1_base_ad_rev3/quantum/bitwise.o
                                                  .build/obj_redox_rev1_base_ad_rev3/quantum/quantum.o
__heap_end                                        /usr/lib/gcc/avr/5.4.0/../../../avr/lib/avr5/crtatmega32u4.o
__init                                            /usr/lib/gcc/avr/5.4.0/../../../avr/lib/avr5/crtatmega32u4.o
__lshrdi3                                         /usr/lib/gcc/avr/5.4.0/avr5/libgcc.a(_ashrdi3.o)
                                                  .build/obj_redox_rev1_base_ad_rev3/quantum/rgblight/rgblight.o
__prologue_saves__                                /usr/lib/gcc/avr/5.4.0/avr5/libgcc.a(_prologue.o)
                                                  .build/obj_redox_rev1_base_ad_rev3/lib/lufa/LUFA/Drivers/USB/Core/DeviceStandardReq.o
                                                  .build/obj_redox_rev1_base_ad_rev3/lib/lufa/LUFA/Drivers/USB/Core/ConfigDescriptors.o
                                                  .build/obj_redox_rev1_base_ad_rev3/lib/lufa/LUFA/Drivers/USB/Core/AVR8/EndpointStream_AVR8.o
                                                  .build/obj_redox_rev1_base_ad_rev3/lib/lufa/LUFA/Drivers/USB/Class/Common/HIDParser.o
                                                  .build/obj_redox_rev1_base_ad_rev3/serial.a(serial.o)
                                                  .build/obj_redox_rev1_base_ad_rev3/platforms/avr/hardware_id.o
                                                  .build/obj_redox_rev1_base_ad_rev3/protocol/host.o
                                                  .build/obj_redox_rev1_base_ad_rev3/quantum/send_string/send_string.o
                                                  .build/obj_redox_rev1_base_ad_rev3/quantum/mousekey.o
                                                  .build/obj_redox_rev1_base_ad_rev3/quantum/unicode/unicode.o
                                                  .build/obj_redox_rev1_base_ad_rev3/quantum/rgblight/rgblight.o
                                                  .build/obj_redox_rev1_base_ad_rev3/quantum/split_common/transactions.o
                                                  .build/obj_redox_rev1_base_ad_rev3/quantum/split_common/transport.o
                                                  .build/obj_redox_rev1_base_ad_rev3/quantum/matrix.o
                                                  .build/obj_redox_rev1_base_ad_rev3/quantum/matrix_common.o
                                                  .build/obj_redox_rev1_base_ad_rev3/quantum/keyboard.o
                                                  .build/obj_redox_rev1_base_ad_rev3/quantum/eeconfig.o
                                                  .build/obj_redox_rev1_base_ad_rev3/quantum/action_tapping.o
                                                  .build/obj_redox_rev1_base_ad_rev3/quantum/action_layer.o
                                                  .build/obj_redox_rev1_base_ad_rev3/quantum/action.o
                                                  .build/obj_redox_rev1_base_ad_rev3/quantum/bitwise.o
                                                  .build/obj_redox_rev1_base_ad_rev3/quantum/quantum.o
__stack                                           /usr/lib/gcc/avr/5.4.0/../../../avr/lib/avr5/crtatmega32u4.o
__tablejump2__                                    /usr/lib/gcc/avr/5.4.0/avr5/libgcc.a(_tablejump2.o)
                                                  .build/obj_redox_rev1_base_ad_rev3/lib/lufa/LUFA/Drivers/USB/Core/DeviceStandardReq.o
                                                  .build/obj_redox_rev1_base_ad_rev3/quantum/process_keycode/process_space_cadet.o
                                                  .build/obj_redox_rev1_base_ad_rev3/quantum/process_keycode/process_magic.o
                                                  .build/obj_redox_rev1_base_ad_rev3/quantum/process_keycode/process_unicode_common.o
                                                  .build/obj_redox_rev1_base_ad_rev3/quantum/process_keycode/process_rgb.o
                                                  .build/obj_redox_rev1_base_ad_rev3/quantum/action.o
__udivmodhi4                                      /usr/lib/gcc/avr/5.4.0/avr5/libgcc.a(_udivmodhi4.o)
                                                  /usr/lib/gcc/avr/5.4.0/avr5/libgcc.a(_divmodhi4.o)
                                                  .build/obj_redox_rev1_base_ad_rev3/quantum/color.o
__udivmodsi4                                      /usr/lib/gcc/avr/5.4.0/avr5/libgcc.a(_udivmodsi4.o)
                                                  .build/obj_redox_rev1_base_ad_rev3/quantum/quantum.o
__vector_1                                        .build/obj_redox_rev1_base_ad_rev3/serial.a(serial.o)
                                                  /usr/lib/gcc/avr/5.4.0/../../../avr/lib/avr5/crtatmega32u4.o
__vector_10                                       .build/obj_redox_rev1_base_ad_rev3/lib/lufa/LUFA/Drivers/USB/Core/AVR8/USBInterrupt_AVR8.o
                                                  /usr/lib/gcc/avr/5.4.0/../../../avr/lib/avr5/crtatmega32u4.o
__vector_11                                       .build/obj_redox_rev1_base_ad_rev3/lib/lufa/LUFA/Drivers/USB/Core/AVR8/USBInterrupt_AVR8.o
                                                  /usr/lib/gcc/avr/5.4.0/../../../avr/lib/avr5/crtatmega32u4.o
__vector_12                                       .build/obj_redox_rev1_base_ad_rev3/platforms/avr/suspend.o
                                                  /usr/lib/gcc/avr/5.4.0/../../../avr/lib/avr5/crtatmega32u4.o
__vector_13                                       /usr/lib/gcc/avr/5.4.0/../../../avr/lib/avr5/crtatmega32u4.o
__vector_14                                       /usr/lib/gcc/avr/5.4.0/../../../avr/lib/avr5/crtatmega32u4.o
__vector_15                                       /usr/lib/gcc/avr/5.4.0/../../../avr/lib/avr5/crtatmega32u4.o
__vector_16                                       /usr/lib/gcc/avr/5.4.0/../../../avr/lib/avr5/crtatmega32u4.o
__vector_17                                       /usr/lib/gcc/avr/5.4.0/../../../avr/lib/avr5/crtatmega32u4.o
__vector_18                                       /usr/lib/gcc/avr/5.4.0/../../../avr/lib/avr5/crtatmega32u4.o
__vector_19                                       /usr/lib/gcc/avr/5.4.0/../../../avr/lib/avr5/crtatmega32u4.o
__vector_2                                        /usr/lib/gcc/avr/5.4.0/../../../avr/lib/avr5/crtatmega32u4.o
__vector_20                                       /usr/lib/gcc/avr/5.4.0/../../../avr/lib/avr5/crtatmega32u4.o
__vector_21                                       .build/obj_redox_rev1_base_ad_rev3/platforms/avr/timer.o
                                                  /usr/lib/gcc/avr/5.4.0/../../../avr/lib/avr5/crtatmega32u4.o
__vector_22                                       /usr/lib/gcc/avr/5.4.0/../../../avr/lib/avr5/crtatmega32u4.o
__vector_23                                       /usr/lib/gcc/avr/5.4.0/../../../avr/lib/avr5/crtatmega32u4.o
__vector_24                                       /usr/lib/gcc/avr/5.4.0/../../../avr/lib/avr5/crtatmega32u4.o
__vector_25                                       /usr/lib/gcc/avr/5.4.0/../../../avr/lib/avr5/crtatmega32u4.o
__vector_26                                       /usr/lib/gcc/avr/5.4.0/../../../avr/lib/avr5/crtatmega32u4.o
__vector_27                                       /usr/lib/gcc/avr/5.4.0/../../../avr/lib/avr5/crtatmega32u4.o
__vector_28                                       /usr/lib/gcc/avr/5.4.0/../../../avr/lib/avr5/crtatmega32u4.o
__vector_29                                       /usr/lib/gcc/avr/5.4.0/../../../avr/lib/avr5/crtatmega32u4.o
__vector_3                                        /usr/lib/gcc/avr/5.4.0/../../../avr/lib/avr5/crtatmega32u4.o
__vector_30                                       /usr/lib/gcc/avr/5.4.0/../../../avr/lib/avr5/crtatmega32u4.o
__vector_31                                       /usr/lib/gcc/avr/5.4.0/../../../avr/lib/avr5/crtatmega32u4.o
__vector_32                                       /usr/lib/gcc/avr/5.4.0/../../../avr/lib/avr5/crtatmega32u4.o
__vector_33                                       /usr/lib/gcc/avr/5.4.0/../../../avr/lib/avr5/crtatmega32u4.o
__vector_34                                       /usr/lib/gcc/avr/5.4.0/../../../avr/lib/avr5/crtatmega32u4.o
__vector_35                                       /usr/lib/gcc/avr/5.4.0/../../../avr/lib/avr5/crtatmega32u4.o
__vector_36                                       /usr/lib/gcc/avr/5.4.0/../../../avr/lib/avr5/crtatmega32u4.o
__vector_37                                       /usr/lib/gcc/avr/5.4.0/../../../avr/lib/avr5/crtatmega32u4.o
__vector_38                                       /usr/lib/gcc/avr/5.4.0/../../../avr/lib/avr5/crtatmega32u4.o
__vector_39                                       /usr/lib/gcc/avr/5.4.0/../../../avr/lib/avr5/crtatmega32u4.o
__vector_4                                        /usr/lib/gcc/avr/5.4.0/../../../avr/lib/avr5/crtatmega32u4.o
__vector_40                                       /usr/lib/gcc/avr/5.4.0/../../../avr/lib/avr5/crtatmega32u4.o
__vector_41                                       /usr/lib/gcc/avr/5.4.0/../../../avr/lib/avr5/crtatmega32u4.o
__vector_42                                       /usr/lib/gcc/avr/5.4.0/../../../avr/lib/avr5/crtatmega32u4.o
__vector_5                                        /usr/lib/gcc/avr/5.4.0/../../../avr/lib/avr5/crtatmega32u4.o
__vector_6                                        /usr/lib/gcc/avr/5.4.0/../../../avr/lib/avr5/crtatmega32u4.o
__vector_7                                        /usr/lib/gcc/avr/5.4.0/../../../avr/lib/avr5/crtatmega32u4.o
__vector_8                                        /usr/lib/gcc/avr/5.4.0/../../../avr/lib/avr5/crtatmega32u4.o
__vector_9                                        /usr/lib/gcc/avr/5.4.0/../../../avr/lib/avr5/crtatmega32u4.o
__vector_default                                  /usr/lib/gcc/avr/5.4.0/../../../avr/lib/avr5/crtatmega32u4.o
__vectors                                         /usr/lib/gcc/avr/5.4.0/../../../avr/lib/avr5/crtatmega32u4.o
__xprintf                                         .build/obj_redox_rev1_base_ad_rev3/platforms/avr/xprintf.o
_div                                              /usr/lib/gcc/avr/5.4.0/avr5/libgcc.a(_divmodhi4.o)
_exit                                             /usr/lib/gcc/avr/5.4.0/avr5/libgcc.a(_exit.o)
action_exec                                       .build/obj_redox_rev1_base_ad_rev3/quantum/action.o
                                                  .build/obj_redox_rev1_base_ad_rev3/quantum/keyboard.o
action_for_key                                    .build/obj_redox_rev1_base_ad_rev3/quantum/keymap_common.o
                                                  .build/obj_redox_rev1_base_ad_rev3/quantum/action_layer.o
action_for_keycode                                .build/obj_redox_rev1_base_ad_rev3/quantum/keymap_common.o
action_tapping_process                            .build/obj_redox_rev1_base_ad_rev3/quantum/action_tapping.o
                                                  .build/obj_redox_rev1_base_ad_rev3/quantum/action.o
add_key                                           .build/obj_redox_rev1_base_ad_rev3/quantum/action_util.o
add_key_byte                                      .build/obj_redox_rev1_base_ad_rev3/protocol/report.o
add_key_to_report                                 .build/obj_redox_rev1_base_ad_rev3/protocol/report.o
                                                  .build/obj_redox_rev1_base_ad_rev3/quantum/process_keycode/process_grave_esc.o
                                                  .build/obj_redox_rev1_base_ad_rev3/quantum/action_util.o
                                                  .build/obj_redox_rev1_base_ad_rev3/quantum/action.o
add_mods                                          .build/obj_redox_rev1_base_ad_rev3/quantum/action_util.o
                                                  .build/obj_redox_rev1_base_ad_rev3/quantum/process_keycode/process_tap_dance.o
                                                  .build/obj_redox_rev1_base_ad_rev3/quantum/action.o
add_oneshot_locked_mods                           .build/obj_redox_rev1_base_ad_rev3/quantum/action_util.o
add_oneshot_mods                                  .build/obj_redox_rev1_base_ad_rev3/quantum/action_util.o
                                                  .build/obj_redox_rev1_base_ad_rev3/quantum/action.o
add_weak_mods                                     .build/obj_redox_rev1_base_ad_rev3/quantum/action_util.o
                                                  .build/obj_redox_rev1_base_ad_rev3/quantum/process_keycode/process_tap_dance.o
                                                  .build/obj_redox_rev1_base_ad_rev3/quantum/action.o
ascii_to_altgr_lut                                .build/obj_redox_rev1_base_ad_rev3/quantum/send_string/send_string.o
ascii_to_dead_lut                                 .build/obj_redox_rev1_base_ad_rev3/quantum/send_string/send_string.o
ascii_to_keycode_lut                              .build/obj_redox_rev1_base_ad_rev3/quantum/send_string/send_string.o
ascii_to_shift_lut                                .build/obj_redox_rev1_base_ad_rev3/quantum/send_string/send_string.o
biton                                             .build/obj_redox_rev1_base_ad_rev3/quantum/bitwise.o
biton16                                           .build/obj_redox_rev1_base_ad_rev3/quantum/bitwise.o
biton32                                           .build/obj_redox_rev1_base_ad_rev3/quantum/bitwise.o
bitpop                                            .build/obj_redox_rev1_base_ad_rev3/quantum/bitwise.o
                                                  .build/obj_redox_rev1_base_ad_rev3/quantum/action_util.o
bitpop16                                          .build/obj_redox_rev1_base_ad_rev3/quantum/bitwise.o
bitpop32                                          .build/obj_redox_rev1_base_ad_rev3/quantum/bitwise.o
bitrev                                            .build/obj_redox_rev1_base_ad_rev3/quantum/bitwise.o
bitrev16                                          .build/obj_redox_rev1_base_ad_rev3/quantum/bitwise.o
bitrev32                                          .build/obj_redox_rev1_base_ad_rev3/quantum/bitwise.o
bootloader_jump                                   .build/obj_redox_rev1_base_ad_rev3/platforms/avr/bootloaders/caterina.o
                                                  .build/obj_redox_rev1_base_ad_rev3/quantum/quantum.o
bootmagic                                         .build/obj_redox_rev1_base_ad_rev3/quantum/bootmagic/magic.o
clear_keyboard                                    .build/obj_redox_rev1_base_ad_rev3/quantum/action.o
                                                  .build/obj_redox_rev1_base_ad_rev3/lufa.o
                                                  .build/obj_redox_rev1_base_ad_rev3/platforms/avr/suspend.o
                                                  .build/obj_redox_rev1_base_ad_rev3/quantum/process_keycode/process_magic.o
                                                  .build/obj_redox_rev1_base_ad_rev3/quantum/command.o
                                                  .build/obj_redox_rev1_base_ad_rev3/quantum/action_tapping.o
                                                  .build/obj_redox_rev1_base_ad_rev3/quantum/quantum.o
clear_keyboard_but_mods                           .build/obj_redox_rev1_base_ad_rev3/quantum/action.o
clear_keyboard_but_mods_and_keys                  .build/obj_redox_rev1_base_ad_rev3/quantum/action.o
clear_keys                                        .build/obj_redox_rev1_base_ad_rev3/quantum/action_util.o
clear_keys_from_report                            .build/obj_redox_rev1_base_ad_rev3/protocol/report.o
                                                  .build/obj_redox_rev1_base_ad_rev3/quantum/action_util.o
                                                  .build/obj_redox_rev1_base_ad_rev3/quantum/action.o
clear_mods                                        .build/obj_redox_rev1_base_ad_rev3/quantum/action_util.o
                                                  .build/obj_redox_rev1_base_ad_rev3/quantum/unicode/unicode.o
                                                  .build/obj_redox_rev1_base_ad_rev3/quantum/action.o
clear_oneshot_layer_state                         .build/obj_redox_rev1_base_ad_rev3/quantum/action_util.o
                                                  .build/obj_redox_rev1_base_ad_rev3/quantum/action.o
clear_oneshot_locked_mods                         .build/obj_redox_rev1_base_ad_rev3/quantum/action_util.o
clear_oneshot_mods                                .build/obj_redox_rev1_base_ad_rev3/quantum/action_util.o
clear_weak_mods                                   .build/obj_redox_rev1_base_ad_rev3/quantum/action_util.o
                                                  .build/obj_redox_rev1_base_ad_rev3/quantum/process_keycode/process_tap_dance.o
                                                  .build/obj_redox_rev1_base_ad_rev3/quantum/unicode/unicode.o
                                                  .build/obj_redox_rev1_base_ad_rev3/quantum/action.o
command_console_extra                             .build/obj_redox_rev1_base_ad_rev3/quantum/command.o
command_extra                                     .build/obj_redox_rev1_base_ad_rev3/quantum/command.o
command_proc                                      .build/obj_redox_rev1_base_ad_rev3/quantum/command.o
                                                  .build/obj_redox_rev1_base_ad_rev3/quantum/action.o
command_state                                     .build/obj_redox_rev1_base_ad_rev3/quantum/command.o
crc8                                              .build/obj_redox_rev1_base_ad_rev3/quantum/crc.o
                                                  .build/obj_redox_rev1_base_ad_rev3/quantum/split_common/transactions.o
crc_init                                          .build/obj_redox_rev1_base_ad_rev3/quantum/crc.o
                                                  .build/obj_redox_rev1_base_ad_rev3/quantum/keyboard.o
debounce                                          .build/obj_redox_rev1_base_ad_rev3/quantum/debounce/sym_defer_g.o
                                                  .build/obj_redox_rev1_base_ad_rev3/quantum/matrix.o
                                                  .build/obj_redox_rev1_base_ad_rev3/quantum/matrix_common.o
debounce_free                                     .build/obj_redox_rev1_base_ad_rev3/quantum/debounce/sym_defer_g.o
debounce_init                                     .build/obj_redox_rev1_base_ad_rev3/quantum/debounce/sym_defer_g.o
                                                  .build/obj_redox_rev1_base_ad_rev3/quantum/matrix.o
                                                  .build/obj_redox_rev1_base_ad_rev3/quantum/matrix_common.o
debug_action                                      .build/obj_redox_rev1_base_ad_rev3/quantum/action.o
debug_config                                      .build/obj_redox_rev1_base_ad_rev3/quantum/logging/debug.o
                                                  .build/obj_redox_rev1_base_ad_rev3/quantum/command.o
                                                  .build/obj_redox_rev1_base_ad_rev3/quantum/bootmagic/magic.o
                                                  .build/obj_redox_rev1_base_ad_rev3/quantum/keyboard.o
debug_event                                       .build/obj_redox_rev1_base_ad_rev3/quantum/action.o
                                                  .build/obj_redox_rev1_base_ad_rev3/quantum/action_tapping.o
debug_record                                      .build/obj_redox_rev1_base_ad_rev3/quantum/action.o
                                                  .build/obj_redox_rev1_base_ad_rev3/quantum/action_tapping.o
decode_utf8                                       .build/obj_redox_rev1_base_ad_rev3/quantum/unicode/utf8.o
                                                  .build/obj_redox_rev1_base_ad_rev3/quantum/unicode/unicode.o
default_layer_and                                 .build/obj_redox_rev1_base_ad_rev3/quantum/action_layer.o
                                                  .build/obj_redox_rev1_base_ad_rev3/quantum/action.o
default_layer_debug                               .build/obj_redox_rev1_base_ad_rev3/quantum/action_layer.o
                                                  .build/obj_redox_rev1_base_ad_rev3/quantum/action.o
default_layer_or                                  .build/obj_redox_rev1_base_ad_rev3/quantum/action_layer.o
                                                  .build/obj_redox_rev1_base_ad_rev3/quantum/action.o
default_layer_set                                 .build/obj_redox_rev1_base_ad_rev3/quantum/action_layer.o
                                                  .build/obj_redox_rev1_base_ad_rev3/quantum/command.o
                                                  .build/obj_redox_rev1_base_ad_rev3/quantum/bootmagic/magic.o
                                                  .build/obj_redox_rev1_base_ad_rev3/quantum/action.o
                                                  .build/obj_redox_rev1_base_ad_rev3/quantum/quantum.o
default_layer_state                               .build/obj_redox_rev1_base_ad_rev3/quantum/action_layer.o
                                                  .build/obj_redox_rev1_base_ad_rev3/quantum/eeconfig.o
default_layer_state_set_kb                        .build/obj_redox_rev1_base_ad_rev3/quantum/action_layer.o
default_layer_state_set_user                      .build/obj_redox_rev1_base_ad_rev3/quantum/action_layer.o
default_layer_xor                                 .build/obj_redox_rev1_base_ad_rev3/quantum/action_layer.o
                                                  .build/obj_redox_rev1_base_ad_rev3/quantum/action.o
del_key                                           .build/obj_redox_rev1_base_ad_rev3/quantum/action_util.o
del_key_byte                                      .build/obj_redox_rev1_base_ad_rev3/protocol/report.o
del_key_from_report                               .build/obj_redox_rev1_base_ad_rev3/protocol/report.o
                                                  .build/obj_redox_rev1_base_ad_rev3/quantum/process_keycode/process_grave_esc.o
                                                  .build/obj_redox_rev1_base_ad_rev3/quantum/action_util.o
                                                  .build/obj_redox_rev1_base_ad_rev3/quantum/action.o
del_mods                                          .build/obj_redox_rev1_base_ad_rev3/quantum/action_util.o
                                                  .build/obj_redox_rev1_base_ad_rev3/quantum/process_keycode/process_tap_dance.o
                                                  .build/obj_redox_rev1_base_ad_rev3/quantum/action.o
del_oneshot_locked_mods                           .build/obj_redox_rev1_base_ad_rev3/quantum/action_util.o
                                                  .build/obj_redox_rev1_base_ad_rev3/quantum/action.o
del_oneshot_mods                                  .build/obj_redox_rev1_base_ad_rev3/quantum/action_util.o
                                                  .build/obj_redox_rev1_base_ad_rev3/quantum/action.o
del_weak_mods                                     .build/obj_redox_rev1_base_ad_rev3/quantum/action_util.o
                                                  .build/obj_redox_rev1_base_ad_rev3/quantum/process_keycode/process_tap_dance.o
                                                  .build/obj_redox_rev1_base_ad_rev3/quantum/action.o
disable_action_cache                              .build/obj_redox_rev1_base_ad_rev3/quantum/action.o
                                                  .build/obj_redox_rev1_base_ad_rev3/quantum/action_layer.o
                                                  .build/obj_redox_rev1_base_ad_rev3/quantum/quantum.o
do_code16                                         .build/obj_redox_rev1_base_ad_rev3/quantum/quantum.o
eeconfig_debug_rgblight                           .build/obj_redox_rev1_base_ad_rev3/quantum/rgblight/rgblight.o
eeconfig_disable                                  .build/obj_redox_rev1_base_ad_rev3/quantum/eeconfig.o
                                                  .build/obj_redox_rev1_base_ad_rev3/quantum/quantum.o
eeconfig_enable                                   .build/obj_redox_rev1_base_ad_rev3/quantum/eeconfig.o
eeconfig_init                                     .build/obj_redox_rev1_base_ad_rev3/quantum/eeconfig.o
                                                  .build/obj_redox_rev1_base_ad_rev3/quantum/command.o
                                                  .build/obj_redox_rev1_base_ad_rev3/quantum/rgblight/rgblight.o
                                                  .build/obj_redox_rev1_base_ad_rev3/quantum/bootmagic/magic.o
eeconfig_init_kb                                  .build/obj_redox_rev1_base_ad_rev3/quantum/eeconfig.o
eeconfig_init_quantum                             .build/obj_redox_rev1_base_ad_rev3/quantum/eeconfig.o
eeconfig_init_user                                .build/obj_redox_rev1_base_ad_rev3/quantum/eeconfig.o
eeconfig_is_disabled                              .build/obj_redox_rev1_base_ad_rev3/quantum/eeconfig.o
eeconfig_is_enabled                               .build/obj_redox_rev1_base_ad_rev3/quantum/eeconfig.o
                                                  .build/obj_redox_rev1_base_ad_rev3/quantum/rgblight/rgblight.o
                                                  .build/obj_redox_rev1_base_ad_rev3/quantum/bootmagic/magic.o
eeconfig_read_audio                               .build/obj_redox_rev1_base_ad_rev3/quantum/eeconfig.o
eeconfig_read_debug                               .build/obj_redox_rev1_base_ad_rev3/quantum/eeconfig.o
                                                  .build/obj_redox_rev1_base_ad_rev3/quantum/bootmagic/magic.o
eeconfig_read_default_layer                       .build/obj_redox_rev1_base_ad_rev3/quantum/eeconfig.o
                                                  .build/obj_redox_rev1_base_ad_rev3/quantum/bootmagic/magic.o
eeconfig_read_handedness                          .build/obj_redox_rev1_base_ad_rev3/quantum/eeconfig.o
eeconfig_read_haptic                              .build/obj_redox_rev1_base_ad_rev3/quantum/eeconfig.o
eeconfig_read_kb                                  .build/obj_redox_rev1_base_ad_rev3/quantum/eeconfig.o
eeconfig_read_keymap                              .build/obj_redox_rev1_base_ad_rev3/quantum/eeconfig.o
                                                  .build/obj_redox_rev1_base_ad_rev3/quantum/process_keycode/process_magic.o
                                                  .build/obj_redox_rev1_base_ad_rev3/quantum/bootmagic/magic.o
eeconfig_read_rgblight                            .build/obj_redox_rev1_base_ad_rev3/quantum/rgblight/rgblight.o
eeconfig_read_user                                .build/obj_redox_rev1_base_ad_rev3/quantum/eeconfig.o
eeconfig_update_audio                             .build/obj_redox_rev1_base_ad_rev3/quantum/eeconfig.o
eeconfig_update_debug                             .build/obj_redox_rev1_base_ad_rev3/quantum/eeconfig.o
eeconfig_update_default_layer                     .build/obj_redox_rev1_base_ad_rev3/quantum/eeconfig.o
                                                  .build/obj_redox_rev1_base_ad_rev3/quantum/quantum.o
eeconfig_update_handedness                        .build/obj_redox_rev1_base_ad_rev3/quantum/eeconfig.o
                                                  .build/obj_redox_rev1_base_ad_rev3/quantum/process_keycode/process_magic.o
eeconfig_update_haptic                            .build/obj_redox_rev1_base_ad_rev3/quantum/eeconfig.o
eeconfig_update_kb                                .build/obj_redox_rev1_base_ad_rev3/quantum/eeconfig.o
eeconfig_update_keymap                            .build/obj_redox_rev1_base_ad_rev3/quantum/eeconfig.o
                                                  .build/obj_redox_rev1_base_ad_rev3/quantum/process_keycode/process_magic.o
                                                  .build/obj_redox_rev1_base_ad_rev3/quantum/action_util.o
eeconfig_update_rgblight                          .build/obj_redox_rev1_base_ad_rev3/quantum/rgblight/rgblight.o
eeconfig_update_rgblight_current                  .build/obj_redox_rev1_base_ad_rev3/quantum/rgblight/rgblight.o
eeconfig_update_rgblight_default                  .build/obj_redox_rev1_base_ad_rev3/quantum/rgblight/rgblight.o
eeconfig_update_user                              .build/obj_redox_rev1_base_ad_rev3/quantum/eeconfig.o
eeprom_read_block                                 /usr/lib/gcc/avr/5.4.0/../../../avr/lib/avr5/libatmega32u4.a(eerd_block.o)
eeprom_read_blraw                                 /usr/lib/gcc/avr/5.4.0/../../../avr/lib/avr5/libatmega32u4.a(eerd_block.o)
                                                  /usr/lib/gcc/avr/5.4.0/../../../avr/lib/avr5/libatmega32u4.a(eerd_word.o)
                                                  /usr/lib/gcc/avr/5.4.0/../../../avr/lib/avr5/libatmega32u4.a(eerd_dword.o)
eeprom_read_byte                                  /usr/lib/gcc/avr/5.4.0/../../../avr/lib/avr5/libatmega32u4.a(eerd_byte.o)
                                                  .build/obj_redox_rev1_base_ad_rev3/lib/lufa/LUFA/Drivers/USB/Core/AVR8/EndpointStream_AVR8.o
                                                  .build/obj_redox_rev1_base_ad_rev3/quantum/unicode/unicode.o
                                                  .build/obj_redox_rev1_base_ad_rev3/quantum/rgblight/rgblight.o
                                                  .build/obj_redox_rev1_base_ad_rev3/quantum/eeconfig.o
eeprom_read_dword                                 /usr/lib/gcc/avr/5.4.0/../../../avr/lib/avr5/libatmega32u4.a(eerd_dword.o)
                                                  .build/obj_redox_rev1_base_ad_rev3/quantum/rgblight/rgblight.o
                                                  .build/obj_redox_rev1_base_ad_rev3/quantum/eeconfig.o
eeprom_read_float                                 /usr/lib/gcc/avr/5.4.0/../../../avr/lib/avr5/libatmega32u4.a(eerd_dword.o)
eeprom_read_word                                  /usr/lib/gcc/avr/5.4.0/../../../avr/lib/avr5/libatmega32u4.a(eerd_word.o)
                                                  .build/obj_redox_rev1_base_ad_rev3/quantum/eeconfig.o
eeprom_update_block                               /usr/lib/gcc/avr/5.4.0/../../../avr/lib/avr5/libatmega32u4.a(eeupd_block.o)
                                                  .build/obj_redox_rev1_base_ad_rev3/quantum/eeconfig.o
eeprom_update_byte                                /usr/lib/gcc/avr/5.4.0/../../../avr/lib/avr5/libatmega32u4.a(eeupd_byte.o)
                                                  /usr/lib/gcc/avr/5.4.0/../../../avr/lib/avr5/libatmega32u4.a(eeupd_word.o)
                                                  /usr/lib/gcc/avr/5.4.0/../../../avr/lib/avr5/libatmega32u4.a(eeupd_dword.o)
                                                  .build/obj_redox_rev1_base_ad_rev3/lib/lufa/LUFA/Drivers/USB/Core/AVR8/EndpointStream_AVR8.o
                                                  .build/obj_redox_rev1_base_ad_rev3/quantum/unicode/unicode.o
                                                  .build/obj_redox_rev1_base_ad_rev3/quantum/rgblight/rgblight.o
                                                  .build/obj_redox_rev1_base_ad_rev3/quantum/eeconfig.o
eeprom_update_dword                               /usr/lib/gcc/avr/5.4.0/../../../avr/lib/avr5/libatmega32u4.a(eeupd_dword.o)
                                                  .build/obj_redox_rev1_base_ad_rev3/quantum/rgblight/rgblight.o
                                                  .build/obj_redox_rev1_base_ad_rev3/quantum/eeconfig.o
eeprom_update_float                               /usr/lib/gcc/avr/5.4.0/../../../avr/lib/avr5/libatmega32u4.a(eeupd_dword.o)
eeprom_update_r18                                 /usr/lib/gcc/avr/5.4.0/../../../avr/lib/avr5/libatmega32u4.a(eeupd_byte.o)
                                                  /usr/lib/gcc/avr/5.4.0/../../../avr/lib/avr5/libatmega32u4.a(eeupd_word.o)
                                                  /usr/lib/gcc/avr/5.4.0/../../../avr/lib/avr5/libatmega32u4.a(eeupd_dword.o)
                                                  /usr/lib/gcc/avr/5.4.0/../../../avr/lib/avr5/libatmega32u4.a(eeupd_block.o)
eeprom_update_word                                /usr/lib/gcc/avr/5.4.0/../../../avr/lib/avr5/libatmega32u4.a(eeupd_word.o)
                                                  .build/obj_redox_rev1_base_ad_rev3/quantum/eeconfig.o
exit                                              /usr/lib/gcc/avr/5.4.0/avr5/libgcc.a(_exit.o)
                                                  /usr/lib/gcc/avr/5.4.0/../../../avr/lib/avr5/crtatmega32u4.o
extract_mod_bits                                  .build/obj_redox_rev1_base_ad_rev3/quantum/quantum.o
get_event_keycode                                 .build/obj_redox_rev1_base_ad_rev3/quantum/quantum.o
get_first_key                                     .build/obj_redox_rev1_base_ad_rev3/protocol/report.o
get_hardware_id                                   .build/obj_redox_rev1_base_ad_rev3/platforms/avr/hardware_id.o
get_mods                                          .build/obj_redox_rev1_base_ad_rev3/quantum/action_util.o
                                                  .build/obj_redox_rev1_base_ad_rev3/quantum/process_keycode/process_tap_dance.o
                                                  .build/obj_redox_rev1_base_ad_rev3/quantum/process_keycode/process_grave_esc.o
                                                  .build/obj_redox_rev1_base_ad_rev3/quantum/command.o
                                                  .build/obj_redox_rev1_base_ad_rev3/quantum/unicode/unicode.o
                                                  .build/obj_redox_rev1_base_ad_rev3/quantum/process_keycode/process_unicode_common.o
                                                  .build/obj_redox_rev1_base_ad_rev3/quantum/process_keycode/process_rgb.o
get_numeric_str                                   .build/obj_redox_rev1_base_ad_rev3/quantum/quantum.o
get_oneshot_layer                                 .build/obj_redox_rev1_base_ad_rev3/quantum/action_util.o
                                                  .build/obj_redox_rev1_base_ad_rev3/quantum/action.o
get_oneshot_layer_state                           .build/obj_redox_rev1_base_ad_rev3/quantum/action_util.o
                                                  .build/obj_redox_rev1_base_ad_rev3/quantum/action.o
get_oneshot_locked_mods                           .build/obj_redox_rev1_base_ad_rev3/quantum/action_util.o
get_oneshot_mods                                  .build/obj_redox_rev1_base_ad_rev3/quantum/action_util.o
                                                  .build/obj_redox_rev1_base_ad_rev3/quantum/process_keycode/process_tap_dance.o
get_record_keycode                                .build/obj_redox_rev1_base_ad_rev3/quantum/quantum.o
get_u16_str                                       .build/obj_redox_rev1_base_ad_rev3/quantum/quantum.o
get_u8_str                                        .build/obj_redox_rev1_base_ad_rev3/quantum/quantum.o
get_unicode_input_mode                            .build/obj_redox_rev1_base_ad_rev3/quantum/unicode/unicode.o
get_usb_descriptor                                .build/obj_redox_rev1_base_ad_rev3/usb_descriptor.o
                                                  .build/obj_redox_rev1_base_ad_rev3/lufa.o
get_weak_mods                                     .build/obj_redox_rev1_base_ad_rev3/quantum/action_util.o
                                                  .build/obj_redox_rev1_base_ad_rev3/quantum/process_keycode/process_tap_dance.o
has_anykey                                        .build/obj_redox_rev1_base_ad_rev3/protocol/report.o
                                                  .build/obj_redox_rev1_base_ad_rev3/quantum/action_util.o
has_anymod                                        .build/obj_redox_rev1_base_ad_rev3/quantum/action_util.o
has_mouse_report_changed                          .build/obj_redox_rev1_base_ad_rev3/protocol/report.o
                                                  .build/obj_redox_rev1_base_ad_rev3/quantum/mousekey.o
has_oneshot_mods_timed_out                        .build/obj_redox_rev1_base_ad_rev3/quantum/action_util.o
host_consumer_send                                .build/obj_redox_rev1_base_ad_rev3/protocol/host.o
                                                  .build/obj_redox_rev1_base_ad_rev3/quantum/action.o
host_get_driver                                   .build/obj_redox_rev1_base_ad_rev3/protocol/host.o
host_keyboard_led_state                           .build/obj_redox_rev1_base_ad_rev3/protocol/host.o
                                                  .build/obj_redox_rev1_base_ad_rev3/quantum/unicode/unicode.o
                                                  .build/obj_redox_rev1_base_ad_rev3/quantum/action.o
host_keyboard_leds                                .build/obj_redox_rev1_base_ad_rev3/protocol/host.o
                                                  .build/obj_redox_rev1_base_ad_rev3/quantum/action.o
                                                  .build/obj_redox_rev1_base_ad_rev3/quantum/led.o
host_keyboard_send                                .build/obj_redox_rev1_base_ad_rev3/protocol/host.o
                                                  .build/obj_redox_rev1_base_ad_rev3/quantum/action_util.o
host_last_consumer_usage                          .build/obj_redox_rev1_base_ad_rev3/protocol/host.o
host_last_system_usage                            .build/obj_redox_rev1_base_ad_rev3/protocol/host.o
host_mouse_send                                   .build/obj_redox_rev1_base_ad_rev3/protocol/host.o
                                                  .build/obj_redox_rev1_base_ad_rev3/quantum/mousekey.o
host_nkro_send                                    .build/obj_redox_rev1_base_ad_rev3/protocol/host.o
host_set_driver                                   .build/obj_redox_rev1_base_ad_rev3/protocol/host.o
                                                  .build/obj_redox_rev1_base_ad_rev3/lufa.o
host_system_send                                  .build/obj_redox_rev1_base_ad_rev3/protocol/host.o
                                                  .build/obj_redox_rev1_base_ad_rev3/quantum/action.o
housekeeping_task                                 .build/obj_redox_rev1_base_ad_rev3/quantum/keyboard.o
                                                  .build/obj_redox_rev1_base_ad_rev3/quantum/main.o
housekeeping_task_kb                              .build/obj_redox_rev1_base_ad_rev3/quantum/keyboard.o
housekeeping_task_user                            .build/obj_redox_rev1_base_ad_rev3/quantum/keyboard.o
hsv_to_rgb                                        .build/obj_redox_rev1_base_ad_rev3/quantum/color.o
                                                  .build/obj_redox_rev1_base_ad_rev3/quantum/rgblight/rgblight.o
hsv_to_rgb_impl                                   .build/obj_redox_rev1_base_ad_rev3/quantum/color.o
hsv_to_rgb_nocie                                  .build/obj_redox_rev1_base_ad_rev3/quantum/color.o
isLeftHand                                        .build/obj_redox_rev1_base_ad_rev3/quantum/split_common/split_util.o
                                                  .build/obj_redox_rev1_base_ad_rev3/quantum/matrix.o
                                                  .build/obj_redox_rev1_base_ad_rev3/quantum/matrix_common.o
is_key_pressed                                    .build/obj_redox_rev1_base_ad_rev3/protocol/report.o
                                                  .build/obj_redox_rev1_base_ad_rev3/quantum/action.o
is_keyboard_left                                  .build/obj_redox_rev1_base_ad_rev3/quantum/split_common/split_util.o
is_keyboard_left_impl                             .build/obj_redox_rev1_base_ad_rev3/quantum/split_common/split_util.o
is_keyboard_master                                .build/obj_redox_rev1_base_ad_rev3/quantum/split_common/split_util.o
                                                  .build/obj_redox_rev1_base_ad_rev3/protocol/host.o
                                                  .build/obj_redox_rev1_base_ad_rev3/quantum/matrix_common.o
                                                  .build/obj_redox_rev1_base_ad_rev3/quantum/sync_timer.o
                                                  .build/obj_redox_rev1_base_ad_rev3/quantum/keyboard.o
is_keyboard_master_impl                           .build/obj_redox_rev1_base_ad_rev3/quantum/split_common/split_util.o
is_oneshot_enabled                                .build/obj_redox_rev1_base_ad_rev3/quantum/action_util.o
is_oneshot_layer_active                           .build/obj_redox_rev1_base_ad_rev3/quantum/action_util.o
                                                  .build/obj_redox_rev1_base_ad_rev3/quantum/action.o
is_rgblight_initialized                           .build/obj_redox_rev1_base_ad_rev3/quantum/rgblight/rgblight.o
is_tap_action                                     .build/obj_redox_rev1_base_ad_rev3/quantum/action.o
is_tap_record                                     .build/obj_redox_rev1_base_ad_rev3/quantum/action.o
                                                  .build/obj_redox_rev1_base_ad_rev3/quantum/action_tapping.o
is_transport_connected                            .build/obj_redox_rev1_base_ad_rev3/quantum/split_common/split_util.o
                                                  .build/obj_redox_rev1_base_ad_rev3/quantum/split_common/transactions.o
keyboard_idle                                     .build/obj_redox_rev1_base_ad_rev3/lufa.o
keyboard_init                                     .build/obj_redox_rev1_base_ad_rev3/quantum/keyboard.o
                                                  .build/obj_redox_rev1_base_ad_rev3/quantum/main.o
keyboard_post_init_kb                             .build/obj_redox_rev1_base_ad_rev3/quantum/keyboard.o
keyboard_post_init_user                           .build/obj_redox_rev1_base_ad_rev3/quantum/keyboard.o
keyboard_pre_init_kb                              .build/obj_redox_rev1_base_ad_rev3/quantum/keyboard.o
keyboard_pre_init_user                            .build/obj_redox_rev1_base_ad_rev3/quantum/keyboard.o
keyboard_protocol                                 .build/obj_redox_rev1_base_ad_rev3/lufa.o
keyboard_report                                   .build/obj_redox_rev1_base_ad_rev3/quantum/action_util.o
                                                  .build/obj_redox_rev1_base_ad_rev3/protocol/report.o
keyboard_setup                                    .build/obj_redox_rev1_base_ad_rev3/quantum/keyboard.o
                                                  .build/obj_redox_rev1_base_ad_rev3/quantum/main.o
keyboard_task                                     .build/obj_redox_rev1_base_ad_rev3/quantum/keyboard.o
                                                  .build/obj_redox_rev1_base_ad_rev3/quantum/main.o
keycode_at_keymap_location                        .build/obj_redox_rev1_base_ad_rev3/quantum/keymap_introspection.o
                                                  .build/obj_redox_rev1_base_ad_rev3/quantum/keymap_common.o
keycode_at_keymap_location_raw                    .build/obj_redox_rev1_base_ad_rev3/quantum/keymap_introspection.o
keycode_config                                    .build/obj_redox_rev1_base_ad_rev3/quantum/keycode_config.o
                                                  .build/obj_redox_rev1_base_ad_rev3/quantum/keymap_common.o
keymap_config                                     .build/obj_redox_rev1_base_ad_rev3/quantum/bootmagic/magic.o
                                                  .build/obj_redox_rev1_base_ad_rev3/quantum/process_keycode/process_magic.o
                                                  .build/obj_redox_rev1_base_ad_rev3/quantum/keycode_config.o
                                                  .build/obj_redox_rev1_base_ad_rev3/quantum/action_util.o
                                                  .build/obj_redox_rev1_base_ad_rev3/quantum/action.o
keymap_key_to_keycode                             .build/obj_redox_rev1_base_ad_rev3/quantum/keymap_common.o
                                                  .build/obj_redox_rev1_base_ad_rev3/quantum/quantum.o
keymap_layer_count                                .build/obj_redox_rev1_base_ad_rev3/quantum/keymap_introspection.o
keymap_layer_count_raw                            .build/obj_redox_rev1_base_ad_rev3/quantum/keymap_introspection.o
keymaps                                           .build/obj_redox_rev1_base_ad_rev3/quantum/keymap_introspection.o
last_encoder_activity_elapsed                     .build/obj_redox_rev1_base_ad_rev3/quantum/keyboard.o
last_encoder_activity_time                        .build/obj_redox_rev1_base_ad_rev3/quantum/keyboard.o
last_encoder_activity_trigger                     .build/obj_redox_rev1_base_ad_rev3/quantum/keyboard.o
last_input_activity_elapsed                       .build/obj_redox_rev1_base_ad_rev3/quantum/keyboard.o
last_input_activity_time                          .build/obj_redox_rev1_base_ad_rev3/quantum/keyboard.o
last_led_activity_elapsed                         .build/obj_redox_rev1_base_ad_rev3/quantum/led.o
last_led_activity_time                            .build/obj_redox_rev1_base_ad_rev3/quantum/led.o
last_matrix_activity_elapsed                      .build/obj_redox_rev1_base_ad_rev3/quantum/keyboard.o
last_matrix_activity_time                         .build/obj_redox_rev1_base_ad_rev3/quantum/keyboard.o
last_matrix_activity_trigger                      .build/obj_redox_rev1_base_ad_rev3/quantum/keyboard.o
last_pointing_device_activity_elapsed             .build/obj_redox_rev1_base_ad_rev3/quantum/keyboard.o
last_pointing_device_activity_time                .build/obj_redox_rev1_base_ad_rev3/quantum/keyboard.o
last_pointing_device_activity_trigger             .build/obj_redox_rev1_base_ad_rev3/quantum/keyboard.o
layer_and                                         .build/obj_redox_rev1_base_ad_rev3/quantum/action_layer.o
                                                  .build/obj_redox_rev1_base_ad_rev3/quantum/action.o
layer_clear                                       .build/obj_redox_rev1_base_ad_rev3/quantum/action_layer.o
                                                  .build/obj_redox_rev1_base_ad_rev3/quantum/action.o
layer_debug                                       .build/obj_redox_rev1_base_ad_rev3/quantum/action_layer.o
                                                  .build/obj_redox_rev1_base_ad_rev3/quantum/action.o
layer_invert                                      .build/obj_redox_rev1_base_ad_rev3/quantum/action_layer.o
                                                  .build/obj_redox_rev1_base_ad_rev3/quantum/action.o
layer_move                                        .build/obj_redox_rev1_base_ad_rev3/quantum/action_layer.o
                                                  .build/obj_redox_rev1_base_ad_rev3/quantum/process_keycode/process_tap_dance.o
                                                  .build/obj_redox_rev1_base_ad_rev3/quantum/action.o
layer_off                                         .build/obj_redox_rev1_base_ad_rev3/quantum/action_layer.o
                                                  .build/obj_redox_rev1_base_ad_rev3/quantum/action_util.o
                                                  .build/obj_redox_rev1_base_ad_rev3/quantum/action.o
layer_on                                          .build/obj_redox_rev1_base_ad_rev3/quantum/action_layer.o
                                                  .build/obj_redox_rev1_base_ad_rev3/quantum/action_util.o
                                                  .build/obj_redox_rev1_base_ad_rev3/quantum/action.o
layer_or                                          .build/obj_redox_rev1_base_ad_rev3/quantum/action_layer.o
                                                  .build/obj_redox_rev1_base_ad_rev3/quantum/action.o
layer_state                                       .build/obj_redox_rev1_base_ad_rev3/quantum/action_layer.o
                                                  .build/obj_redox_rev1_base_ad_rev3/quantum/bootmagic/magic.o
layer_state_cmp                                   .build/obj_redox_rev1_base_ad_rev3/quantum/action_layer.o
layer_state_is                                    .build/obj_redox_rev1_base_ad_rev3/quantum/action_layer.o
layer_state_set                                   .build/obj_redox_rev1_base_ad_rev3/quantum/action_layer.o
                                                  .build/obj_redox_rev1_base_ad_rev3/quantum/action.o
layer_state_set_kb                                .build/obj_redox_rev1_base_ad_rev3/quantum/action_layer.o
                                                  .build/obj_redox_rev1_base_ad_rev3/quantum/bootmagic/magic.o
layer_state_set_user                              .build/obj_redox_rev1_base_ad_rev3/quantum/action_layer.o
layer_switch_get_action                           .build/obj_redox_rev1_base_ad_rev3/quantum/action_layer.o
                                                  .build/obj_redox_rev1_base_ad_rev3/quantum/action_tapping.o
                                                  .build/obj_redox_rev1_base_ad_rev3/quantum/action.o
layer_switch_get_layer                            .build/obj_redox_rev1_base_ad_rev3/quantum/action_layer.o
                                                  .build/obj_redox_rev1_base_ad_rev3/quantum/quantum.o
layer_xor                                         .build/obj_redox_rev1_base_ad_rev3/quantum/action_layer.o
                                                  .build/obj_redox_rev1_base_ad_rev3/quantum/action.o
led                                               .build/obj_redox_rev1_base_ad_rev3/quantum/rgblight/rgblight.o
led_init_ports                                    .build/obj_redox_rev1_base_ad_rev3/quantum/led.o
                                                  .build/obj_redox_rev1_base_ad_rev3/quantum/keyboard.o
led_set                                           .build/obj_redox_rev1_base_ad_rev3/quantum/led.o
                                                  .build/obj_redox_rev1_base_ad_rev3/quantum/action.o
led_set_user                                      .build/obj_redox_rev1_base_ad_rev3/quantum/led.o
led_suspend                                       .build/obj_redox_rev1_base_ad_rev3/quantum/led.o
                                                  .build/obj_redox_rev1_base_ad_rev3/quantum/quantum.o
led_task                                          .build/obj_redox_rev1_base_ad_rev3/quantum/led.o
                                                  .build/obj_redox_rev1_base_ad_rev3/quantum/keyboard.o
led_update_kb                                     .build/obj_redox_rev1_base_ad_rev3/quantum/led.o
led_update_ports                                  .build/obj_redox_rev1_base_ad_rev3/quantum/led.o
led_update_user                                   .build/obj_redox_rev1_base_ad_rev3/quantum/led.o
led_wakeup                                        .build/obj_redox_rev1_base_ad_rev3/quantum/led.o
                                                  .build/obj_redox_rev1_base_ad_rev3/quantum/quantum.o
lufa_driver                                       .build/obj_redox_rev1_base_ad_rev3/lufa.o
magic                                             .build/obj_redox_rev1_base_ad_rev3/quantum/bootmagic/magic.o
                                                  .build/obj_redox_rev1_base_ad_rev3/quantum/keyboard.o
main                                              .build/obj_redox_rev1_base_ad_rev3/quantum/main.o
                                                  /usr/lib/gcc/avr/5.4.0/../../../avr/lib/avr5/crtatmega32u4.o
matrix                                            .build/obj_redox_rev1_base_ad_rev3/quantum/matrix_common.o
                                                  .build/obj_redox_rev1_base_ad_rev3/quantum/matrix.o
matrix_can_read                                   .build/obj_redox_rev1_base_ad_rev3/quantum/keyboard.o
matrix_cols                                       .build/obj_redox_rev1_base_ad_rev3/quantum/matrix_common.o
matrix_get_row                                    .build/obj_redox_rev1_base_ad_rev3/quantum/matrix_common.o
                                                  .build/obj_redox_rev1_base_ad_rev3/platforms/suspend.o
                                                  .build/obj_redox_rev1_base_ad_rev3/quantum/keyboard.o
matrix_init                                       .build/obj_redox_rev1_base_ad_rev3/quantum/matrix.o
                                                  .build/obj_redox_rev1_base_ad_rev3/quantum/matrix_common.o
                                                  .build/obj_redox_rev1_base_ad_rev3/quantum/keyboard.o
matrix_init_custom                                .build/obj_redox_rev1_base_ad_rev3/quantum/matrix_common.o
matrix_init_kb                                    .build/obj_redox_rev1_base_ad_rev3/quantum/matrix_common.o
                                                  .build/obj_redox_rev1_base_ad_rev3/quantum/matrix.o
matrix_init_pins                                  .build/obj_redox_rev1_base_ad_rev3/quantum/matrix.o
matrix_init_user                                  .build/obj_redox_rev1_base_ad_rev3/quantum/matrix_common.o
matrix_io_delay                                   .build/obj_redox_rev1_base_ad_rev3/quantum/matrix_common.o
matrix_is_on                                      .build/obj_redox_rev1_base_ad_rev3/quantum/matrix_common.o
matrix_output_select_delay                        .build/obj_redox_rev1_base_ad_rev3/quantum/matrix_common.o
                                                  .build/obj_redox_rev1_base_ad_rev3/quantum/matrix.o
matrix_output_unselect_delay                      .build/obj_redox_rev1_base_ad_rev3/quantum/matrix_common.o
                                                  .build/obj_redox_rev1_base_ad_rev3/quantum/matrix.o
matrix_post_scan                                  .build/obj_redox_rev1_base_ad_rev3/quantum/matrix_common.o
                                                  .build/obj_redox_rev1_base_ad_rev3/quantum/matrix.o
matrix_power_down                                 .build/obj_redox_rev1_base_ad_rev3/platforms/suspend.o
matrix_power_up                                   .build/obj_redox_rev1_base_ad_rev3/platforms/suspend.o
matrix_print                                      .build/obj_redox_rev1_base_ad_rev3/quantum/matrix_common.o
                                                  .build/obj_redox_rev1_base_ad_rev3/quantum/keyboard.o
matrix_read_cols_on_row                           .build/obj_redox_rev1_base_ad_rev3/quantum/matrix.o
matrix_rows                                       .build/obj_redox_rev1_base_ad_rev3/quantum/matrix_common.o
matrix_scan                                       .build/obj_redox_rev1_base_ad_rev3/quantum/matrix.o
                                                  .build/obj_redox_rev1_base_ad_rev3/quantum/matrix_common.o
                                                  .build/obj_redox_rev1_base_ad_rev3/platforms/suspend.o
                                                  .build/obj_redox_rev1_base_ad_rev3/quantum/keyboard.o
matrix_scan_custom                                .build/obj_redox_rev1_base_ad_rev3/quantum/matrix_common.o
matrix_scan_kb                                    .build/obj_redox_rev1_base_ad_rev3/quantum/matrix_common.o
matrix_scan_user                                  .build/obj_redox_rev1_base_ad_rev3/quantum/matrix_common.o
matrix_setup                                      .build/obj_redox_rev1_base_ad_rev3/quantum/keyboard.o
matrix_slave_scan_kb                              .build/obj_redox_rev1_base_ad_rev3/quantum/matrix_common.o
matrix_slave_scan_user                            .build/obj_redox_rev1_base_ad_rev3/quantum/matrix_common.o
mcu_reset                                         .build/obj_redox_rev1_base_ad_rev3/platforms/avr/bootloaders/caterina.o
                                                  .build/obj_redox_rev1_base_ad_rev3/quantum/quantum.o
memcmp                                            /usr/lib/gcc/avr/5.4.0/../../../avr/lib/avr5/libc.a(memcmp.o)
                                                  .build/obj_redox_rev1_base_ad_rev3/quantum/debounce/sym_defer_g.o
                                                  .build/obj_redox_rev1_base_ad_rev3/quantum/matrix.o
                                                  .build/obj_redox_rev1_base_ad_rev3/quantum/matrix_common.o
                                                  .build/obj_redox_rev1_base_ad_rev3/quantum/action_util.o
memcpy                                            /usr/lib/gcc/avr/5.4.0/../../../avr/lib/avr5/libc.a(memcpy.o)
                                                  .build/obj_redox_rev1_base_ad_rev3/quantum/split_common/transport.o
                                                  .build/obj_redox_rev1_base_ad_rev3/quantum/debounce/sym_defer_g.o
mk_delay                                          .build/obj_redox_rev1_base_ad_rev3/quantum/mousekey.o
                                                  .build/obj_redox_rev1_base_ad_rev3/quantum/command.o
mk_interval                                       .build/obj_redox_rev1_base_ad_rev3/quantum/mousekey.o
                                                  .build/obj_redox_rev1_base_ad_rev3/quantum/command.o
mk_max_speed                                      .build/obj_redox_rev1_base_ad_rev3/quantum/mousekey.o
                                                  .build/obj_redox_rev1_base_ad_rev3/quantum/command.o
mk_time_to_max                                    .build/obj_redox_rev1_base_ad_rev3/quantum/mousekey.o
                                                  .build/obj_redox_rev1_base_ad_rev3/quantum/command.o
mk_wheel_delay                                    .build/obj_redox_rev1_base_ad_rev3/quantum/mousekey.o
mk_wheel_interval                                 .build/obj_redox_rev1_base_ad_rev3/quantum/mousekey.o
mk_wheel_max_speed                                .build/obj_redox_rev1_base_ad_rev3/quantum/mousekey.o
                                                  .build/obj_redox_rev1_base_ad_rev3/quantum/command.o
mk_wheel_time_to_max                              .build/obj_redox_rev1_base_ad_rev3/quantum/mousekey.o
                                                  .build/obj_redox_rev1_base_ad_rev3/quantum/command.o
mod_config                                        .build/obj_redox_rev1_base_ad_rev3/quantum/keycode_config.o
                                                  .build/obj_redox_rev1_base_ad_rev3/quantum/keymap_common.o
mousekey_clear                                    .build/obj_redox_rev1_base_ad_rev3/quantum/mousekey.o
                                                  .build/obj_redox_rev1_base_ad_rev3/quantum/action.o
mousekey_get_report                               .build/obj_redox_rev1_base_ad_rev3/quantum/mousekey.o
mousekey_off                                      .build/obj_redox_rev1_base_ad_rev3/quantum/mousekey.o
                                                  .build/obj_redox_rev1_base_ad_rev3/quantum/action.o
mousekey_on                                       .build/obj_redox_rev1_base_ad_rev3/quantum/mousekey.o
                                                  .build/obj_redox_rev1_base_ad_rev3/quantum/action.o
mousekey_send                                     .build/obj_redox_rev1_base_ad_rev3/quantum/mousekey.o
                                                  .build/obj_redox_rev1_base_ad_rev3/quantum/action.o
mousekey_task                                     .build/obj_redox_rev1_base_ad_rev3/quantum/mousekey.o
                                                  .build/obj_redox_rev1_base_ad_rev3/quantum/keyboard.o
notify_usb_device_state_change_kb                 .build/obj_redox_rev1_base_ad_rev3/protocol/usb_device_state.o
notify_usb_device_state_change_user               .build/obj_redox_rev1_base_ad_rev3/protocol/usb_device_state.o
oneshot_disable                                   .build/obj_redox_rev1_base_ad_rev3/quantum/action_util.o
                                                  .build/obj_redox_rev1_base_ad_rev3/quantum/quantum.o
oneshot_enable                                    .build/obj_redox_rev1_base_ad_rev3/quantum/action_util.o
                                                  .build/obj_redox_rev1_base_ad_rev3/quantum/quantum.o
oneshot_layer_changed_kb                          .build/obj_redox_rev1_base_ad_rev3/quantum/action_util.o
oneshot_layer_changed_user                        .build/obj_redox_rev1_base_ad_rev3/quantum/action_util.o
oneshot_locked_mods_changed_kb                    .build/obj_redox_rev1_base_ad_rev3/quantum/action_util.o
oneshot_locked_mods_changed_user                  .build/obj_redox_rev1_base_ad_rev3/quantum/action_util.o
oneshot_mods_changed_kb                           .build/obj_redox_rev1_base_ad_rev3/quantum/action_util.o
oneshot_mods_changed_user                         .build/obj_redox_rev1_base_ad_rev3/quantum/action_util.o
oneshot_set                                       .build/obj_redox_rev1_base_ad_rev3/quantum/action_util.o
oneshot_toggle                                    .build/obj_redox_rev1_base_ad_rev3/quantum/action_util.o
                                                  .build/obj_redox_rev1_base_ad_rev3/quantum/quantum.o
peek_matrix                                       .build/obj_redox_rev1_base_ad_rev3/quantum/matrix_common.o
perform_space_cadet                               .build/obj_redox_rev1_base_ad_rev3/quantum/process_keycode/process_space_cadet.o
platform_setup                                    .build/obj_redox_rev1_base_ad_rev3/platforms/avr/platform.o
                                                  .build/obj_redox_rev1_base_ad_rev3/quantum/main.o
post_process_record_kb                            .build/obj_redox_rev1_base_ad_rev3/quantum/quantum.o
post_process_record_quantum                       .build/obj_redox_rev1_base_ad_rev3/quantum/quantum.o
post_process_record_user                          .build/obj_redox_rev1_base_ad_rev3/quantum/quantum.o
pre_process_record_kb                             .build/obj_redox_rev1_base_ad_rev3/quantum/quantum.o
pre_process_record_quantum                        .build/obj_redox_rev1_base_ad_rev3/quantum/quantum.o
                                                  .build/obj_redox_rev1_base_ad_rev3/quantum/action.o
pre_process_record_user                           .build/obj_redox_rev1_base_ad_rev3/quantum/quantum.o
preprocess_rgblight                               .build/obj_redox_rev1_base_ad_rev3/quantum/rgblight/rgblight.o
                                                  .build/obj_redox_rev1_base_ad_rev3/quantum/quantum.o
preprocess_tap_dance                              .build/obj_redox_rev1_base_ad_rev3/quantum/process_keycode/process_tap_dance.o
                                                  .build/obj_redox_rev1_base_ad_rev3/quantum/quantum.o
print_set_sendchar                                .build/obj_redox_rev1_base_ad_rev3/platforms/avr/printf.o
                                                  .build/obj_redox_rev1_base_ad_rev3/quantum/keyboard.o
process_action                                    .build/obj_redox_rev1_base_ad_rev3/quantum/action.o
process_action_kb                                 .build/obj_redox_rev1_base_ad_rev3/quantum/quantum.o
process_grave_esc                                 .build/obj_redox_rev1_base_ad_rev3/quantum/process_keycode/process_grave_esc.o
                                                  .build/obj_redox_rev1_base_ad_rev3/quantum/quantum.o
process_magic                                     .build/obj_redox_rev1_base_ad_rev3/quantum/process_keycode/process_magic.o
                                                  .build/obj_redox_rev1_base_ad_rev3/quantum/quantum.o
process_record                                    .build/obj_redox_rev1_base_ad_rev3/quantum/action.o
                                                  .build/obj_redox_rev1_base_ad_rev3/quantum/action_tapping.o
process_record_handler                            .build/obj_redox_rev1_base_ad_rev3/quantum/action.o
process_record_kb                                 .build/obj_redox_rev1_base_ad_rev3/quantum/quantum.o
process_record_nocache                            .build/obj_redox_rev1_base_ad_rev3/quantum/action.o
process_record_quantum                            .build/obj_redox_rev1_base_ad_rev3/quantum/quantum.o
process_record_tap_hint                           .build/obj_redox_rev1_base_ad_rev3/quantum/action.o
                                                  .build/obj_redox_rev1_base_ad_rev3/quantum/action_tapping.o
process_record_user                               .build/obj_redox_rev1_base_ad_rev3/quantum/keymap_introspection.o
process_rgb                                       .build/obj_redox_rev1_base_ad_rev3/quantum/process_keycode/process_rgb.o
                                                  .build/obj_redox_rev1_base_ad_rev3/quantum/quantum.o
process_space_cadet                               .build/obj_redox_rev1_base_ad_rev3/quantum/process_keycode/process_space_cadet.o
                                                  .build/obj_redox_rev1_base_ad_rev3/quantum/quantum.o
process_tap_dance                                 .build/obj_redox_rev1_base_ad_rev3/quantum/process_keycode/process_tap_dance.o
                                                  .build/obj_redox_rev1_base_ad_rev3/quantum/quantum.o
process_unicode                                   .build/obj_redox_rev1_base_ad_rev3/quantum/process_keycode/process_unicode.o
                                                  .build/obj_redox_rev1_base_ad_rev3/quantum/process_keycode/process_unicode_common.o
process_unicode_common                            .build/obj_redox_rev1_base_ad_rev3/quantum/process_keycode/process_unicode_common.o
                                                  .build/obj_redox_rev1_base_ad_rev3/quantum/quantum.o
protocol_init                                     .build/obj_redox_rev1_base_ad_rev3/quantum/main.o
protocol_post_init                                .build/obj_redox_rev1_base_ad_rev3/lufa.o
                                                  .build/obj_redox_rev1_base_ad_rev3/quantum/main.o
protocol_post_task                                .build/obj_redox_rev1_base_ad_rev3/lufa.o
                                                  .build/obj_redox_rev1_base_ad_rev3/quantum/main.o
protocol_pre_init                                 .build/obj_redox_rev1_base_ad_rev3/lufa.o
                                                  .build/obj_redox_rev1_base_ad_rev3/quantum/main.o
protocol_pre_task                                 .build/obj_redox_rev1_base_ad_rev3/lufa.o
                                                  .build/obj_redox_rev1_base_ad_rev3/quantum/main.o
protocol_setup                                    .build/obj_redox_rev1_base_ad_rev3/lufa.o
                                                  .build/obj_redox_rev1_base_ad_rev3/quantum/main.o
protocol_task                                     .build/obj_redox_rev1_base_ad_rev3/quantum/main.o
quantum_init                                      .build/obj_redox_rev1_base_ad_rev3/quantum/keyboard.o
quantum_task                                      .build/obj_redox_rev1_base_ad_rev3/quantum/keyboard.o
raw_matrix                                        .build/obj_redox_rev1_base_ad_rev3/quantum/matrix_common.o
                                                  .build/obj_redox_rev1_base_ad_rev3/quantum/matrix.o
read_source_layers_cache                          .build/obj_redox_rev1_base_ad_rev3/quantum/action_layer.o
                                                  .build/obj_redox_rev1_base_ad_rev3/quantum/quantum.o
read_source_layers_cache_impl                     .build/obj_redox_rev1_base_ad_rev3/quantum/action_layer.o
register_code                                     .build/obj_redox_rev1_base_ad_rev3/quantum/action.o
                                                  .build/obj_redox_rev1_base_ad_rev3/quantum/send_string/send_string.o
                                                  .build/obj_redox_rev1_base_ad_rev3/quantum/unicode/unicode.o
                                                  .build/obj_redox_rev1_base_ad_rev3/quantum/quantum.o
                                                  .build/obj_redox_rev1_base_ad_rev3/quantum/keymap_introspection.o
register_code16                                   .build/obj_redox_rev1_base_ad_rev3/quantum/quantum.o
                                                  .build/obj_redox_rev1_base_ad_rev3/quantum/process_keycode/process_tap_dance.o
register_hex                                      .build/obj_redox_rev1_base_ad_rev3/quantum/unicode/unicode.o
register_hex32                                    .build/obj_redox_rev1_base_ad_rev3/quantum/unicode/unicode.o
register_mods                                     .build/obj_redox_rev1_base_ad_rev3/quantum/action.o
                                                  .build/obj_redox_rev1_base_ad_rev3/quantum/process_keycode/process_space_cadet.o
                                                  .build/obj_redox_rev1_base_ad_rev3/quantum/quantum.o
register_mouse                                    .build/obj_redox_rev1_base_ad_rev3/quantum/action.o
register_unicode                                  .build/obj_redox_rev1_base_ad_rev3/quantum/unicode/unicode.o
                                                  .build/obj_redox_rev1_base_ad_rev3/quantum/process_keycode/process_unicode.o
register_weak_mods                                .build/obj_redox_rev1_base_ad_rev3/quantum/action.o
                                                  .build/obj_redox_rev1_base_ad_rev3/quantum/quantum.o
reset_keyboard                                    .build/obj_redox_rev1_base_ad_rev3/quantum/quantum.o
                                                  .build/obj_redox_rev1_base_ad_rev3/quantum/command.o
reset_oneshot_layer                               .build/obj_redox_rev1_base_ad_rev3/quantum/action_util.o
reset_tap_dance                                   .build/obj_redox_rev1_base_ad_rev3/quantum/process_keycode/process_tap_dance.o
rgblight_call_driver                              .build/obj_redox_rev1_base_ad_rev3/quantum/rgblight/rgblight.o
rgblight_check_config                             .build/obj_redox_rev1_base_ad_rev3/quantum/rgblight/rgblight.o
rgblight_clear_change_flags                       .build/obj_redox_rev1_base_ad_rev3/quantum/rgblight/rgblight.o
                                                  .build/obj_redox_rev1_base_ad_rev3/quantum/split_common/transactions.o
rgblight_config                                   .build/obj_redox_rev1_base_ad_rev3/quantum/rgblight/rgblight.o
rgblight_decrease                                 .build/obj_redox_rev1_base_ad_rev3/quantum/rgblight/rgblight.o
rgblight_decrease_hue                             .build/obj_redox_rev1_base_ad_rev3/quantum/rgblight/rgblight.o
                                                  .build/obj_redox_rev1_base_ad_rev3/quantum/process_keycode/process_rgb.o
rgblight_decrease_hue_helper                      .build/obj_redox_rev1_base_ad_rev3/quantum/rgblight/rgblight.o
rgblight_decrease_hue_noeeprom                    .build/obj_redox_rev1_base_ad_rev3/quantum/rgblight/rgblight.o
rgblight_decrease_sat                             .build/obj_redox_rev1_base_ad_rev3/quantum/rgblight/rgblight.o
                                                  .build/obj_redox_rev1_base_ad_rev3/quantum/process_keycode/process_rgb.o
rgblight_decrease_sat_helper                      .build/obj_redox_rev1_base_ad_rev3/quantum/rgblight/rgblight.o
rgblight_decrease_sat_noeeprom                    .build/obj_redox_rev1_base_ad_rev3/quantum/rgblight/rgblight.o
rgblight_decrease_speed                           .build/obj_redox_rev1_base_ad_rev3/quantum/rgblight/rgblight.o
                                                  .build/obj_redox_rev1_base_ad_rev3/quantum/process_keycode/process_rgb.o
rgblight_decrease_speed_helper                    .build/obj_redox_rev1_base_ad_rev3/quantum/rgblight/rgblight.o
rgblight_decrease_speed_noeeprom                  .build/obj_redox_rev1_base_ad_rev3/quantum/rgblight/rgblight.o
rgblight_decrease_val                             .build/obj_redox_rev1_base_ad_rev3/quantum/rgblight/rgblight.o
                                                  .build/obj_redox_rev1_base_ad_rev3/quantum/process_keycode/process_rgb.o
rgblight_decrease_val_helper                      .build/obj_redox_rev1_base_ad_rev3/quantum/rgblight/rgblight.o
rgblight_decrease_val_noeeprom                    .build/obj_redox_rev1_base_ad_rev3/quantum/rgblight/rgblight.o
rgblight_disable                                  .build/obj_redox_rev1_base_ad_rev3/quantum/rgblight/rgblight.o
rgblight_disable_noeeprom                         .build/obj_redox_rev1_base_ad_rev3/quantum/rgblight/rgblight.o
rgblight_enable                                   .build/obj_redox_rev1_base_ad_rev3/quantum/rgblight/rgblight.o
rgblight_enable_noeeprom                          .build/obj_redox_rev1_base_ad_rev3/quantum/rgblight/rgblight.o
rgblight_enabled_noeeprom                         .build/obj_redox_rev1_base_ad_rev3/quantum/rgblight/rgblight.o
rgblight_get_change_flags                         .build/obj_redox_rev1_base_ad_rev3/quantum/rgblight/rgblight.o
rgblight_get_hsv                                  .build/obj_redox_rev1_base_ad_rev3/quantum/rgblight/rgblight.o
rgblight_get_hue                                  .build/obj_redox_rev1_base_ad_rev3/quantum/rgblight/rgblight.o
rgblight_get_mode                                 .build/obj_redox_rev1_base_ad_rev3/quantum/rgblight/rgblight.o
rgblight_get_sat                                  .build/obj_redox_rev1_base_ad_rev3/quantum/rgblight/rgblight.o
rgblight_get_speed                                .build/obj_redox_rev1_base_ad_rev3/quantum/rgblight/rgblight.o
rgblight_get_syncinfo                             .build/obj_redox_rev1_base_ad_rev3/quantum/rgblight/rgblight.o
                                                  .build/obj_redox_rev1_base_ad_rev3/quantum/split_common/transactions.o
rgblight_get_val                                  .build/obj_redox_rev1_base_ad_rev3/quantum/rgblight/rgblight.o
rgblight_hsv_to_rgb                               .build/obj_redox_rev1_base_ad_rev3/quantum/rgblight/rgblight.o
rgblight_increase                                 .build/obj_redox_rev1_base_ad_rev3/quantum/rgblight/rgblight.o
rgblight_increase_hue                             .build/obj_redox_rev1_base_ad_rev3/quantum/rgblight/rgblight.o
                                                  .build/obj_redox_rev1_base_ad_rev3/quantum/process_keycode/process_rgb.o
rgblight_increase_hue_helper                      .build/obj_redox_rev1_base_ad_rev3/quantum/rgblight/rgblight.o
rgblight_increase_hue_noeeprom                    .build/obj_redox_rev1_base_ad_rev3/quantum/rgblight/rgblight.o
rgblight_increase_sat                             .build/obj_redox_rev1_base_ad_rev3/quantum/rgblight/rgblight.o
                                                  .build/obj_redox_rev1_base_ad_rev3/quantum/process_keycode/process_rgb.o
rgblight_increase_sat_helper                      .build/obj_redox_rev1_base_ad_rev3/quantum/rgblight/rgblight.o
rgblight_increase_sat_noeeprom                    .build/obj_redox_rev1_base_ad_rev3/quantum/rgblight/rgblight.o
rgblight_increase_speed                           .build/obj_redox_rev1_base_ad_rev3/quantum/rgblight/rgblight.o
                                                  .build/obj_redox_rev1_base_ad_rev3/quantum/process_keycode/process_rgb.o
rgblight_increase_speed_helper                    .build/obj_redox_rev1_base_ad_rev3/quantum/rgblight/rgblight.o
rgblight_increase_speed_noeeprom                  .build/obj_redox_rev1_base_ad_rev3/quantum/rgblight/rgblight.o
rgblight_increase_val                             .build/obj_redox_rev1_base_ad_rev3/quantum/rgblight/rgblight.o
                                                  .build/obj_redox_rev1_base_ad_rev3/quantum/process_keycode/process_rgb.o
rgblight_increase_val_helper                      .build/obj_redox_rev1_base_ad_rev3/quantum/rgblight/rgblight.o
rgblight_increase_val_noeeprom                    .build/obj_redox_rev1_base_ad_rev3/quantum/rgblight/rgblight.o
rgblight_init                                     .build/obj_redox_rev1_base_ad_rev3/quantum/rgblight/rgblight.o
                                                  .build/obj_redox_rev1_base_ad_rev3/quantum/keyboard.o
rgblight_is_enabled                               .build/obj_redox_rev1_base_ad_rev3/quantum/rgblight/rgblight.o
rgblight_mode                                     .build/obj_redox_rev1_base_ad_rev3/quantum/rgblight/rgblight.o
                                                  .build/obj_redox_rev1_base_ad_rev3/quantum/process_keycode/process_rgb.o
rgblight_mode_eeprom_helper                       .build/obj_redox_rev1_base_ad_rev3/quantum/rgblight/rgblight.o
rgblight_mode_noeeprom                            .build/obj_redox_rev1_base_ad_rev3/quantum/rgblight/rgblight.o
rgblight_ranges                                   .build/obj_redox_rev1_base_ad_rev3/quantum/rgblight/rgblight.o
rgblight_read_qword                               .build/obj_redox_rev1_base_ad_rev3/quantum/rgblight/rgblight.o
rgblight_reload_from_eeprom                       .build/obj_redox_rev1_base_ad_rev3/quantum/rgblight/rgblight.o
rgblight_set                                      .build/obj_redox_rev1_base_ad_rev3/quantum/rgblight/rgblight.o
rgblight_set_clipping_range                       .build/obj_redox_rev1_base_ad_rev3/quantum/rgblight/rgblight.o
rgblight_set_effect_range                         .build/obj_redox_rev1_base_ad_rev3/quantum/rgblight/rgblight.o
rgblight_set_speed                                .build/obj_redox_rev1_base_ad_rev3/quantum/rgblight/rgblight.o
rgblight_set_speed_eeprom_helper                  .build/obj_redox_rev1_base_ad_rev3/quantum/rgblight/rgblight.o
rgblight_set_speed_noeeprom                       .build/obj_redox_rev1_base_ad_rev3/quantum/rgblight/rgblight.o
rgblight_sethsv                                   .build/obj_redox_rev1_base_ad_rev3/quantum/rgblight/rgblight.o
rgblight_sethsv_at                                .build/obj_redox_rev1_base_ad_rev3/quantum/rgblight/rgblight.o
rgblight_sethsv_eeprom_helper                     .build/obj_redox_rev1_base_ad_rev3/quantum/rgblight/rgblight.o
rgblight_sethsv_noeeprom                          .build/obj_redox_rev1_base_ad_rev3/quantum/rgblight/rgblight.o
rgblight_sethsv_noeeprom_old                      .build/obj_redox_rev1_base_ad_rev3/quantum/rgblight/rgblight.o
rgblight_sethsv_range                             .build/obj_redox_rev1_base_ad_rev3/quantum/rgblight/rgblight.o
rgblight_setrgb                                   .build/obj_redox_rev1_base_ad_rev3/quantum/rgblight/rgblight.o
rgblight_setrgb_at                                .build/obj_redox_rev1_base_ad_rev3/quantum/rgblight/rgblight.o
rgblight_setrgb_range                             .build/obj_redox_rev1_base_ad_rev3/quantum/rgblight/rgblight.o
rgblight_status                                   .build/obj_redox_rev1_base_ad_rev3/quantum/rgblight/rgblight.o
rgblight_step                                     .build/obj_redox_rev1_base_ad_rev3/quantum/rgblight/rgblight.o
                                                  .build/obj_redox_rev1_base_ad_rev3/quantum/process_keycode/process_rgb.o
rgblight_step_helper                              .build/obj_redox_rev1_base_ad_rev3/quantum/rgblight/rgblight.o
rgblight_step_noeeprom                            .build/obj_redox_rev1_base_ad_rev3/quantum/rgblight/rgblight.o
rgblight_step_reverse                             .build/obj_redox_rev1_base_ad_rev3/quantum/rgblight/rgblight.o
                                                  .build/obj_redox_rev1_base_ad_rev3/quantum/process_keycode/process_rgb.o
rgblight_step_reverse_helper                      .build/obj_redox_rev1_base_ad_rev3/quantum/rgblight/rgblight.o
rgblight_step_reverse_noeeprom                    .build/obj_redox_rev1_base_ad_rev3/quantum/rgblight/rgblight.o
rgblight_task                                     .build/obj_redox_rev1_base_ad_rev3/quantum/rgblight/rgblight.o
                                                  .build/obj_redox_rev1_base_ad_rev3/quantum/keyboard.o
rgblight_toggle                                   .build/obj_redox_rev1_base_ad_rev3/quantum/rgblight/rgblight.o
                                                  .build/obj_redox_rev1_base_ad_rev3/quantum/process_keycode/process_rgb.o
rgblight_toggle_noeeprom                          .build/obj_redox_rev1_base_ad_rev3/quantum/rgblight/rgblight.o
rgblight_update_qword                             .build/obj_redox_rev1_base_ad_rev3/quantum/rgblight/rgblight.o
rgblight_update_sync                              .build/obj_redox_rev1_base_ad_rev3/quantum/rgblight/rgblight.o
                                                  .build/obj_redox_rev1_base_ad_rev3/quantum/split_common/transactions.o
send_6kro_report                                  .build/obj_redox_rev1_base_ad_rev3/quantum/action_util.o
send_byte                                         .build/obj_redox_rev1_base_ad_rev3/quantum/send_string/send_string.o
send_char                                         .build/obj_redox_rev1_base_ad_rev3/quantum/send_string/send_string.o
send_digitizer                                    .build/obj_redox_rev1_base_ad_rev3/lufa.o
                                                  .build/obj_redox_rev1_base_ad_rev3/protocol/host.o
send_dword                                        .build/obj_redox_rev1_base_ad_rev3/quantum/send_string/send_string.o
send_joystick                                     .build/obj_redox_rev1_base_ad_rev3/lufa.o
                                                  .build/obj_redox_rev1_base_ad_rev3/protocol/host.o
send_keyboard_report                              .build/obj_redox_rev1_base_ad_rev3/quantum/action_util.o
                                                  .build/obj_redox_rev1_base_ad_rev3/quantum/process_keycode/process_tap_dance.o
                                                  .build/obj_redox_rev1_base_ad_rev3/quantum/process_keycode/process_grave_esc.o
                                                  .build/obj_redox_rev1_base_ad_rev3/quantum/action.o
send_nibble                                       .build/obj_redox_rev1_base_ad_rev3/quantum/send_string/send_string.o
                                                  .build/obj_redox_rev1_base_ad_rev3/quantum/unicode/unicode.o
send_programmable_button                          .build/obj_redox_rev1_base_ad_rev3/lufa.o
                                                  .build/obj_redox_rev1_base_ad_rev3/protocol/host.o
send_report                                       .build/obj_redox_rev1_base_ad_rev3/lufa.o
send_string                                       .build/obj_redox_rev1_base_ad_rev3/quantum/send_string/send_string.o
send_string_P                                     .build/obj_redox_rev1_base_ad_rev3/quantum/send_string/send_string.o
send_string_with_delay                            .build/obj_redox_rev1_base_ad_rev3/quantum/send_string/send_string.o
send_string_with_delay_P                          .build/obj_redox_rev1_base_ad_rev3/quantum/send_string/send_string.o
                                                  .build/obj_redox_rev1_base_ad_rev3/quantum/keymap_introspection.o
send_unicode_string                               .build/obj_redox_rev1_base_ad_rev3/quantum/unicode/unicode.o
send_word                                         .build/obj_redox_rev1_base_ad_rev3/quantum/send_string/send_string.o
sendchar                                          .build/obj_redox_rev1_base_ad_rev3/quantum/logging/sendchar.o
                                                  .build/obj_redox_rev1_base_ad_rev3/quantum/keyboard.o
serial_write_chunk                                .build/obj_redox_rev1_base_ad_rev3/serial.a(serial.o)
set_activity_timestamps                           .build/obj_redox_rev1_base_ad_rev3/quantum/keyboard.o
set_mods                                          .build/obj_redox_rev1_base_ad_rev3/quantum/action_util.o
                                                  .build/obj_redox_rev1_base_ad_rev3/quantum/unicode/unicode.o
set_oneshot_layer                                 .build/obj_redox_rev1_base_ad_rev3/quantum/action_util.o
                                                  .build/obj_redox_rev1_base_ad_rev3/quantum/action.o
set_oneshot_locked_mods                           .build/obj_redox_rev1_base_ad_rev3/quantum/action_util.o
set_oneshot_mods                                  .build/obj_redox_rev1_base_ad_rev3/quantum/action_util.o
set_single_persistent_default_layer               .build/obj_redox_rev1_base_ad_rev3/quantum/quantum.o
set_split_host_keyboard_leds                      .build/obj_redox_rev1_base_ad_rev3/protocol/host.o
set_unicode_input_mode                            .build/obj_redox_rev1_base_ad_rev3/quantum/unicode/unicode.o
                                                  .build/obj_redox_rev1_base_ad_rev3/quantum/process_keycode/process_unicode_common.o
set_weak_mods                                     .build/obj_redox_rev1_base_ad_rev3/quantum/action_util.o
sethsv                                            .build/obj_redox_rev1_base_ad_rev3/quantum/rgblight/rgblight.o
sethsv_raw                                        .build/obj_redox_rev1_base_ad_rev3/quantum/rgblight/rgblight.o
setrgb                                            .build/obj_redox_rev1_base_ad_rev3/quantum/rgblight/rgblight.o
should_mousekey_report_send                       .build/obj_redox_rev1_base_ad_rev3/quantum/mousekey.o
should_process_keypress                           .build/obj_redox_rev1_base_ad_rev3/quantum/keyboard.o
shutdown_kb                                       .build/obj_redox_rev1_base_ad_rev3/quantum/quantum.o
shutdown_quantum                                  .build/obj_redox_rev1_base_ad_rev3/quantum/quantum.o
shutdown_user                                     .build/obj_redox_rev1_base_ad_rev3/quantum/quantum.o
soft_reset_keyboard                               .build/obj_redox_rev1_base_ad_rev3/quantum/quantum.o
soft_serial_initiator_init                        .build/obj_redox_rev1_base_ad_rev3/serial.a(serial.o)
                                                  .build/obj_redox_rev1_base_ad_rev3/quantum/split_common/transport.o
soft_serial_target_init                           .build/obj_redox_rev1_base_ad_rev3/serial.a(serial.o)
                                                  .build/obj_redox_rev1_base_ad_rev3/quantum/split_common/transport.o
soft_serial_transaction                           .build/obj_redox_rev1_base_ad_rev3/serial.a(serial.o)
                                                  .build/obj_redox_rev1_base_ad_rev3/quantum/split_common/transport.o
source_layers_cache                               .build/obj_redox_rev1_base_ad_rev3/quantum/action_layer.o
split_led_state                                   .build/obj_redox_rev1_base_ad_rev3/protocol/host.o
split_post_init                                   .build/obj_redox_rev1_base_ad_rev3/quantum/split_common/split_util.o
                                                  .build/obj_redox_rev1_base_ad_rev3/quantum/keyboard.o
split_pre_init                                    .build/obj_redox_rev1_base_ad_rev3/quantum/split_common/split_util.o
                                                  .build/obj_redox_rev1_base_ad_rev3/quantum/keyboard.o
split_shared_memory_autounlock_lock_helper        .build/obj_redox_rev1_base_ad_rev3/platforms/synchronization_util.o
split_shared_memory_autounlock_unlock_helper      .build/obj_redox_rev1_base_ad_rev3/platforms/synchronization_util.o
split_shared_memory_lock                          .build/obj_redox_rev1_base_ad_rev3/platforms/synchronization_util.o
split_shared_memory_unlock                        .build/obj_redox_rev1_base_ad_rev3/platforms/synchronization_util.o
split_shmem                                       .build/obj_redox_rev1_base_ad_rev3/quantum/split_common/transport.o
                                                  .build/obj_redox_rev1_base_ad_rev3/serial.a(serial.o)
                                                  .build/obj_redox_rev1_base_ad_rev3/quantum/split_common/transactions.o
split_transaction_table                           .build/obj_redox_rev1_base_ad_rev3/quantum/split_common/transactions.o
                                                  .build/obj_redox_rev1_base_ad_rev3/serial.a(serial.o)
                                                  .build/obj_redox_rev1_base_ad_rev3/quantum/split_common/transport.o
store_or_get_action                               .build/obj_redox_rev1_base_ad_rev3/quantum/action_layer.o
                                                  .build/obj_redox_rev1_base_ad_rev3/quantum/action.o
suspend_power_down                                .build/obj_redox_rev1_base_ad_rev3/platforms/avr/suspend.o
                                                  .build/obj_redox_rev1_base_ad_rev3/lufa.o
suspend_power_down_kb                             .build/obj_redox_rev1_base_ad_rev3/platforms/suspend.o
                                                  .build/obj_redox_rev1_base_ad_rev3/quantum/quantum.o
suspend_power_down_quantum                        .build/obj_redox_rev1_base_ad_rev3/quantum/quantum.o
                                                  .build/obj_redox_rev1_base_ad_rev3/platforms/avr/suspend.o
suspend_power_down_user                           .build/obj_redox_rev1_base_ad_rev3/platforms/suspend.o
suspend_wakeup_condition                          .build/obj_redox_rev1_base_ad_rev3/platforms/suspend.o
                                                  .build/obj_redox_rev1_base_ad_rev3/lufa.o
suspend_wakeup_init                               .build/obj_redox_rev1_base_ad_rev3/platforms/avr/suspend.o
                                                  .build/obj_redox_rev1_base_ad_rev3/lufa.o
suspend_wakeup_init_kb                            .build/obj_redox_rev1_base_ad_rev3/platforms/suspend.o
                                                  .build/obj_redox_rev1_base_ad_rev3/quantum/quantum.o
suspend_wakeup_init_quantum                       .build/obj_redox_rev1_base_ad_rev3/quantum/quantum.o
                                                  .build/obj_redox_rev1_base_ad_rev3/platforms/avr/suspend.o
suspend_wakeup_init_user                          .build/obj_redox_rev1_base_ad_rev3/platforms/suspend.o
switch_events                                     .build/obj_redox_rev1_base_ad_rev3/quantum/keyboard.o
sync_timer_elapsed                                .build/obj_redox_rev1_base_ad_rev3/quantum/sync_timer.o
sync_timer_elapsed32                              .build/obj_redox_rev1_base_ad_rev3/quantum/sync_timer.o
                                                  .build/obj_redox_rev1_base_ad_rev3/quantum/keyboard.o
sync_timer_init                                   .build/obj_redox_rev1_base_ad_rev3/quantum/sync_timer.o
                                                  .build/obj_redox_rev1_base_ad_rev3/quantum/keyboard.o
sync_timer_ms                                     .build/obj_redox_rev1_base_ad_rev3/quantum/sync_timer.o
sync_timer_read                                   .build/obj_redox_rev1_base_ad_rev3/quantum/sync_timer.o
sync_timer_read32                                 .build/obj_redox_rev1_base_ad_rev3/quantum/sync_timer.o
                                                  .build/obj_redox_rev1_base_ad_rev3/quantum/split_common/transactions.o
                                                  .build/obj_redox_rev1_base_ad_rev3/quantum/keyboard.o
sync_timer_update                                 .build/obj_redox_rev1_base_ad_rev3/quantum/sync_timer.o
                                                  .build/obj_redox_rev1_base_ad_rev3/quantum/split_common/transactions.o
tap_code                                          .build/obj_redox_rev1_base_ad_rev3/quantum/action.o
                                                  .build/obj_redox_rev1_base_ad_rev3/quantum/process_keycode/process_space_cadet.o
                                                  .build/obj_redox_rev1_base_ad_rev3/quantum/send_string/send_string.o
                                                  .build/obj_redox_rev1_base_ad_rev3/quantum/unicode/unicode.o
tap_code16                                        .build/obj_redox_rev1_base_ad_rev3/quantum/quantum.o
                                                  .build/obj_redox_rev1_base_ad_rev3/quantum/unicode/unicode.o
                                                  .build/obj_redox_rev1_base_ad_rev3/quantum/keymap_introspection.o
tap_code16_delay                                  .build/obj_redox_rev1_base_ad_rev3/quantum/quantum.o
tap_code_delay                                    .build/obj_redox_rev1_base_ad_rev3/quantum/action.o
tap_dance_actions                                 .build/obj_redox_rev1_base_ad_rev3/quantum/keymap_introspection.o
                                                  .build/obj_redox_rev1_base_ad_rev3/quantum/process_keycode/process_tap_dance.o
tap_dance_dual_role_finished                      .build/obj_redox_rev1_base_ad_rev3/quantum/process_keycode/process_tap_dance.o
tap_dance_dual_role_on_each_tap                   .build/obj_redox_rev1_base_ad_rev3/quantum/process_keycode/process_tap_dance.o
tap_dance_dual_role_reset                         .build/obj_redox_rev1_base_ad_rev3/quantum/process_keycode/process_tap_dance.o
tap_dance_pair_finished                           .build/obj_redox_rev1_base_ad_rev3/quantum/process_keycode/process_tap_dance.o
tap_dance_pair_on_each_tap                        .build/obj_redox_rev1_base_ad_rev3/quantum/process_keycode/process_tap_dance.o
tap_dance_pair_reset                              .build/obj_redox_rev1_base_ad_rev3/quantum/process_keycode/process_tap_dance.o
tap_dance_task                                    .build/obj_redox_rev1_base_ad_rev3/quantum/process_keycode/process_tap_dance.o
                                                  .build/obj_redox_rev1_base_ad_rev3/quantum/keyboard.o
tap_random_base64                                 .build/obj_redox_rev1_base_ad_rev3/quantum/send_string/send_string.o
thatHand                                          .build/obj_redox_rev1_base_ad_rev3/quantum/matrix_common.o
                                                  .build/obj_redox_rev1_base_ad_rev3/quantum/matrix.o
thisHand                                          .build/obj_redox_rev1_base_ad_rev3/quantum/matrix_common.o
                                                  .build/obj_redox_rev1_base_ad_rev3/quantum/matrix.o
timer_clear                                       .build/obj_redox_rev1_base_ad_rev3/platforms/avr/timer.o
timer_count                                       .build/obj_redox_rev1_base_ad_rev3/platforms/avr/timer.o
                                                  .build/obj_redox_rev1_base_ad_rev3/platforms/avr/suspend.o
timer_elapsed                                     .build/obj_redox_rev1_base_ad_rev3/platforms/avr/timer.o
                                                  .build/obj_redox_rev1_base_ad_rev3/platforms/timer.o
                                                  .build/obj_redox_rev1_base_ad_rev3/quantum/process_keycode/process_tap_dance.o
                                                  .build/obj_redox_rev1_base_ad_rev3/quantum/process_keycode/process_space_cadet.o
                                                  .build/obj_redox_rev1_base_ad_rev3/quantum/mousekey.o
                                                  .build/obj_redox_rev1_base_ad_rev3/quantum/split_common/split_util.o
                                                  .build/obj_redox_rev1_base_ad_rev3/quantum/debounce/sym_defer_g.o
                                                  .build/obj_redox_rev1_base_ad_rev3/quantum/sync_timer.o
timer_elapsed32                                   .build/obj_redox_rev1_base_ad_rev3/platforms/avr/timer.o
                                                  .build/obj_redox_rev1_base_ad_rev3/quantum/split_common/transactions.o
                                                  .build/obj_redox_rev1_base_ad_rev3/quantum/sync_timer.o
                                                  .build/obj_redox_rev1_base_ad_rev3/quantum/led.o
timer_elapsed_fast                                .build/obj_redox_rev1_base_ad_rev3/platforms/timer.o
timer_init                                        .build/obj_redox_rev1_base_ad_rev3/platforms/avr/timer.o
                                                  .build/obj_redox_rev1_base_ad_rev3/quantum/keyboard.o
timer_read                                        .build/obj_redox_rev1_base_ad_rev3/platforms/avr/timer.o
                                                  .build/obj_redox_rev1_base_ad_rev3/platforms/timer.o
                                                  .build/obj_redox_rev1_base_ad_rev3/quantum/process_keycode/process_tap_dance.o
                                                  .build/obj_redox_rev1_base_ad_rev3/quantum/process_keycode/process_space_cadet.o
                                                  .build/obj_redox_rev1_base_ad_rev3/quantum/mousekey.o
                                                  .build/obj_redox_rev1_base_ad_rev3/quantum/split_common/split_util.o
                                                  .build/obj_redox_rev1_base_ad_rev3/quantum/debounce/sym_defer_g.o
                                                  .build/obj_redox_rev1_base_ad_rev3/quantum/sync_timer.o
                                                  .build/obj_redox_rev1_base_ad_rev3/quantum/keyboard.o
timer_read32                                      .build/obj_redox_rev1_base_ad_rev3/platforms/avr/timer.o
                                                  .build/obj_redox_rev1_base_ad_rev3/quantum/split_common/transactions.o
                                                  .build/obj_redox_rev1_base_ad_rev3/quantum/sync_timer.o
                                                  .build/obj_redox_rev1_base_ad_rev3/quantum/led.o
timer_read_fast                                   .build/obj_redox_rev1_base_ad_rev3/platforms/timer.o
tp_buttons                                        .build/obj_redox_rev1_base_ad_rev3/quantum/action.o
transactions_master                               .build/obj_redox_rev1_base_ad_rev3/quantum/split_common/transactions.o
                                                  .build/obj_redox_rev1_base_ad_rev3/quantum/split_common/transport.o
transactions_slave                                .build/obj_redox_rev1_base_ad_rev3/quantum/split_common/transactions.o
                                                  .build/obj_redox_rev1_base_ad_rev3/quantum/split_common/transport.o
transport_execute_transaction                     .build/obj_redox_rev1_base_ad_rev3/quantum/split_common/transport.o
                                                  .build/obj_redox_rev1_base_ad_rev3/quantum/split_common/transactions.o
transport_master                                  .build/obj_redox_rev1_base_ad_rev3/quantum/split_common/transport.o
                                                  .build/obj_redox_rev1_base_ad_rev3/quantum/split_common/split_util.o
                                                  .build/obj_redox_rev1_base_ad_rev3/quantum/matrix.o
transport_master_if_connected                     .build/obj_redox_rev1_base_ad_rev3/quantum/split_common/split_util.o
                                                  .build/obj_redox_rev1_base_ad_rev3/quantum/matrix.o
                                                  .build/obj_redox_rev1_base_ad_rev3/quantum/matrix_common.o
transport_master_init                             .build/obj_redox_rev1_base_ad_rev3/quantum/split_common/transport.o
                                                  .build/obj_redox_rev1_base_ad_rev3/quantum/split_common/split_util.o
transport_slave                                   .build/obj_redox_rev1_base_ad_rev3/quantum/split_common/transport.o
                                                  .build/obj_redox_rev1_base_ad_rev3/quantum/matrix_common.o
transport_slave_init                              .build/obj_redox_rev1_base_ad_rev3/quantum/split_common/transport.o
                                                  .build/obj_redox_rev1_base_ad_rev3/quantum/split_common/split_util.o
unicode_config                                    .build/obj_redox_rev1_base_ad_rev3/quantum/unicode/unicode.o
unicode_input_cancel                              .build/obj_redox_rev1_base_ad_rev3/quantum/unicode/unicode.o
unicode_input_finish                              .build/obj_redox_rev1_base_ad_rev3/quantum/unicode/unicode.o
unicode_input_mode_init                           .build/obj_redox_rev1_base_ad_rev3/quantum/unicode/unicode.o
                                                  .build/obj_redox_rev1_base_ad_rev3/quantum/keyboard.o
unicode_input_mode_set_kb                         .build/obj_redox_rev1_base_ad_rev3/quantum/unicode/unicode.o
unicode_input_mode_set_user                       .build/obj_redox_rev1_base_ad_rev3/quantum/unicode/unicode.o
unicode_input_mode_step                           .build/obj_redox_rev1_base_ad_rev3/quantum/unicode/unicode.o
                                                  .build/obj_redox_rev1_base_ad_rev3/quantum/process_keycode/process_unicode_common.o
unicode_input_mode_step_reverse                   .build/obj_redox_rev1_base_ad_rev3/quantum/unicode/unicode.o
                                                  .build/obj_redox_rev1_base_ad_rev3/quantum/process_keycode/process_unicode_common.o
unicode_input_start                               .build/obj_redox_rev1_base_ad_rev3/quantum/unicode/unicode.o
unicode_saved_led_state                           .build/obj_redox_rev1_base_ad_rev3/quantum/unicode/unicode.o
unicode_saved_mods                                .build/obj_redox_rev1_base_ad_rev3/quantum/unicode/unicode.o
unregister_code                                   .build/obj_redox_rev1_base_ad_rev3/quantum/action.o
                                                  .build/obj_redox_rev1_base_ad_rev3/quantum/send_string/send_string.o
                                                  .build/obj_redox_rev1_base_ad_rev3/quantum/unicode/unicode.o
                                                  .build/obj_redox_rev1_base_ad_rev3/quantum/quantum.o
                                                  .build/obj_redox_rev1_base_ad_rev3/quantum/keymap_introspection.o
unregister_code16                                 .build/obj_redox_rev1_base_ad_rev3/quantum/quantum.o
                                                  .build/obj_redox_rev1_base_ad_rev3/quantum/process_keycode/process_tap_dance.o
unregister_mods                                   .build/obj_redox_rev1_base_ad_rev3/quantum/action.o
                                                  .build/obj_redox_rev1_base_ad_rev3/quantum/process_keycode/process_space_cadet.o
                                                  .build/obj_redox_rev1_base_ad_rev3/quantum/quantum.o
unregister_weak_mods                              .build/obj_redox_rev1_base_ad_rev3/quantum/action.o
                                                  .build/obj_redox_rev1_base_ad_rev3/quantum/quantum.o
update_source_layers_cache                        .build/obj_redox_rev1_base_ad_rev3/quantum/action_layer.o
                                                  .build/obj_redox_rev1_base_ad_rev3/quantum/quantum.o
update_source_layers_cache_impl                   .build/obj_redox_rev1_base_ad_rev3/quantum/action_layer.o
update_tri_layer                                  .build/obj_redox_rev1_base_ad_rev3/quantum/action_layer.o
update_tri_layer_state                            .build/obj_redox_rev1_base_ad_rev3/quantum/action_layer.o
usb_connected_state                               .build/obj_redox_rev1_base_ad_rev3/protocol/lufa/usb_util.o
                                                  .build/obj_redox_rev1_base_ad_rev3/protocol/usb_util.o
usb_device_state                                  .build/obj_redox_rev1_base_ad_rev3/protocol/usb_device_state.o
usb_device_state_init                             .build/obj_redox_rev1_base_ad_rev3/protocol/usb_device_state.o
                                                  .build/obj_redox_rev1_base_ad_rev3/lufa.o
usb_device_state_set_configuration                .build/obj_redox_rev1_base_ad_rev3/protocol/usb_device_state.o
                                                  .build/obj_redox_rev1_base_ad_rev3/lufa.o
usb_device_state_set_reset                        .build/obj_redox_rev1_base_ad_rev3/protocol/usb_device_state.o
                                                  .build/obj_redox_rev1_base_ad_rev3/lufa.o
usb_device_state_set_resume                       .build/obj_redox_rev1_base_ad_rev3/protocol/usb_device_state.o
                                                  .build/obj_redox_rev1_base_ad_rev3/lufa.o
usb_device_state_set_suspend                      .build/obj_redox_rev1_base_ad_rev3/protocol/usb_device_state.o
                                                  .build/obj_redox_rev1_base_ad_rev3/lufa.o
usb_disconnect                                    .build/obj_redox_rev1_base_ad_rev3/protocol/lufa/usb_util.o
                                                  .build/obj_redox_rev1_base_ad_rev3/protocol/usb_util.o
                                                  .build/obj_redox_rev1_base_ad_rev3/quantum/split_common/split_util.o
usb_vbus_state                                    .build/obj_redox_rev1_base_ad_rev3/protocol/lufa/usb_util.o
                                                  .build/obj_redox_rev1_base_ad_rev3/protocol/usb_util.o
                                                  .build/obj_redox_rev1_base_ad_rev3/quantum/split_common/split_util.o
ws2812_setleds                                    .build/obj_redox_rev1_base_ad_rev3/ws2812_bitbang.o
                                                  .build/obj_redox_rev1_base_ad_rev3/quantum/rgblight/rgblight.o
xfunc_out                                         .build/obj_redox_rev1_base_ad_rev3/platforms/avr/xprintf.o
                                                  .build/obj_redox_rev1_base_ad_rev3/platforms/avr/printf.o
xitoa                                             .build/obj_redox_rev1_base_ad_rev3/platforms/avr/xprintf.o
xputc                                             .build/obj_redox_rev1_base_ad_rev3/platforms/avr/xprintf.o
xputs                                             .build/obj_redox_rev1_base_ad_rev3/platforms/avr/xprintf.o
